ARM GAS  C:\Users\geoma\AppData\Local\Temp\ccL8i5hD.s 			page 1


   1              		.syntax unified
   2              		.cpu cortex-m4
   3              		.eabi_attribute 27, 1
   4              		.eabi_attribute 28, 1
   5              		.fpu fpv4-sp-d16
   6              		.eabi_attribute 20, 1
   7              		.eabi_attribute 21, 1
   8              		.eabi_attribute 23, 3
   9              		.eabi_attribute 24, 1
  10              		.eabi_attribute 25, 1
  11              		.eabi_attribute 26, 1
  12              		.eabi_attribute 30, 1
  13              		.eabi_attribute 34, 1
  14              		.eabi_attribute 18, 4
  15              		.thumb
  16              		.file	"cstblk4_m.c"
  17              		.text
  18              	.Ltext0:
  19              		.cfi_sections	.debug_frame
  20              		.section	.text.cstblk4_m,"ax",%progbits
  21              		.align	2
  22              		.global	cstblk4_m
  23              		.thumb
  24              		.thumb_func
  26              	cstblk4_m:
  27              	.LFB156:
  28              		.file 1 "C:/Users/geoma/Desktop/Scilab/toolboxes/STM32_toolbox_1-1/scicos_blocks/src/c/cstblk4_m.c
   1:C:/Users/geoma/Desktop/Scilab/toolboxes/STM32_toolbox_1-1/scicos_blocks/src/c\cstblk4_m.c **** /*  Scicos
   2:C:/Users/geoma/Desktop/Scilab/toolboxes/STM32_toolbox_1-1/scicos_blocks/src/c\cstblk4_m.c **** *
   3:C:/Users/geoma/Desktop/Scilab/toolboxes/STM32_toolbox_1-1/scicos_blocks/src/c\cstblk4_m.c **** *  Copyright (C) INRIA - METALAU Project <scicos@inria.fr>
   4:C:/Users/geoma/Desktop/Scilab/toolboxes/STM32_toolbox_1-1/scicos_blocks/src/c\cstblk4_m.c **** *
   5:C:/Users/geoma/Desktop/Scilab/toolboxes/STM32_toolbox_1-1/scicos_blocks/src/c\cstblk4_m.c **** * This program is free software; you can redistribute it and/or modify
   6:C:/Users/geoma/Desktop/Scilab/toolboxes/STM32_toolbox_1-1/scicos_blocks/src/c\cstblk4_m.c **** * it under the terms of the GNU General Public License as published by
   7:C:/Users/geoma/Desktop/Scilab/toolboxes/STM32_toolbox_1-1/scicos_blocks/src/c\cstblk4_m.c **** * the Free Software Foundation; either version 2 of the License, or
   8:C:/Users/geoma/Desktop/Scilab/toolboxes/STM32_toolbox_1-1/scicos_blocks/src/c\cstblk4_m.c **** * (at your option) any later version.
   9:C:/Users/geoma/Desktop/Scilab/toolboxes/STM32_toolbox_1-1/scicos_blocks/src/c\cstblk4_m.c **** *
  10:C:/Users/geoma/Desktop/Scilab/toolboxes/STM32_toolbox_1-1/scicos_blocks/src/c\cstblk4_m.c **** * This program is distributed in the hope that it will be useful,
  11:C:/Users/geoma/Desktop/Scilab/toolboxes/STM32_toolbox_1-1/scicos_blocks/src/c\cstblk4_m.c **** * but WITHOUT ANY WARRANTY; without even the implied warranty of
  12:C:/Users/geoma/Desktop/Scilab/toolboxes/STM32_toolbox_1-1/scicos_blocks/src/c\cstblk4_m.c **** * MERCHANTABILITY or FITNESS FOR A PARTICULAR PURPOSE.  See the
  13:C:/Users/geoma/Desktop/Scilab/toolboxes/STM32_toolbox_1-1/scicos_blocks/src/c\cstblk4_m.c **** * GNU General Public License for more details.
  14:C:/Users/geoma/Desktop/Scilab/toolboxes/STM32_toolbox_1-1/scicos_blocks/src/c\cstblk4_m.c **** *
  15:C:/Users/geoma/Desktop/Scilab/toolboxes/STM32_toolbox_1-1/scicos_blocks/src/c\cstblk4_m.c **** * You should have received a copy of the GNU General Public License
  16:C:/Users/geoma/Desktop/Scilab/toolboxes/STM32_toolbox_1-1/scicos_blocks/src/c\cstblk4_m.c **** * along with this program; if not, write to the Free Software
  17:C:/Users/geoma/Desktop/Scilab/toolboxes/STM32_toolbox_1-1/scicos_blocks/src/c\cstblk4_m.c **** * Foundation, Inc., 51 Franklin Street, Fifth Floor, Boston, MA 02110-1301, USA.
  18:C:/Users/geoma/Desktop/Scilab/toolboxes/STM32_toolbox_1-1/scicos_blocks/src/c\cstblk4_m.c **** *
  19:C:/Users/geoma/Desktop/Scilab/toolboxes/STM32_toolbox_1-1/scicos_blocks/src/c\cstblk4_m.c **** * See the file ./license.txt
  20:C:/Users/geoma/Desktop/Scilab/toolboxes/STM32_toolbox_1-1/scicos_blocks/src/c\cstblk4_m.c **** */
  21:C:/Users/geoma/Desktop/Scilab/toolboxes/STM32_toolbox_1-1/scicos_blocks/src/c\cstblk4_m.c **** /*--------------------------------------------------------------------------*/
  22:C:/Users/geoma/Desktop/Scilab/toolboxes/STM32_toolbox_1-1/scicos_blocks/src/c\cstblk4_m.c **** #include <string.h>
  23:C:/Users/geoma/Desktop/Scilab/toolboxes/STM32_toolbox_1-1/scicos_blocks/src/c\cstblk4_m.c **** #include "scicos_block4.h"
  24:C:/Users/geoma/Desktop/Scilab/toolboxes/STM32_toolbox_1-1/scicos_blocks/src/c\cstblk4_m.c **** #include "dynlib_scicos_blocks.h"
  25:C:/Users/geoma/Desktop/Scilab/toolboxes/STM32_toolbox_1-1/scicos_blocks/src/c\cstblk4_m.c **** //#define __aeabi_assert assert_failed
  26:C:/Users/geoma/Desktop/Scilab/toolboxes/STM32_toolbox_1-1/scicos_blocks/src/c\cstblk4_m.c **** 
  27:C:/Users/geoma/Desktop/Scilab/toolboxes/STM32_toolbox_1-1/scicos_blocks/src/c\cstblk4_m.c **** 
  28:C:/Users/geoma/Desktop/Scilab/toolboxes/STM32_toolbox_1-1/scicos_blocks/src/c\cstblk4_m.c **** 
  29:C:/Users/geoma/Desktop/Scilab/toolboxes/STM32_toolbox_1-1/scicos_blocks/src/c\cstblk4_m.c **** /*--------------------------------------------------------------------------*/
  30:C:/Users/geoma/Desktop/Scilab/toolboxes/STM32_toolbox_1-1/scicos_blocks/src/c\cstblk4_m.c **** SCICOS_BLOCKS_IMPEXP void cstblk4_m(scicos_block *block, int flag)
ARM GAS  C:\Users\geoma\AppData\Local\Temp\ccL8i5hD.s 			page 2


  31:C:/Users/geoma/Desktop/Scilab/toolboxes/STM32_toolbox_1-1/scicos_blocks/src/c\cstblk4_m.c **** {
  29              		.loc 1 31 0
  30              		.cfi_startproc
  31              		@ args = 0, pretend = 0, frame = 0
  32              		@ frame_needed = 0, uses_anonymous_args = 0
  33              	.LVL0:
  34 0000 38B5     		push	{r3, r4, r5, lr}
  35              	.LCFI0:
  36              		.cfi_def_cfa_offset 16
  37              		.cfi_offset 3, -16
  38              		.cfi_offset 4, -12
  39              		.cfi_offset 5, -8
  40              		.cfi_offset 14, -4
  41 0002 0346     		mov	r3, r0
  42              	.LVL1:
  32:C:/Users/geoma/Desktop/Scilab/toolboxes/STM32_toolbox_1-1/scicos_blocks/src/c\cstblk4_m.c ****     /* Copyright INRIA
  33:C:/Users/geoma/Desktop/Scilab/toolboxes/STM32_toolbox_1-1/scicos_blocks/src/c\cstblk4_m.c **** 
  34:C:/Users/geoma/Desktop/Scilab/toolboxes/STM32_toolbox_1-1/scicos_blocks/src/c\cstblk4_m.c ****     Scicos block simulator
  35:C:/Users/geoma/Desktop/Scilab/toolboxes/STM32_toolbox_1-1/scicos_blocks/src/c\cstblk4_m.c ****     output a vector of constants out(i)=opar(i)
  36:C:/Users/geoma/Desktop/Scilab/toolboxes/STM32_toolbox_1-1/scicos_blocks/src/c\cstblk4_m.c ****     opar(1:nopar) : given constants */
  37:C:/Users/geoma/Desktop/Scilab/toolboxes/STM32_toolbox_1-1/scicos_blocks/src/c\cstblk4_m.c ****     int mo = 0, no = 0, so = 0;
  38:C:/Users/geoma/Desktop/Scilab/toolboxes/STM32_toolbox_1-1/scicos_blocks/src/c\cstblk4_m.c ****     void *y = NULL;
  39:C:/Users/geoma/Desktop/Scilab/toolboxes/STM32_toolbox_1-1/scicos_blocks/src/c\cstblk4_m.c ****     void *opar = NULL;
  40:C:/Users/geoma/Desktop/Scilab/toolboxes/STM32_toolbox_1-1/scicos_blocks/src/c\cstblk4_m.c ****     y = GetOutPortPtrs(block, 1);
  43              		.loc 1 40 0
  44 0004 026D     		ldr	r2, [r0, #80]
  45 0006 1068     		ldr	r0, [r2]
  46              	.LVL2:
  41:C:/Users/geoma/Desktop/Scilab/toolboxes/STM32_toolbox_1-1/scicos_blocks/src/c\cstblk4_m.c ****     opar = GetOparPtrs(block, 1);
  47              		.loc 1 41 0
  48 0008 9A6F     		ldr	r2, [r3, #120]
  49 000a 1168     		ldr	r1, [r2]
  50              	.LVL3:
  42:C:/Users/geoma/Desktop/Scilab/toolboxes/STM32_toolbox_1-1/scicos_blocks/src/c\cstblk4_m.c ****     mo = GetOparSize(block, 1, 1);
  51              		.loc 1 42 0
  52 000c 1C6F     		ldr	r4, [r3, #112]
  53 000e 2568     		ldr	r5, [r4]
  54              	.LVL4:
  43:C:/Users/geoma/Desktop/Scilab/toolboxes/STM32_toolbox_1-1/scicos_blocks/src/c\cstblk4_m.c ****     no = GetOparSize(block, 1, 2);
  55              		.loc 1 43 0
  56 0010 DA6E     		ldr	r2, [r3, #108]
  57 0012 54F82240 		ldr	r4, [r4, r2, lsl #2]
  58              	.LVL5:
  44:C:/Users/geoma/Desktop/Scilab/toolboxes/STM32_toolbox_1-1/scicos_blocks/src/c\cstblk4_m.c ****     so = GetSizeOfOpar(block, 1);
  59              		.loc 1 44 0
  60 0016 5B6F     		ldr	r3, [r3, #116]
  61              	.LVL6:
  62 0018 1B68     		ldr	r3, [r3]
  63 001a 0A2B     		cmp	r3, #10
  64 001c 1CD0     		beq	.L7
  65              		.loc 1 44 0 is_stmt 0 discriminator 1
  66 001e 0B2B     		cmp	r3, #11
  67 0020 18D0     		beq	.L8
  68              		.loc 1 44 0 discriminator 3
  69 0022 40F22B32 		movw	r2, #811
  70 0026 9342     		cmp	r3, r2
  71 0028 18BF     		it	ne
ARM GAS  C:\Users\geoma\AppData\Local\Temp\ccL8i5hD.s 			page 3


  72 002a 512B     		cmpne	r3, #81
  73 002c 10D0     		beq	.L9
  74              		.loc 1 44 0 discriminator 6
  75 002e B3F54B7F 		cmp	r3, #812
  76 0032 18BF     		it	ne
  77 0034 522B     		cmpne	r3, #82
  78 0036 09D0     		beq	.L10
  79              		.loc 1 44 0 discriminator 9
  80 0038 40F22E32 		movw	r2, #814
  81 003c 9342     		cmp	r3, r2
  82 003e 18BF     		it	ne
  83 0040 542B     		cmpne	r3, #84
  84 0042 01D1     		bne	.L11
  85              		.loc 1 44 0
  86 0044 0422     		movs	r2, #4
  87 0046 08E0     		b	.L2
  88              	.L11:
  89 0048 0022     		movs	r2, #0
  90 004a 06E0     		b	.L2
  91              	.L10:
  92 004c 0222     		movs	r2, #2
  93 004e 04E0     		b	.L2
  94              	.L9:
  95 0050 0122     		movs	r2, #1
  96 0052 02E0     		b	.L2
  97              	.L8:
  98 0054 1022     		movs	r2, #16
  99 0056 00E0     		b	.L2
 100              	.L7:
 101 0058 0822     		movs	r2, #8
 102              	.L2:
 103              	.LVL7:
  45:C:/Users/geoma/Desktop/Scilab/toolboxes/STM32_toolbox_1-1/scicos_blocks/src/c\cstblk4_m.c ****     memcpy(y, opar, mo * no * so);
 104              		.loc 1 45 0 is_stmt 1 discriminator 20
 105 005a 04FB05F3 		mul	r3, r4, r5
 106 005e 03FB02F2 		mul	r2, r3, r2
 107              	.LVL8:
 108 0062 FFF7FEFF 		bl	memcpy
 109              	.LVL9:
 110 0066 38BD     		pop	{r3, r4, r5, pc}
 111              		.cfi_endproc
 112              	.LFE156:
 114              		.text
 115              	.Letext0:
 116              		.file 2 "c:\\program files (x86)\\gnu tools arm embedded\\4.9 2015q2\\arm-none-eabi\\include\\mach
 117              		.file 3 "c:\\program files (x86)\\gnu tools arm embedded\\4.9 2015q2\\arm-none-eabi\\include\\sys\
 118              		.file 4 "../../toolboxes/STM32_toolbox_1-1/scicos_blocks/includes/scicos_block4.h"
 119              		.file 5 "Drivers/CMSIS/Include/core_cm4.h"
ARM GAS  C:\Users\geoma\AppData\Local\Temp\ccL8i5hD.s 			page 4

