ARM GAS  C:\Users\geoma\AppData\Local\Temp\cceauhXK.s 			page 1


   1              		.syntax unified
   2              		.cpu cortex-m4
   3              		.eabi_attribute 27, 1
   4              		.eabi_attribute 28, 1
   5              		.fpu fpv4-sp-d16
   6              		.eabi_attribute 20, 1
   7              		.eabi_attribute 21, 1
   8              		.eabi_attribute 23, 3
   9              		.eabi_attribute 24, 1
  10              		.eabi_attribute 25, 1
  11              		.eabi_attribute 26, 1
  12              		.eabi_attribute 30, 1
  13              		.eabi_attribute 34, 1
  14              		.eabi_attribute 18, 4
  15              		.thumb
  16              		.file	"USART_IT_F302R8_06_USART.c"
  17              		.text
  18              	.Ltext0:
  19              		.cfi_sections	.debug_frame
  20              		.section	.text.USART2_CopyDataFcn,"ax",%progbits
  21              		.align	2
  22              		.global	USART2_CopyDataFcn
  23              		.thumb
  24              		.thumb_func
  26              	USART2_CopyDataFcn:
  27              	.LFB160:
  28              		.file 1 "C:/Users/geoma/Desktop/Scilab/scilab_test/USART_IT_F302R8_06/USART_IT_F302R8_06/Src/USART
   1:C:/Users/geoma/Desktop/Scilab/scilab_test/USART_IT_F302R8_06/USART_IT_F302R8_06/Src\USART_IT_F302R8_06_USART.c **** /*
   2:C:/Users/geoma/Desktop/Scilab/scilab_test/USART_IT_F302R8_06/USART_IT_F302R8_06/Src\USART_IT_F302R8_06_USART.c ****  * File: USART_IT_F302R8_06_USART.c
   3:C:/Users/geoma/Desktop/Scilab/scilab_test/USART_IT_F302R8_06/USART_IT_F302R8_06/Src\USART_IT_F302R8_06_USART.c ****  *
   4:C:/Users/geoma/Desktop/Scilab/scilab_test/USART_IT_F302R8_06/USART_IT_F302R8_06/Src\USART_IT_F302R8_06_USART.c ****  * Generated by USART Coder for Xcos with scilab-5.5.2
   5:C:/Users/geoma/Desktop/Scilab/scilab_test/USART_IT_F302R8_06/USART_IT_F302R8_06/Src\USART_IT_F302R8_06_USART.c ****  * C/C++ source code generated on  :09-Oct-2020
   6:C:/Users/geoma/Desktop/Scilab/scilab_test/USART_IT_F302R8_06/USART_IT_F302R8_06/Src\USART_IT_F302R8_06_USART.c ****  *
   7:C:/Users/geoma/Desktop/Scilab/scilab_test/USART_IT_F302R8_06/USART_IT_F302R8_06/Src\USART_IT_F302R8_06_USART.c ****  * Model version      :1.0
   8:C:/Users/geoma/Desktop/Scilab/scilab_test/USART_IT_F302R8_06/USART_IT_F302R8_06/Src\USART_IT_F302R8_06_USART.c ****  *
   9:C:/Users/geoma/Desktop/Scilab/scilab_test/USART_IT_F302R8_06/USART_IT_F302R8_06/Src\USART_IT_F302R8_06_USART.c ****  * ******************************************************************************
  10:C:/Users/geoma/Desktop/Scilab/scilab_test/USART_IT_F302R8_06/USART_IT_F302R8_06/Src\USART_IT_F302R8_06_USART.c ****  * * attention
  11:C:/Users/geoma/Desktop/Scilab/scilab_test/USART_IT_F302R8_06/USART_IT_F302R8_06/Src\USART_IT_F302R8_06_USART.c ****  * *
  12:C:/Users/geoma/Desktop/Scilab/scilab_test/USART_IT_F302R8_06/USART_IT_F302R8_06/Src\USART_IT_F302R8_06_USART.c ****  * * THE PRESENT FIRMWARE WHICH IS FOR GUIDANCE ONLY AIMS AT PROVIDING CUSTOMERS
  13:C:/Users/geoma/Desktop/Scilab/scilab_test/USART_IT_F302R8_06/USART_IT_F302R8_06/Src\USART_IT_F302R8_06_USART.c ****  * * WITH CODING INFORMATION REGARDING THEIR PRODUCTS IN ORDER FOR THEM TO SAVE
  14:C:/Users/geoma/Desktop/Scilab/scilab_test/USART_IT_F302R8_06/USART_IT_F302R8_06/Src\USART_IT_F302R8_06_USART.c ****  * * TIME. AS A RESULT, STMICROELECTRONICS SHALL NOT BE HELD LIABLE FOR ANY
  15:C:/Users/geoma/Desktop/Scilab/scilab_test/USART_IT_F302R8_06/USART_IT_F302R8_06/Src\USART_IT_F302R8_06_USART.c ****  * * DIRECT, INDIRECT OR CONSEQUENTIAL DAMAGES WITH RESPECT TO ANY CLAIMS ARISING
  16:C:/Users/geoma/Desktop/Scilab/scilab_test/USART_IT_F302R8_06/USART_IT_F302R8_06/Src\USART_IT_F302R8_06_USART.c ****  * * FROM THE CONTENT OF SUCH FIRMWARE AND/OR THE USE MADE BY CUSTOMERS OF THE
  17:C:/Users/geoma/Desktop/Scilab/scilab_test/USART_IT_F302R8_06/USART_IT_F302R8_06/Src\USART_IT_F302R8_06_USART.c ****  * * CODING INFORMATION CONTAINED HEREIN IN CONNECTION WITH THEIR PRODUCTS.
  18:C:/Users/geoma/Desktop/Scilab/scilab_test/USART_IT_F302R8_06/USART_IT_F302R8_06/Src\USART_IT_F302R8_06_USART.c ****  * *
  19:C:/Users/geoma/Desktop/Scilab/scilab_test/USART_IT_F302R8_06/USART_IT_F302R8_06/Src\USART_IT_F302R8_06_USART.c ****  * ******************************************************************************
  20:C:/Users/geoma/Desktop/Scilab/scilab_test/USART_IT_F302R8_06/USART_IT_F302R8_06/Src\USART_IT_F302R8_06_USART.c ****  */
  21:C:/Users/geoma/Desktop/Scilab/scilab_test/USART_IT_F302R8_06/USART_IT_F302R8_06/Src\USART_IT_F302R8_06_USART.c **** #include "USART_IT_F302R8_06.h"
  22:C:/Users/geoma/Desktop/Scilab/scilab_test/USART_IT_F302R8_06/USART_IT_F302R8_06/Src\USART_IT_F302R8_06_USART.c **** #include "USART_IT_F302R8_06_USART.h"
  23:C:/Users/geoma/Desktop/Scilab/scilab_test/USART_IT_F302R8_06/USART_IT_F302R8_06/Src\USART_IT_F302R8_06_USART.c **** extern void** USART_IT_F302R8_06_block_outtbptr; //External array definition of output pointers for
  24:C:/Users/geoma/Desktop/Scilab/scilab_test/USART_IT_F302R8_06/USART_IT_F302R8_06/Src\USART_IT_F302R8_06_USART.c **** 
  25:C:/Users/geoma/Desktop/Scilab/scilab_test/USART_IT_F302R8_06/USART_IT_F302R8_06/Src\USART_IT_F302R8_06_USART.c **** /*
  26:C:/Users/geoma/Desktop/Scilab/scilab_test/USART_IT_F302R8_06/USART_IT_F302R8_06/Src\USART_IT_F302R8_06_USART.c **** *******************************************************************************
  27:C:/Users/geoma/Desktop/Scilab/scilab_test/USART_IT_F302R8_06/USART_IT_F302R8_06/Src\USART_IT_F302R8_06_USART.c **** USART Receive variables definition
  28:C:/Users/geoma/Desktop/Scilab/scilab_test/USART_IT_F302R8_06/USART_IT_F302R8_06/Src\USART_IT_F302R8_06_USART.c **** *******************************************************************************
  29:C:/Users/geoma/Desktop/Scilab/scilab_test/USART_IT_F302R8_06/USART_IT_F302R8_06/Src\USART_IT_F302R8_06_USART.c **** */
  30:C:/Users/geoma/Desktop/Scilab/scilab_test/USART_IT_F302R8_06/USART_IT_F302R8_06/Src\USART_IT_F302R8_06_USART.c **** struct USART_RxDataLinkTypeDef* G_Usart_RxData;
ARM GAS  C:\Users\geoma\AppData\Local\Temp\cceauhXK.s 			page 2


  31:C:/Users/geoma/Desktop/Scilab/scilab_test/USART_IT_F302R8_06/USART_IT_F302R8_06/Src\USART_IT_F302R8_06_USART.c **** void*  G_Usart_RxHandler;
  32:C:/Users/geoma/Desktop/Scilab/scilab_test/USART_IT_F302R8_06/USART_IT_F302R8_06/Src\USART_IT_F302R8_06_USART.c **** struct USART_RxDataLinkTypeDef USART2_RxDataLink;
  33:C:/Users/geoma/Desktop/Scilab/scilab_test/USART_IT_F302R8_06/USART_IT_F302R8_06/Src\USART_IT_F302R8_06_USART.c **** uint8_t G_USART2_RxDataBuffer[USART2_RX_BUFF_SIZE];
  34:C:/Users/geoma/Desktop/Scilab/scilab_test/USART_IT_F302R8_06/USART_IT_F302R8_06/Src\USART_IT_F302R8_06_USART.c **** 
  35:C:/Users/geoma/Desktop/Scilab/scilab_test/USART_IT_F302R8_06/USART_IT_F302R8_06/Src\USART_IT_F302R8_06_USART.c **** /*
  36:C:/Users/geoma/Desktop/Scilab/scilab_test/USART_IT_F302R8_06/USART_IT_F302R8_06/Src\USART_IT_F302R8_06_USART.c **** *******************************************************************************
  37:C:/Users/geoma/Desktop/Scilab/scilab_test/USART_IT_F302R8_06/USART_IT_F302R8_06/Src\USART_IT_F302R8_06_USART.c **** Rx Transfer completed callbacks
  38:C:/Users/geoma/Desktop/Scilab/scilab_test/USART_IT_F302R8_06/USART_IT_F302R8_06/Src\USART_IT_F302R8_06_USART.c **** Input: UART handle
  39:C:/Users/geoma/Desktop/Scilab/scilab_test/USART_IT_F302R8_06/USART_IT_F302R8_06/Src\USART_IT_F302R8_06_USART.c **** *******************************************************************************
  40:C:/Users/geoma/Desktop/Scilab/scilab_test/USART_IT_F302R8_06/USART_IT_F302R8_06/Src\USART_IT_F302R8_06_USART.c **** */
  41:C:/Users/geoma/Desktop/Scilab/scilab_test/USART_IT_F302R8_06/USART_IT_F302R8_06/Src\USART_IT_F302R8_06_USART.c **** void HAL_UART_RxCpltCallback(UART_HandleTypeDef *huart)
  42:C:/Users/geoma/Desktop/Scilab/scilab_test/USART_IT_F302R8_06/USART_IT_F302R8_06/Src\USART_IT_F302R8_06_USART.c **** {
  43:C:/Users/geoma/Desktop/Scilab/scilab_test/USART_IT_F302R8_06/USART_IT_F302R8_06/Src\USART_IT_F302R8_06_USART.c ****    struct USART_RxDataLinkTypeDef*   pL_UART_RxData = G_Usart_RxData;
  44:C:/Users/geoma/Desktop/Scilab/scilab_test/USART_IT_F302R8_06/USART_IT_F302R8_06/Src\USART_IT_F302R8_06_USART.c ****    UART_HandleTypeDef*     pL_UART_Handler = (UART_HandleTypeDef*)G_Usart_RxHandler;
  45:C:/Users/geoma/Desktop/Scilab/scilab_test/USART_IT_F302R8_06/USART_IT_F302R8_06/Src\USART_IT_F302R8_06_USART.c ****    if(pL_UART_Handler == huart)
  46:C:/Users/geoma/Desktop/Scilab/scilab_test/USART_IT_F302R8_06/USART_IT_F302R8_06/Src\USART_IT_F302R8_06_USART.c ****    {
  47:C:/Users/geoma/Desktop/Scilab/scilab_test/USART_IT_F302R8_06/USART_IT_F302R8_06/Src\USART_IT_F302R8_06_USART.c ****       pL_UART_RxData->rxStatus = USART_RX_OK;
  48:C:/Users/geoma/Desktop/Scilab/scilab_test/USART_IT_F302R8_06/USART_IT_F302R8_06/Src\USART_IT_F302R8_06_USART.c ****    }
  49:C:/Users/geoma/Desktop/Scilab/scilab_test/USART_IT_F302R8_06/USART_IT_F302R8_06/Src\USART_IT_F302R8_06_USART.c **** }
  50:C:/Users/geoma/Desktop/Scilab/scilab_test/USART_IT_F302R8_06/USART_IT_F302R8_06/Src\USART_IT_F302R8_06_USART.c **** 
  51:C:/Users/geoma/Desktop/Scilab/scilab_test/USART_IT_F302R8_06/USART_IT_F302R8_06/Src\USART_IT_F302R8_06_USART.c **** /*
  52:C:/Users/geoma/Desktop/Scilab/scilab_test/USART_IT_F302R8_06/USART_IT_F302R8_06/Src\USART_IT_F302R8_06_USART.c **** *******************************************************************************
  53:C:/Users/geoma/Desktop/Scilab/scilab_test/USART_IT_F302R8_06/USART_IT_F302R8_06/Src\USART_IT_F302R8_06_USART.c **** Receive Initialization of USART2
  54:C:/Users/geoma/Desktop/Scilab/scilab_test/USART_IT_F302R8_06/USART_IT_F302R8_06/Src\USART_IT_F302R8_06_USART.c **** *******************************************************************************
  55:C:/Users/geoma/Desktop/Scilab/scilab_test/USART_IT_F302R8_06/USART_IT_F302R8_06/Src\USART_IT_F302R8_06_USART.c **** */
  56:C:/Users/geoma/Desktop/Scilab/scilab_test/USART_IT_F302R8_06/USART_IT_F302R8_06/Src\USART_IT_F302R8_06_USART.c **** void USART2_Rx_Initialization(void)
  57:C:/Users/geoma/Desktop/Scilab/scilab_test/USART_IT_F302R8_06/USART_IT_F302R8_06/Src\USART_IT_F302R8_06_USART.c **** {
  58:C:/Users/geoma/Desktop/Scilab/scilab_test/USART_IT_F302R8_06/USART_IT_F302R8_06/Src\USART_IT_F302R8_06_USART.c ****    G_Usart_RxData = &USART2_RxDataLink;
  59:C:/Users/geoma/Desktop/Scilab/scilab_test/USART_IT_F302R8_06/USART_IT_F302R8_06/Src\USART_IT_F302R8_06_USART.c ****    G_Usart_RxHandler = (void*)&huart2;
  60:C:/Users/geoma/Desktop/Scilab/scilab_test/USART_IT_F302R8_06/USART_IT_F302R8_06/Src\USART_IT_F302R8_06_USART.c ****    USART2_RxDataLink.ptRcv = G_USART2_RxDataBuffer;
  61:C:/Users/geoma/Desktop/Scilab/scilab_test/USART_IT_F302R8_06/USART_IT_F302R8_06/Src\USART_IT_F302R8_06_USART.c ****    USART2_RxDataLink.rxStatus = USART_RX_OFF;
  62:C:/Users/geoma/Desktop/Scilab/scilab_test/USART_IT_F302R8_06/USART_IT_F302R8_06/Src\USART_IT_F302R8_06_USART.c **** }
  63:C:/Users/geoma/Desktop/Scilab/scilab_test/USART_IT_F302R8_06/USART_IT_F302R8_06/Src\USART_IT_F302R8_06_USART.c **** 
  64:C:/Users/geoma/Desktop/Scilab/scilab_test/USART_IT_F302R8_06/USART_IT_F302R8_06/Src\USART_IT_F302R8_06_USART.c **** /*
  65:C:/Users/geoma/Desktop/Scilab/scilab_test/USART_IT_F302R8_06/USART_IT_F302R8_06/Src\USART_IT_F302R8_06_USART.c **** *******************************************************************************
  66:C:/Users/geoma/Desktop/Scilab/scilab_test/USART_IT_F302R8_06/USART_IT_F302R8_06/Src\USART_IT_F302R8_06_USART.c **** USART Send variables definition
  67:C:/Users/geoma/Desktop/Scilab/scilab_test/USART_IT_F302R8_06/USART_IT_F302R8_06/Src\USART_IT_F302R8_06_USART.c **** *******************************************************************************
  68:C:/Users/geoma/Desktop/Scilab/scilab_test/USART_IT_F302R8_06/USART_IT_F302R8_06/Src\USART_IT_F302R8_06_USART.c **** */
  69:C:/Users/geoma/Desktop/Scilab/scilab_test/USART_IT_F302R8_06/USART_IT_F302R8_06/Src\USART_IT_F302R8_06_USART.c **** struct USART_TxDataLinkTypeDef* G_Usart_TxData;
  70:C:/Users/geoma/Desktop/Scilab/scilab_test/USART_IT_F302R8_06/USART_IT_F302R8_06/Src\USART_IT_F302R8_06_USART.c **** void*   G_Usart_TxHandler;
  71:C:/Users/geoma/Desktop/Scilab/scilab_test/USART_IT_F302R8_06/USART_IT_F302R8_06/Src\USART_IT_F302R8_06_USART.c **** struct USART_TxDataLinkTypeDef USART2_TxDataLink;
  72:C:/Users/geoma/Desktop/Scilab/scilab_test/USART_IT_F302R8_06/USART_IT_F302R8_06/Src\USART_IT_F302R8_06_USART.c **** uint8_t G_USART2_TxDataBuffer[32];
  73:C:/Users/geoma/Desktop/Scilab/scilab_test/USART_IT_F302R8_06/USART_IT_F302R8_06/Src\USART_IT_F302R8_06_USART.c **** 
  74:C:/Users/geoma/Desktop/Scilab/scilab_test/USART_IT_F302R8_06/USART_IT_F302R8_06/Src\USART_IT_F302R8_06_USART.c **** /*
  75:C:/Users/geoma/Desktop/Scilab/scilab_test/USART_IT_F302R8_06/USART_IT_F302R8_06/Src\USART_IT_F302R8_06_USART.c **** *******************************************************************************
  76:C:/Users/geoma/Desktop/Scilab/scilab_test/USART_IT_F302R8_06/USART_IT_F302R8_06/Src\USART_IT_F302R8_06_USART.c **** Tx Transfer completed callbacks
  77:C:/Users/geoma/Desktop/Scilab/scilab_test/USART_IT_F302R8_06/USART_IT_F302R8_06/Src\USART_IT_F302R8_06_USART.c **** Input: UART handle
  78:C:/Users/geoma/Desktop/Scilab/scilab_test/USART_IT_F302R8_06/USART_IT_F302R8_06/Src\USART_IT_F302R8_06_USART.c **** *******************************************************************************
  79:C:/Users/geoma/Desktop/Scilab/scilab_test/USART_IT_F302R8_06/USART_IT_F302R8_06/Src\USART_IT_F302R8_06_USART.c **** */
  80:C:/Users/geoma/Desktop/Scilab/scilab_test/USART_IT_F302R8_06/USART_IT_F302R8_06/Src\USART_IT_F302R8_06_USART.c **** void HAL_UART_TxCpltCallback(UART_HandleTypeDef *huart)
  81:C:/Users/geoma/Desktop/Scilab/scilab_test/USART_IT_F302R8_06/USART_IT_F302R8_06/Src\USART_IT_F302R8_06_USART.c **** {
  82:C:/Users/geoma/Desktop/Scilab/scilab_test/USART_IT_F302R8_06/USART_IT_F302R8_06/Src\USART_IT_F302R8_06_USART.c ****    struct USART_TxDataLinkTypeDef*  pL_UART_TxData = G_Usart_TxData;
  83:C:/Users/geoma/Desktop/Scilab/scilab_test/USART_IT_F302R8_06/USART_IT_F302R8_06/Src\USART_IT_F302R8_06_USART.c ****   UART_HandleTypeDef*   pL_UART_Handler = (UART_HandleTypeDef*)G_Usart_TxHandler;
  84:C:/Users/geoma/Desktop/Scilab/scilab_test/USART_IT_F302R8_06/USART_IT_F302R8_06/Src\USART_IT_F302R8_06_USART.c ****    if(pL_UART_Handler == huart)
  85:C:/Users/geoma/Desktop/Scilab/scilab_test/USART_IT_F302R8_06/USART_IT_F302R8_06/Src\USART_IT_F302R8_06_USART.c ****   {
  86:C:/Users/geoma/Desktop/Scilab/scilab_test/USART_IT_F302R8_06/USART_IT_F302R8_06/Src\USART_IT_F302R8_06_USART.c ****       pL_UART_TxData->txStatus = USART_TX_OK;
  87:C:/Users/geoma/Desktop/Scilab/scilab_test/USART_IT_F302R8_06/USART_IT_F302R8_06/Src\USART_IT_F302R8_06_USART.c ****       pL_UART_TxData->pt_Tx_R +=  pL_UART_TxData->nbSent;
ARM GAS  C:\Users\geoma\AppData\Local\Temp\cceauhXK.s 			page 3


  88:C:/Users/geoma/Desktop/Scilab/scilab_test/USART_IT_F302R8_06/USART_IT_F302R8_06/Src\USART_IT_F302R8_06_USART.c ****       if(pL_UART_TxData->pt_Tx_R >= pL_UART_TxData->pt_EndTx_Buff)
  89:C:/Users/geoma/Desktop/Scilab/scilab_test/USART_IT_F302R8_06/USART_IT_F302R8_06/Src\USART_IT_F302R8_06_USART.c ****        {
  90:C:/Users/geoma/Desktop/Scilab/scilab_test/USART_IT_F302R8_06/USART_IT_F302R8_06/Src\USART_IT_F302R8_06_USART.c ****            pL_UART_TxData->pt_Tx_R = pL_UART_TxData->pt_StartTx_Buff;
  91:C:/Users/geoma/Desktop/Scilab/scilab_test/USART_IT_F302R8_06/USART_IT_F302R8_06/Src\USART_IT_F302R8_06_USART.c ****        }
  92:C:/Users/geoma/Desktop/Scilab/scilab_test/USART_IT_F302R8_06/USART_IT_F302R8_06/Src\USART_IT_F302R8_06_USART.c ****        if(pL_UART_TxData->txLock == 0)
  93:C:/Users/geoma/Desktop/Scilab/scilab_test/USART_IT_F302R8_06/USART_IT_F302R8_06/Src\USART_IT_F302R8_06_USART.c ****        {
  94:C:/Users/geoma/Desktop/Scilab/scilab_test/USART_IT_F302R8_06/USART_IT_F302R8_06/Src\USART_IT_F302R8_06_USART.c ****            pL_UART_TxData->nb2Send -=  pL_UART_TxData->nbSent;
  95:C:/Users/geoma/Desktop/Scilab/scilab_test/USART_IT_F302R8_06/USART_IT_F302R8_06/Src\USART_IT_F302R8_06_USART.c ****        }
  96:C:/Users/geoma/Desktop/Scilab/scilab_test/USART_IT_F302R8_06/USART_IT_F302R8_06/Src\USART_IT_F302R8_06_USART.c ****        else
  97:C:/Users/geoma/Desktop/Scilab/scilab_test/USART_IT_F302R8_06/USART_IT_F302R8_06/Src\USART_IT_F302R8_06_USART.c ****        {
  98:C:/Users/geoma/Desktop/Scilab/scilab_test/USART_IT_F302R8_06/USART_IT_F302R8_06/Src\USART_IT_F302R8_06_USART.c ****            pL_UART_TxData->txLock = 2;
  99:C:/Users/geoma/Desktop/Scilab/scilab_test/USART_IT_F302R8_06/USART_IT_F302R8_06/Src\USART_IT_F302R8_06_USART.c ****        }
 100:C:/Users/geoma/Desktop/Scilab/scilab_test/USART_IT_F302R8_06/USART_IT_F302R8_06/Src\USART_IT_F302R8_06_USART.c ****    }
 101:C:/Users/geoma/Desktop/Scilab/scilab_test/USART_IT_F302R8_06/USART_IT_F302R8_06/Src\USART_IT_F302R8_06_USART.c **** }
 102:C:/Users/geoma/Desktop/Scilab/scilab_test/USART_IT_F302R8_06/USART_IT_F302R8_06/Src\USART_IT_F302R8_06_USART.c **** /*
 103:C:/Users/geoma/Desktop/Scilab/scilab_test/USART_IT_F302R8_06/USART_IT_F302R8_06/Src\USART_IT_F302R8_06_USART.c **** *******************************************************************************
 104:C:/Users/geoma/Desktop/Scilab/scilab_test/USART_IT_F302R8_06/USART_IT_F302R8_06/Src\USART_IT_F302R8_06_USART.c **** Transmit Initialization of USART2
 105:C:/Users/geoma/Desktop/Scilab/scilab_test/USART_IT_F302R8_06/USART_IT_F302R8_06/Src\USART_IT_F302R8_06_USART.c **** *******************************************************************************
 106:C:/Users/geoma/Desktop/Scilab/scilab_test/USART_IT_F302R8_06/USART_IT_F302R8_06/Src\USART_IT_F302R8_06_USART.c **** */
 107:C:/Users/geoma/Desktop/Scilab/scilab_test/USART_IT_F302R8_06/USART_IT_F302R8_06/Src\USART_IT_F302R8_06_USART.c **** void USART2_Tx_Initialization(void)
 108:C:/Users/geoma/Desktop/Scilab/scilab_test/USART_IT_F302R8_06/USART_IT_F302R8_06/Src\USART_IT_F302R8_06_USART.c **** {
 109:C:/Users/geoma/Desktop/Scilab/scilab_test/USART_IT_F302R8_06/USART_IT_F302R8_06/Src\USART_IT_F302R8_06_USART.c ****    G_Usart_TxData = &USART2_TxDataLink;
 110:C:/Users/geoma/Desktop/Scilab/scilab_test/USART_IT_F302R8_06/USART_IT_F302R8_06/Src\USART_IT_F302R8_06_USART.c ****    G_Usart_TxHandler = (void*)&huart2;
 111:C:/Users/geoma/Desktop/Scilab/scilab_test/USART_IT_F302R8_06/USART_IT_F302R8_06/Src\USART_IT_F302R8_06_USART.c ****    USART2_TxDataLink.nb2Send = 0;
 112:C:/Users/geoma/Desktop/Scilab/scilab_test/USART_IT_F302R8_06/USART_IT_F302R8_06/Src\USART_IT_F302R8_06_USART.c ****    USART2_TxDataLink.nbSent = 0;
 113:C:/Users/geoma/Desktop/Scilab/scilab_test/USART_IT_F302R8_06/USART_IT_F302R8_06/Src\USART_IT_F302R8_06_USART.c ****    USART2_TxDataLink.nbMsgLost = 0;
 114:C:/Users/geoma/Desktop/Scilab/scilab_test/USART_IT_F302R8_06/USART_IT_F302R8_06/Src\USART_IT_F302R8_06_USART.c ****    USART2_TxDataLink.buffSize = 32;
 115:C:/Users/geoma/Desktop/Scilab/scilab_test/USART_IT_F302R8_06/USART_IT_F302R8_06/Src\USART_IT_F302R8_06_USART.c ****    USART2_TxDataLink.pt_StartTx_Buff = G_USART2_TxDataBuffer;
 116:C:/Users/geoma/Desktop/Scilab/scilab_test/USART_IT_F302R8_06/USART_IT_F302R8_06/Src\USART_IT_F302R8_06_USART.c ****    USART2_TxDataLink.pt_EndTx_Buff = &G_USART2_TxDataBuffer[32];
 117:C:/Users/geoma/Desktop/Scilab/scilab_test/USART_IT_F302R8_06/USART_IT_F302R8_06/Src\USART_IT_F302R8_06_USART.c ****    USART2_TxDataLink.pt_Tx_W = G_USART2_TxDataBuffer;
 118:C:/Users/geoma/Desktop/Scilab/scilab_test/USART_IT_F302R8_06/USART_IT_F302R8_06/Src\USART_IT_F302R8_06_USART.c ****    USART2_TxDataLink.pt_Tx_R = G_USART2_TxDataBuffer;
 119:C:/Users/geoma/Desktop/Scilab/scilab_test/USART_IT_F302R8_06/USART_IT_F302R8_06/Src\USART_IT_F302R8_06_USART.c ****    USART2_TxDataLink.CopyDataFcn = USART2_CopyDataFcn;
 120:C:/Users/geoma/Desktop/Scilab/scilab_test/USART_IT_F302R8_06/USART_IT_F302R8_06/Src\USART_IT_F302R8_06_USART.c ****    USART2_TxDataLink.SendDataFcn = USART2_SendDataFcn;
 121:C:/Users/geoma/Desktop/Scilab/scilab_test/USART_IT_F302R8_06/USART_IT_F302R8_06/Src\USART_IT_F302R8_06_USART.c ****    USART2_TxDataLink.txStatus = USART_TX_OFF;
 122:C:/Users/geoma/Desktop/Scilab/scilab_test/USART_IT_F302R8_06/USART_IT_F302R8_06/Src\USART_IT_F302R8_06_USART.c ****    USART2_TxDataLink.txLock = 0;
 123:C:/Users/geoma/Desktop/Scilab/scilab_test/USART_IT_F302R8_06/USART_IT_F302R8_06/Src\USART_IT_F302R8_06_USART.c **** }
 124:C:/Users/geoma/Desktop/Scilab/scilab_test/USART_IT_F302R8_06/USART_IT_F302R8_06/Src\USART_IT_F302R8_06_USART.c **** 
 125:C:/Users/geoma/Desktop/Scilab/scilab_test/USART_IT_F302R8_06/USART_IT_F302R8_06/Src\USART_IT_F302R8_06_USART.c **** 
 126:C:/Users/geoma/Desktop/Scilab/scilab_test/USART_IT_F302R8_06/USART_IT_F302R8_06/Src\USART_IT_F302R8_06_USART.c **** /*
 127:C:/Users/geoma/Desktop/Scilab/scilab_test/USART_IT_F302R8_06/USART_IT_F302R8_06/Src\USART_IT_F302R8_06_USART.c **** *******************************************************************************
 128:C:/Users/geoma/Desktop/Scilab/scilab_test/USART_IT_F302R8_06/USART_IT_F302R8_06/Src\USART_IT_F302R8_06_USART.c **** USART2_CopyDataFcn
 129:C:/Users/geoma/Desktop/Scilab/scilab_test/USART_IT_F302R8_06/USART_IT_F302R8_06/Src\USART_IT_F302R8_06_USART.c **** Input: pointer to data to send , lengh(number) of data to send and
 130:C:/Users/geoma/Desktop/Scilab/scilab_test/USART_IT_F302R8_06/USART_IT_F302R8_06/Src\USART_IT_F302R8_06_USART.c **** ring buffer info
 131:C:/Users/geoma/Desktop/Scilab/scilab_test/USART_IT_F302R8_06/USART_IT_F302R8_06/Src\USART_IT_F302R8_06_USART.c **** *******************************************************************************
 132:C:/Users/geoma/Desktop/Scilab/scilab_test/USART_IT_F302R8_06/USART_IT_F302R8_06/Src\USART_IT_F302R8_06_USART.c **** */
 133:C:/Users/geoma/Desktop/Scilab/scilab_test/USART_IT_F302R8_06/USART_IT_F302R8_06/Src\USART_IT_F302R8_06_USART.c **** void  USART2_CopyDataFcn(uint8_t* ptSrc, uint16_t DataLength, struct USART_TxDataLinkTypeDef* ptInf
 134:C:/Users/geoma/Desktop/Scilab/scilab_test/USART_IT_F302R8_06/USART_IT_F302R8_06/Src\USART_IT_F302R8_06_USART.c **** {
  29              		.loc 1 134 0
  30              		.cfi_startproc
  31              		@ args = 0, pretend = 0, frame = 0
  32              		@ frame_needed = 0, uses_anonymous_args = 0
  33              		@ link register save eliminated.
  34              	.LVL0:
  35 0000 70B4     		push	{r4, r5, r6}
  36              	.LCFI0:
  37              		.cfi_def_cfa_offset 12
  38              		.cfi_offset 4, -12
ARM GAS  C:\Users\geoma\AppData\Local\Temp\cceauhXK.s 			page 4


  39              		.cfi_offset 5, -8
  40              		.cfi_offset 6, -4
  41              	.LVL1:
 135:C:/Users/geoma/Desktop/Scilab/scilab_test/USART_IT_F302R8_06/USART_IT_F302R8_06/Src\USART_IT_F302R8_06_USART.c ****    uint16_t L_sizeMsg;
 136:C:/Users/geoma/Desktop/Scilab/scilab_test/USART_IT_F302R8_06/USART_IT_F302R8_06/Src\USART_IT_F302R8_06_USART.c ****    uint16_t L_idx;
 137:C:/Users/geoma/Desktop/Scilab/scilab_test/USART_IT_F302R8_06/USART_IT_F302R8_06/Src\USART_IT_F302R8_06_USART.c ****    /* Copy msg to send to ring buffer */
 138:C:/Users/geoma/Desktop/Scilab/scilab_test/USART_IT_F302R8_06/USART_IT_F302R8_06/Src\USART_IT_F302R8_06_USART.c ****    L_sizeMsg = 0;
 139:C:/Users/geoma/Desktop/Scilab/scilab_test/USART_IT_F302R8_06/USART_IT_F302R8_06/Src\USART_IT_F302R8_06_USART.c ****    for(L_idx=0;L_idx<DataLength;L_idx++)
  42              		.loc 1 139 0
  43 0002 0023     		movs	r3, #0
 138:C:/Users/geoma/Desktop/Scilab/scilab_test/USART_IT_F302R8_06/USART_IT_F302R8_06/Src\USART_IT_F302R8_06_USART.c ****    for(L_idx=0;L_idx<DataLength;L_idx++)
  44              		.loc 1 138 0
  45 0004 1C46     		mov	r4, r3
  46              		.loc 1 139 0
  47 0006 18E0     		b	.L2
  48              	.LVL2:
  49              	.L6:
 140:C:/Users/geoma/Desktop/Scilab/scilab_test/USART_IT_F302R8_06/USART_IT_F302R8_06/Src\USART_IT_F302R8_06_USART.c ****    {
 141:C:/Users/geoma/Desktop/Scilab/scilab_test/USART_IT_F302R8_06/USART_IT_F302R8_06/Src\USART_IT_F302R8_06_USART.c ****        if((((uint32_t)ptInfo->pt_Tx_W == (uint32_t)ptInfo->pt_Tx_R)&&ptInfo->nb2Send!=0))
  50              		.loc 1 141 0
  51 0008 1569     		ldr	r5, [r2, #16]
  52 000a 5669     		ldr	r6, [r2, #20]
  53 000c B542     		cmp	r5, r6
  54 000e 01D1     		bne	.L3
  55              		.loc 1 141 0 is_stmt 0 discriminator 1
  56 0010 1688     		ldrh	r6, [r2]
  57 0012 A6B9     		cbnz	r6, .L4
  58              	.L3:
 142:C:/Users/geoma/Desktop/Scilab/scilab_test/USART_IT_F302R8_06/USART_IT_F302R8_06/Src\USART_IT_F302R8_06_USART.c ****            break; //Ring Buffer is full.
 143:C:/Users/geoma/Desktop/Scilab/scilab_test/USART_IT_F302R8_06/USART_IT_F302R8_06/Src\USART_IT_F302R8_06_USART.c ****        *(char*)ptInfo->pt_Tx_W++ = *(char*)ptSrc++;
  59              		.loc 1 143 0 is_stmt 1
  60 0014 6E1C     		adds	r6, r5, #1
  61 0016 1661     		str	r6, [r2, #16]
  62 0018 461C     		adds	r6, r0, #1
  63              	.LVL3:
  64 001a 0078     		ldrb	r0, [r0]	@ zero_extendqisi2
  65 001c 2870     		strb	r0, [r5]
 144:C:/Users/geoma/Desktop/Scilab/scilab_test/USART_IT_F302R8_06/USART_IT_F302R8_06/Src\USART_IT_F302R8_06_USART.c ****        L_sizeMsg++;
  66              		.loc 1 144 0
  67 001e 0134     		adds	r4, r4, #1
  68              	.LVL4:
  69 0020 A4B2     		uxth	r4, r4
  70              	.LVL5:
 145:C:/Users/geoma/Desktop/Scilab/scilab_test/USART_IT_F302R8_06/USART_IT_F302R8_06/Src\USART_IT_F302R8_06_USART.c ****        if(ptInfo->pt_Tx_W == ptInfo->pt_Tx_R)
  71              		.loc 1 145 0
  72 0022 1069     		ldr	r0, [r2, #16]
  73 0024 5569     		ldr	r5, [r2, #20]
  74 0026 A842     		cmp	r0, r5
  75 0028 09D0     		beq	.L4
 146:C:/Users/geoma/Desktop/Scilab/scilab_test/USART_IT_F302R8_06/USART_IT_F302R8_06/Src\USART_IT_F302R8_06_USART.c ****            break; //Ring Buffer is full.
 147:C:/Users/geoma/Desktop/Scilab/scilab_test/USART_IT_F302R8_06/USART_IT_F302R8_06/Src\USART_IT_F302R8_06_USART.c ****        if(ptInfo->pt_Tx_W == ptInfo->pt_EndTx_Buff)
  76              		.loc 1 147 0
  77 002a D568     		ldr	r5, [r2, #12]
  78 002c A842     		cmp	r0, r5
  79 002e 01D1     		bne	.L5
 148:C:/Users/geoma/Desktop/Scilab/scilab_test/USART_IT_F302R8_06/USART_IT_F302R8_06/Src\USART_IT_F302R8_06_USART.c ****        {
 149:C:/Users/geoma/Desktop/Scilab/scilab_test/USART_IT_F302R8_06/USART_IT_F302R8_06/Src\USART_IT_F302R8_06_USART.c ****            //Revolve buffer
ARM GAS  C:\Users\geoma\AppData\Local\Temp\cceauhXK.s 			page 5


 150:C:/Users/geoma/Desktop/Scilab/scilab_test/USART_IT_F302R8_06/USART_IT_F302R8_06/Src\USART_IT_F302R8_06_USART.c ****            ptInfo->pt_Tx_W = ptInfo->pt_StartTx_Buff;
  80              		.loc 1 150 0
  81 0030 9068     		ldr	r0, [r2, #8]
  82 0032 1061     		str	r0, [r2, #16]
  83              	.L5:
 139:C:/Users/geoma/Desktop/Scilab/scilab_test/USART_IT_F302R8_06/USART_IT_F302R8_06/Src\USART_IT_F302R8_06_USART.c ****    {
  84              		.loc 1 139 0 discriminator 2
  85 0034 0133     		adds	r3, r3, #1
  86              	.LVL6:
  87 0036 9BB2     		uxth	r3, r3
  88              	.LVL7:
 143:C:/Users/geoma/Desktop/Scilab/scilab_test/USART_IT_F302R8_06/USART_IT_F302R8_06/Src\USART_IT_F302R8_06_USART.c ****        L_sizeMsg++;
  89              		.loc 1 143 0 discriminator 2
  90 0038 3046     		mov	r0, r6
  91              	.LVL8:
  92              	.L2:
 139:C:/Users/geoma/Desktop/Scilab/scilab_test/USART_IT_F302R8_06/USART_IT_F302R8_06/Src\USART_IT_F302R8_06_USART.c ****    {
  93              		.loc 1 139 0 discriminator 1
  94 003a 8B42     		cmp	r3, r1
  95 003c E4D3     		bcc	.L6
  96              	.LVL9:
  97              	.L4:
 151:C:/Users/geoma/Desktop/Scilab/scilab_test/USART_IT_F302R8_06/USART_IT_F302R8_06/Src\USART_IT_F302R8_06_USART.c ****        }
 152:C:/Users/geoma/Desktop/Scilab/scilab_test/USART_IT_F302R8_06/USART_IT_F302R8_06/Src\USART_IT_F302R8_06_USART.c ****    }
 153:C:/Users/geoma/Desktop/Scilab/scilab_test/USART_IT_F302R8_06/USART_IT_F302R8_06/Src\USART_IT_F302R8_06_USART.c ****    /* update nb of data to send */
 154:C:/Users/geoma/Desktop/Scilab/scilab_test/USART_IT_F302R8_06/USART_IT_F302R8_06/Src\USART_IT_F302R8_06_USART.c ****    ptInfo->txLock = 1; //Access locked
 155:C:/Users/geoma/Desktop/Scilab/scilab_test/USART_IT_F302R8_06/USART_IT_F302R8_06/Src\USART_IT_F302R8_06_USART.c ****    ptInfo->nb2Send += L_sizeMsg;
  98              		.loc 1 155 0
  99 003e 1388     		ldrh	r3, [r2]
 100              	.LVL10:
 101 0040 2344     		add	r3, r3, r4
 102 0042 1380     		strh	r3, [r2]	@ movhi
 156:C:/Users/geoma/Desktop/Scilab/scilab_test/USART_IT_F302R8_06/USART_IT_F302R8_06/Src\USART_IT_F302R8_06_USART.c ****    if(ptInfo->txLock == 2) //If end of send interrupt mode arrived during last instruction
 157:C:/Users/geoma/Desktop/Scilab/scilab_test/USART_IT_F302R8_06/USART_IT_F302R8_06/Src\USART_IT_F302R8_06_USART.c ****        ptInfo->nb2Send -=  ptInfo->nbSent;
 158:C:/Users/geoma/Desktop/Scilab/scilab_test/USART_IT_F302R8_06/USART_IT_F302R8_06/Src\USART_IT_F302R8_06_USART.c ****    ptInfo->txLock = 0; //Unlock access
 103              		.loc 1 158 0
 104 0044 0023     		movs	r3, #0
 105 0046 82F82130 		strb	r3, [r2, #33]
 159:C:/Users/geoma/Desktop/Scilab/scilab_test/USART_IT_F302R8_06/USART_IT_F302R8_06/Src\USART_IT_F302R8_06_USART.c ****    if(L_sizeMsg < DataLength)
 106              		.loc 1 159 0
 107 004a 8C42     		cmp	r4, r1
 108 004c 02D2     		bcs	.L1
 160:C:/Users/geoma/Desktop/Scilab/scilab_test/USART_IT_F302R8_06/USART_IT_F302R8_06/Src\USART_IT_F302R8_06_USART.c ****        ptInfo->nbMsgLost++; //Message not all sent
 109              		.loc 1 160 0
 110 004e 9388     		ldrh	r3, [r2, #4]
 111 0050 0133     		adds	r3, r3, #1
 112 0052 9380     		strh	r3, [r2, #4]	@ movhi
 113              	.L1:
 161:C:/Users/geoma/Desktop/Scilab/scilab_test/USART_IT_F302R8_06/USART_IT_F302R8_06/Src\USART_IT_F302R8_06_USART.c **** }
 114              		.loc 1 161 0
 115 0054 70BC     		pop	{r4, r5, r6}
 116              	.LCFI1:
 117              		.cfi_restore 6
 118              		.cfi_restore 5
 119              		.cfi_restore 4
 120              		.cfi_def_cfa_offset 0
 121              	.LVL11:
ARM GAS  C:\Users\geoma\AppData\Local\Temp\cceauhXK.s 			page 6


 122 0056 7047     		bx	lr
 123              		.cfi_endproc
 124              	.LFE160:
 126              		.section	.text.USART2_SendDataFcn,"ax",%progbits
 127              		.align	2
 128              		.global	USART2_SendDataFcn
 129              		.thumb
 130              		.thumb_func
 132              	USART2_SendDataFcn:
 133              	.LFB161:
 162:C:/Users/geoma/Desktop/Scilab/scilab_test/USART_IT_F302R8_06/USART_IT_F302R8_06/Src\USART_IT_F302R8_06_USART.c **** 
 163:C:/Users/geoma/Desktop/Scilab/scilab_test/USART_IT_F302R8_06/USART_IT_F302R8_06/Src\USART_IT_F302R8_06_USART.c **** /*
 164:C:/Users/geoma/Desktop/Scilab/scilab_test/USART_IT_F302R8_06/USART_IT_F302R8_06/Src\USART_IT_F302R8_06_USART.c **** *******************************************************************************
 165:C:/Users/geoma/Desktop/Scilab/scilab_test/USART_IT_F302R8_06/USART_IT_F302R8_06/Src\USART_IT_F302R8_06_USART.c **** USART2_SendDataFcn
 166:C:/Users/geoma/Desktop/Scilab/scilab_test/USART_IT_F302R8_06/USART_IT_F302R8_06/Src\USART_IT_F302R8_06_USART.c **** Input: ring buffer info
 167:C:/Users/geoma/Desktop/Scilab/scilab_test/USART_IT_F302R8_06/USART_IT_F302R8_06/Src\USART_IT_F302R8_06_USART.c **** *******************************************************************************
 168:C:/Users/geoma/Desktop/Scilab/scilab_test/USART_IT_F302R8_06/USART_IT_F302R8_06/Src\USART_IT_F302R8_06_USART.c **** */
 169:C:/Users/geoma/Desktop/Scilab/scilab_test/USART_IT_F302R8_06/USART_IT_F302R8_06/Src\USART_IT_F302R8_06_USART.c **** void  USART2_SendDataFcn(struct USART_TxDataLinkTypeDef* ptInfo)
 170:C:/Users/geoma/Desktop/Scilab/scilab_test/USART_IT_F302R8_06/USART_IT_F302R8_06/Src\USART_IT_F302R8_06_USART.c **** {
 134              		.loc 1 170 0
 135              		.cfi_startproc
 136              		@ args = 0, pretend = 0, frame = 0
 137              		@ frame_needed = 0, uses_anonymous_args = 0
 138              	.LVL12:
 171:C:/Users/geoma/Desktop/Scilab/scilab_test/USART_IT_F302R8_06/USART_IT_F302R8_06/Src\USART_IT_F302R8_06_USART.c ****    uint16_t L_sizeMsg;
 172:C:/Users/geoma/Desktop/Scilab/scilab_test/USART_IT_F302R8_06/USART_IT_F302R8_06/Src\USART_IT_F302R8_06_USART.c ****    /* If USART is not already running and data to send */
 173:C:/Users/geoma/Desktop/Scilab/scilab_test/USART_IT_F302R8_06/USART_IT_F302R8_06/Src\USART_IT_F302R8_06_USART.c ****    if(ptInfo->txStatus != USART_TX_ON && ptInfo->nb2Send)
 139              		.loc 1 173 0
 140 0000 90F82030 		ldrb	r3, [r0, #32]	@ zero_extendqisi2
 141 0004 13F0FF0F 		tst	r3, #255
 142 0008 16D0     		beq	.L13
 170:C:/Users/geoma/Desktop/Scilab/scilab_test/USART_IT_F302R8_06/USART_IT_F302R8_06/Src\USART_IT_F302R8_06_USART.c ****    uint16_t L_sizeMsg;
 143              		.loc 1 170 0 discriminator 1
 144 000a 10B5     		push	{r4, lr}
 145              	.LCFI2:
 146              		.cfi_def_cfa_offset 8
 147              		.cfi_offset 4, -8
 148              		.cfi_offset 14, -4
 149              		.loc 1 173 0 discriminator 1
 150 000c 0488     		ldrh	r4, [r0]
 151 000e 94B1     		cbz	r4, .L9
 174:C:/Users/geoma/Desktop/Scilab/scilab_test/USART_IT_F302R8_06/USART_IT_F302R8_06/Src\USART_IT_F302R8_06_USART.c ****    {
 175:C:/Users/geoma/Desktop/Scilab/scilab_test/USART_IT_F302R8_06/USART_IT_F302R8_06/Src\USART_IT_F302R8_06_USART.c ****        ptInfo->txStatus = USART_TX_ON;
 152              		.loc 1 175 0
 153 0010 0023     		movs	r3, #0
 154 0012 80F82030 		strb	r3, [r0, #32]
 176:C:/Users/geoma/Desktop/Scilab/scilab_test/USART_IT_F302R8_06/USART_IT_F302R8_06/Src\USART_IT_F302R8_06_USART.c ****        L_sizeMsg = (uint32_t)ptInfo->pt_EndTx_Buff - (uint32_t)ptInfo->pt_Tx_R;
 155              		.loc 1 176 0
 156 0016 C368     		ldr	r3, [r0, #12]
 157 0018 4169     		ldr	r1, [r0, #20]
 158 001a 5B1A     		subs	r3, r3, r1
 159 001c 9AB2     		uxth	r2, r3
 160              	.LVL13:
 177:C:/Users/geoma/Desktop/Scilab/scilab_test/USART_IT_F302R8_06/USART_IT_F302R8_06/Src\USART_IT_F302R8_06_USART.c ****        /* Send all msg or end of ring buffer */
 178:C:/Users/geoma/Desktop/Scilab/scilab_test/USART_IT_F302R8_06/USART_IT_F302R8_06/Src\USART_IT_F302R8_06_USART.c ****        if(ptInfo->nb2Send <= L_sizeMsg)
 161              		.loc 1 178 0
 162 001e 9442     		cmp	r4, r2
ARM GAS  C:\Users\geoma\AppData\Local\Temp\cceauhXK.s 			page 7


 163 0020 05D8     		bhi	.L11
 179:C:/Users/geoma/Desktop/Scilab/scilab_test/USART_IT_F302R8_06/USART_IT_F302R8_06/Src\USART_IT_F302R8_06_USART.c ****        {
 180:C:/Users/geoma/Desktop/Scilab/scilab_test/USART_IT_F302R8_06/USART_IT_F302R8_06/Src\USART_IT_F302R8_06_USART.c ****            ptInfo->nbSent = ptInfo->nb2Send;
 164              		.loc 1 180 0
 165 0022 4480     		strh	r4, [r0, #2]	@ movhi
 181:C:/Users/geoma/Desktop/Scilab/scilab_test/USART_IT_F302R8_06/USART_IT_F302R8_06/Src\USART_IT_F302R8_06_USART.c ****            /* USART2 interrupt send mode*/
 182:C:/Users/geoma/Desktop/Scilab/scilab_test/USART_IT_F302R8_06/USART_IT_F302R8_06/Src\USART_IT_F302R8_06_USART.c ****            HAL_UART_Transmit_IT(&huart2, ptInfo->pt_Tx_R, ptInfo->nb2Send);
 166              		.loc 1 182 0
 167 0024 0548     		ldr	r0, .L14
 168              	.LVL14:
 169 0026 2246     		mov	r2, r4
 170              	.LVL15:
 171 0028 FFF7FEFF 		bl	HAL_UART_Transmit_IT
 172              	.LVL16:
 173 002c 10BD     		pop	{r4, pc}
 174              	.LVL17:
 175              	.L11:
 183:C:/Users/geoma/Desktop/Scilab/scilab_test/USART_IT_F302R8_06/USART_IT_F302R8_06/Src\USART_IT_F302R8_06_USART.c ****        }
 184:C:/Users/geoma/Desktop/Scilab/scilab_test/USART_IT_F302R8_06/USART_IT_F302R8_06/Src\USART_IT_F302R8_06_USART.c ****        else
 185:C:/Users/geoma/Desktop/Scilab/scilab_test/USART_IT_F302R8_06/USART_IT_F302R8_06/Src\USART_IT_F302R8_06_USART.c ****        {
 186:C:/Users/geoma/Desktop/Scilab/scilab_test/USART_IT_F302R8_06/USART_IT_F302R8_06/Src\USART_IT_F302R8_06_USART.c ****            ptInfo->nbSent = L_sizeMsg;
 176              		.loc 1 186 0
 177 002e 4280     		strh	r2, [r0, #2]	@ movhi
 187:C:/Users/geoma/Desktop/Scilab/scilab_test/USART_IT_F302R8_06/USART_IT_F302R8_06/Src\USART_IT_F302R8_06_USART.c ****            /* USART2 interrupt send mode*/
 188:C:/Users/geoma/Desktop/Scilab/scilab_test/USART_IT_F302R8_06/USART_IT_F302R8_06/Src\USART_IT_F302R8_06_USART.c ****            HAL_UART_Transmit_IT(&huart2, ptInfo->pt_Tx_R, L_sizeMsg);
 178              		.loc 1 188 0
 179 0030 0248     		ldr	r0, .L14
 180              	.LVL18:
 181 0032 FFF7FEFF 		bl	HAL_UART_Transmit_IT
 182              	.LVL19:
 183              	.L9:
 184 0036 10BD     		pop	{r4, pc}
 185              	.LVL20:
 186              	.L13:
 187              	.LCFI3:
 188              		.cfi_def_cfa_offset 0
 189              		.cfi_restore 4
 190              		.cfi_restore 14
 191 0038 7047     		bx	lr
 192              	.L15:
 193 003a 00BF     		.align	2
 194              	.L14:
 195 003c 00000000 		.word	huart2
 196              		.cfi_endproc
 197              	.LFE161:
 199              		.section	.text.HAL_UART_RxCpltCallback,"ax",%progbits
 200              		.align	2
 201              		.global	HAL_UART_RxCpltCallback
 202              		.thumb
 203              		.thumb_func
 205              	HAL_UART_RxCpltCallback:
 206              	.LFB156:
  42:C:/Users/geoma/Desktop/Scilab/scilab_test/USART_IT_F302R8_06/USART_IT_F302R8_06/Src\USART_IT_F302R8_06_USART.c ****    struct USART_RxDataLinkTypeDef*   pL_UART_RxData = G_Usart_RxData;
 207              		.loc 1 42 0
 208              		.cfi_startproc
 209              		@ args = 0, pretend = 0, frame = 0
 210              		@ frame_needed = 0, uses_anonymous_args = 0
ARM GAS  C:\Users\geoma\AppData\Local\Temp\cceauhXK.s 			page 8


 211              		@ link register save eliminated.
 212              	.LVL21:
  43:C:/Users/geoma/Desktop/Scilab/scilab_test/USART_IT_F302R8_06/USART_IT_F302R8_06/Src\USART_IT_F302R8_06_USART.c ****    UART_HandleTypeDef*     pL_UART_Handler = (UART_HandleTypeDef*)G_Usart_RxHandler;
 213              		.loc 1 43 0
 214 0000 044B     		ldr	r3, .L18
 215 0002 1A68     		ldr	r2, [r3]
 216              	.LVL22:
  44:C:/Users/geoma/Desktop/Scilab/scilab_test/USART_IT_F302R8_06/USART_IT_F302R8_06/Src\USART_IT_F302R8_06_USART.c ****    if(pL_UART_Handler == huart)
 217              		.loc 1 44 0
 218 0004 044B     		ldr	r3, .L18+4
 219 0006 1B68     		ldr	r3, [r3]
 220              	.LVL23:
  45:C:/Users/geoma/Desktop/Scilab/scilab_test/USART_IT_F302R8_06/USART_IT_F302R8_06/Src\USART_IT_F302R8_06_USART.c ****    {
 221              		.loc 1 45 0
 222 0008 8342     		cmp	r3, r0
 223 000a 01D1     		bne	.L16
  47:C:/Users/geoma/Desktop/Scilab/scilab_test/USART_IT_F302R8_06/USART_IT_F302R8_06/Src\USART_IT_F302R8_06_USART.c ****    }
 224              		.loc 1 47 0
 225 000c 0123     		movs	r3, #1
 226              	.LVL24:
 227 000e 9371     		strb	r3, [r2, #6]
 228              	.L16:
 229 0010 7047     		bx	lr
 230              	.L19:
 231 0012 00BF     		.align	2
 232              	.L18:
 233 0014 00000000 		.word	G_Usart_RxData
 234 0018 00000000 		.word	G_Usart_RxHandler
 235              		.cfi_endproc
 236              	.LFE156:
 238              		.section	.text.USART2_Rx_Initialization,"ax",%progbits
 239              		.align	2
 240              		.global	USART2_Rx_Initialization
 241              		.thumb
 242              		.thumb_func
 244              	USART2_Rx_Initialization:
 245              	.LFB157:
  57:C:/Users/geoma/Desktop/Scilab/scilab_test/USART_IT_F302R8_06/USART_IT_F302R8_06/Src\USART_IT_F302R8_06_USART.c ****    G_Usart_RxData = &USART2_RxDataLink;
 246              		.loc 1 57 0
 247              		.cfi_startproc
 248              		@ args = 0, pretend = 0, frame = 0
 249              		@ frame_needed = 0, uses_anonymous_args = 0
 250              		@ link register save eliminated.
  58:C:/Users/geoma/Desktop/Scilab/scilab_test/USART_IT_F302R8_06/USART_IT_F302R8_06/Src\USART_IT_F302R8_06_USART.c ****    G_Usart_RxHandler = (void*)&huart2;
 251              		.loc 1 58 0
 252 0000 054B     		ldr	r3, .L21
 253 0002 064A     		ldr	r2, .L21+4
 254 0004 1360     		str	r3, [r2]
  59:C:/Users/geoma/Desktop/Scilab/scilab_test/USART_IT_F302R8_06/USART_IT_F302R8_06/Src\USART_IT_F302R8_06_USART.c ****    USART2_RxDataLink.ptRcv = G_USART2_RxDataBuffer;
 255              		.loc 1 59 0
 256 0006 0649     		ldr	r1, .L21+8
 257 0008 064A     		ldr	r2, .L21+12
 258 000a 1160     		str	r1, [r2]
  60:C:/Users/geoma/Desktop/Scilab/scilab_test/USART_IT_F302R8_06/USART_IT_F302R8_06/Src\USART_IT_F302R8_06_USART.c ****    USART2_RxDataLink.rxStatus = USART_RX_OFF;
 259              		.loc 1 60 0
 260 000c 064A     		ldr	r2, .L21+16
 261 000e 1A60     		str	r2, [r3]
ARM GAS  C:\Users\geoma\AppData\Local\Temp\cceauhXK.s 			page 9


  61:C:/Users/geoma/Desktop/Scilab/scilab_test/USART_IT_F302R8_06/USART_IT_F302R8_06/Src\USART_IT_F302R8_06_USART.c **** }
 262              		.loc 1 61 0
 263 0010 0222     		movs	r2, #2
 264 0012 9A71     		strb	r2, [r3, #6]
 265 0014 7047     		bx	lr
 266              	.L22:
 267 0016 00BF     		.align	2
 268              	.L21:
 269 0018 00000000 		.word	USART2_RxDataLink
 270 001c 00000000 		.word	G_Usart_RxData
 271 0020 00000000 		.word	huart2
 272 0024 00000000 		.word	G_Usart_RxHandler
 273 0028 00000000 		.word	G_USART2_RxDataBuffer
 274              		.cfi_endproc
 275              	.LFE157:
 277              		.section	.text.HAL_UART_TxCpltCallback,"ax",%progbits
 278              		.align	2
 279              		.global	HAL_UART_TxCpltCallback
 280              		.thumb
 281              		.thumb_func
 283              	HAL_UART_TxCpltCallback:
 284              	.LFB158:
  81:C:/Users/geoma/Desktop/Scilab/scilab_test/USART_IT_F302R8_06/USART_IT_F302R8_06/Src\USART_IT_F302R8_06_USART.c ****    struct USART_TxDataLinkTypeDef*  pL_UART_TxData = G_Usart_TxData;
 285              		.loc 1 81 0
 286              		.cfi_startproc
 287              		@ args = 0, pretend = 0, frame = 0
 288              		@ frame_needed = 0, uses_anonymous_args = 0
 289              		@ link register save eliminated.
 290              	.LVL25:
  82:C:/Users/geoma/Desktop/Scilab/scilab_test/USART_IT_F302R8_06/USART_IT_F302R8_06/Src\USART_IT_F302R8_06_USART.c ****   UART_HandleTypeDef*   pL_UART_Handler = (UART_HandleTypeDef*)G_Usart_TxHandler;
 291              		.loc 1 82 0
 292 0000 0E4B     		ldr	r3, .L27
 293 0002 1B68     		ldr	r3, [r3]
 294              	.LVL26:
  83:C:/Users/geoma/Desktop/Scilab/scilab_test/USART_IT_F302R8_06/USART_IT_F302R8_06/Src\USART_IT_F302R8_06_USART.c ****    if(pL_UART_Handler == huart)
 295              		.loc 1 83 0
 296 0004 0E4A     		ldr	r2, .L27+4
 297 0006 1268     		ldr	r2, [r2]
 298              	.LVL27:
  84:C:/Users/geoma/Desktop/Scilab/scilab_test/USART_IT_F302R8_06/USART_IT_F302R8_06/Src\USART_IT_F302R8_06_USART.c ****   {
 299              		.loc 1 84 0
 300 0008 8242     		cmp	r2, r0
 301 000a 15D1     		bne	.L23
  86:C:/Users/geoma/Desktop/Scilab/scilab_test/USART_IT_F302R8_06/USART_IT_F302R8_06/Src\USART_IT_F302R8_06_USART.c ****       pL_UART_TxData->pt_Tx_R +=  pL_UART_TxData->nbSent;
 302              		.loc 1 86 0
 303 000c 0122     		movs	r2, #1
 304              	.LVL28:
 305 000e 83F82020 		strb	r2, [r3, #32]
  87:C:/Users/geoma/Desktop/Scilab/scilab_test/USART_IT_F302R8_06/USART_IT_F302R8_06/Src\USART_IT_F302R8_06_USART.c ****       if(pL_UART_TxData->pt_Tx_R >= pL_UART_TxData->pt_EndTx_Buff)
 306              		.loc 1 87 0
 307 0012 5988     		ldrh	r1, [r3, #2]
 308 0014 5A69     		ldr	r2, [r3, #20]
 309 0016 0A44     		add	r2, r2, r1
 310 0018 5A61     		str	r2, [r3, #20]
  88:C:/Users/geoma/Desktop/Scilab/scilab_test/USART_IT_F302R8_06/USART_IT_F302R8_06/Src\USART_IT_F302R8_06_USART.c ****        {
 311              		.loc 1 88 0
 312 001a D868     		ldr	r0, [r3, #12]
ARM GAS  C:\Users\geoma\AppData\Local\Temp\cceauhXK.s 			page 10


 313              	.LVL29:
 314 001c 8242     		cmp	r2, r0
 315 001e 01D3     		bcc	.L25
  90:C:/Users/geoma/Desktop/Scilab/scilab_test/USART_IT_F302R8_06/USART_IT_F302R8_06/Src\USART_IT_F302R8_06_USART.c ****        }
 316              		.loc 1 90 0
 317 0020 9A68     		ldr	r2, [r3, #8]
 318 0022 5A61     		str	r2, [r3, #20]
 319              	.L25:
  92:C:/Users/geoma/Desktop/Scilab/scilab_test/USART_IT_F302R8_06/USART_IT_F302R8_06/Src\USART_IT_F302R8_06_USART.c ****        {
 320              		.loc 1 92 0
 321 0024 93F82120 		ldrb	r2, [r3, #33]	@ zero_extendqisi2
 322 0028 1AB9     		cbnz	r2, .L26
  94:C:/Users/geoma/Desktop/Scilab/scilab_test/USART_IT_F302R8_06/USART_IT_F302R8_06/Src\USART_IT_F302R8_06_USART.c ****        }
 323              		.loc 1 94 0
 324 002a 1A88     		ldrh	r2, [r3]
 325 002c 511A     		subs	r1, r2, r1
 326 002e 1980     		strh	r1, [r3]	@ movhi
 327              	.LVL30:
 328 0030 7047     		bx	lr
 329              	.LVL31:
 330              	.L26:
  98:C:/Users/geoma/Desktop/Scilab/scilab_test/USART_IT_F302R8_06/USART_IT_F302R8_06/Src\USART_IT_F302R8_06_USART.c ****        }
 331              		.loc 1 98 0
 332 0032 0222     		movs	r2, #2
 333 0034 83F82120 		strb	r2, [r3, #33]
 334              	.L23:
 335 0038 7047     		bx	lr
 336              	.L28:
 337 003a 00BF     		.align	2
 338              	.L27:
 339 003c 00000000 		.word	G_Usart_TxData
 340 0040 00000000 		.word	G_Usart_TxHandler
 341              		.cfi_endproc
 342              	.LFE158:
 344              		.section	.text.USART2_Tx_Initialization,"ax",%progbits
 345              		.align	2
 346              		.global	USART2_Tx_Initialization
 347              		.thumb
 348              		.thumb_func
 350              	USART2_Tx_Initialization:
 351              	.LFB159:
 108:C:/Users/geoma/Desktop/Scilab/scilab_test/USART_IT_F302R8_06/USART_IT_F302R8_06/Src\USART_IT_F302R8_06_USART.c ****    G_Usart_TxData = &USART2_TxDataLink;
 352              		.loc 1 108 0
 353              		.cfi_startproc
 354              		@ args = 0, pretend = 0, frame = 0
 355              		@ frame_needed = 0, uses_anonymous_args = 0
 356              		@ link register save eliminated.
 109:C:/Users/geoma/Desktop/Scilab/scilab_test/USART_IT_F302R8_06/USART_IT_F302R8_06/Src\USART_IT_F302R8_06_USART.c ****    G_Usart_TxHandler = (void*)&huart2;
 357              		.loc 1 109 0
 358 0000 0E4B     		ldr	r3, .L30
 359 0002 0F4A     		ldr	r2, .L30+4
 360 0004 1360     		str	r3, [r2]
 110:C:/Users/geoma/Desktop/Scilab/scilab_test/USART_IT_F302R8_06/USART_IT_F302R8_06/Src\USART_IT_F302R8_06_USART.c ****    USART2_TxDataLink.nb2Send = 0;
 361              		.loc 1 110 0
 362 0006 0F49     		ldr	r1, .L30+8
 363 0008 0F4A     		ldr	r2, .L30+12
 364 000a 1160     		str	r1, [r2]
ARM GAS  C:\Users\geoma\AppData\Local\Temp\cceauhXK.s 			page 11


 111:C:/Users/geoma/Desktop/Scilab/scilab_test/USART_IT_F302R8_06/USART_IT_F302R8_06/Src\USART_IT_F302R8_06_USART.c ****    USART2_TxDataLink.nbSent = 0;
 365              		.loc 1 111 0
 366 000c 0022     		movs	r2, #0
 367 000e 1A80     		strh	r2, [r3]	@ movhi
 112:C:/Users/geoma/Desktop/Scilab/scilab_test/USART_IT_F302R8_06/USART_IT_F302R8_06/Src\USART_IT_F302R8_06_USART.c ****    USART2_TxDataLink.nbMsgLost = 0;
 368              		.loc 1 112 0
 369 0010 5A80     		strh	r2, [r3, #2]	@ movhi
 113:C:/Users/geoma/Desktop/Scilab/scilab_test/USART_IT_F302R8_06/USART_IT_F302R8_06/Src\USART_IT_F302R8_06_USART.c ****    USART2_TxDataLink.buffSize = 32;
 370              		.loc 1 113 0
 371 0012 9A80     		strh	r2, [r3, #4]	@ movhi
 114:C:/Users/geoma/Desktop/Scilab/scilab_test/USART_IT_F302R8_06/USART_IT_F302R8_06/Src\USART_IT_F302R8_06_USART.c ****    USART2_TxDataLink.pt_StartTx_Buff = G_USART2_TxDataBuffer;
 372              		.loc 1 114 0
 373 0014 2021     		movs	r1, #32
 374 0016 D980     		strh	r1, [r3, #6]	@ movhi
 115:C:/Users/geoma/Desktop/Scilab/scilab_test/USART_IT_F302R8_06/USART_IT_F302R8_06/Src\USART_IT_F302R8_06_USART.c ****    USART2_TxDataLink.pt_EndTx_Buff = &G_USART2_TxDataBuffer[32];
 375              		.loc 1 115 0
 376 0018 0C49     		ldr	r1, .L30+16
 377 001a 9960     		str	r1, [r3, #8]
 116:C:/Users/geoma/Desktop/Scilab/scilab_test/USART_IT_F302R8_06/USART_IT_F302R8_06/Src\USART_IT_F302R8_06_USART.c ****    USART2_TxDataLink.pt_Tx_W = G_USART2_TxDataBuffer;
 378              		.loc 1 116 0
 379 001c 01F12000 		add	r0, r1, #32
 380 0020 D860     		str	r0, [r3, #12]
 117:C:/Users/geoma/Desktop/Scilab/scilab_test/USART_IT_F302R8_06/USART_IT_F302R8_06/Src\USART_IT_F302R8_06_USART.c ****    USART2_TxDataLink.pt_Tx_R = G_USART2_TxDataBuffer;
 381              		.loc 1 117 0
 382 0022 1961     		str	r1, [r3, #16]
 118:C:/Users/geoma/Desktop/Scilab/scilab_test/USART_IT_F302R8_06/USART_IT_F302R8_06/Src\USART_IT_F302R8_06_USART.c ****    USART2_TxDataLink.CopyDataFcn = USART2_CopyDataFcn;
 383              		.loc 1 118 0
 384 0024 5961     		str	r1, [r3, #20]
 119:C:/Users/geoma/Desktop/Scilab/scilab_test/USART_IT_F302R8_06/USART_IT_F302R8_06/Src\USART_IT_F302R8_06_USART.c ****    USART2_TxDataLink.SendDataFcn = USART2_SendDataFcn;
 385              		.loc 1 119 0
 386 0026 0A49     		ldr	r1, .L30+20
 387 0028 9961     		str	r1, [r3, #24]
 120:C:/Users/geoma/Desktop/Scilab/scilab_test/USART_IT_F302R8_06/USART_IT_F302R8_06/Src\USART_IT_F302R8_06_USART.c ****    USART2_TxDataLink.txStatus = USART_TX_OFF;
 388              		.loc 1 120 0
 389 002a 0A49     		ldr	r1, .L30+24
 390 002c D961     		str	r1, [r3, #28]
 121:C:/Users/geoma/Desktop/Scilab/scilab_test/USART_IT_F302R8_06/USART_IT_F302R8_06/Src\USART_IT_F302R8_06_USART.c ****    USART2_TxDataLink.txLock = 0;
 391              		.loc 1 121 0
 392 002e 0221     		movs	r1, #2
 393 0030 83F82010 		strb	r1, [r3, #32]
 122:C:/Users/geoma/Desktop/Scilab/scilab_test/USART_IT_F302R8_06/USART_IT_F302R8_06/Src\USART_IT_F302R8_06_USART.c **** }
 394              		.loc 1 122 0
 395 0034 83F82120 		strb	r2, [r3, #33]
 396 0038 7047     		bx	lr
 397              	.L31:
 398 003a 00BF     		.align	2
 399              	.L30:
 400 003c 00000000 		.word	USART2_TxDataLink
 401 0040 00000000 		.word	G_Usart_TxData
 402 0044 00000000 		.word	huart2
 403 0048 00000000 		.word	G_Usart_TxHandler
 404 004c 00000000 		.word	G_USART2_TxDataBuffer
 405 0050 00000000 		.word	USART2_CopyDataFcn
 406 0054 00000000 		.word	USART2_SendDataFcn
 407              		.cfi_endproc
 408              	.LFE159:
 410              		.section	.text.USART_Initialize,"ax",%progbits
ARM GAS  C:\Users\geoma\AppData\Local\Temp\cceauhXK.s 			page 12


 411              		.align	2
 412              		.global	USART_Initialize
 413              		.thumb
 414              		.thumb_func
 416              	USART_Initialize:
 417              	.LFB162:
 189:C:/Users/geoma/Desktop/Scilab/scilab_test/USART_IT_F302R8_06/USART_IT_F302R8_06/Src\USART_IT_F302R8_06_USART.c ****        }
 190:C:/Users/geoma/Desktop/Scilab/scilab_test/USART_IT_F302R8_06/USART_IT_F302R8_06/Src\USART_IT_F302R8_06_USART.c ****    }
 191:C:/Users/geoma/Desktop/Scilab/scilab_test/USART_IT_F302R8_06/USART_IT_F302R8_06/Src\USART_IT_F302R8_06_USART.c **** }
 192:C:/Users/geoma/Desktop/Scilab/scilab_test/USART_IT_F302R8_06/USART_IT_F302R8_06/Src\USART_IT_F302R8_06_USART.c **** 
 193:C:/Users/geoma/Desktop/Scilab/scilab_test/USART_IT_F302R8_06/USART_IT_F302R8_06/Src\USART_IT_F302R8_06_USART.c **** 
 194:C:/Users/geoma/Desktop/Scilab/scilab_test/USART_IT_F302R8_06/USART_IT_F302R8_06/Src\USART_IT_F302R8_06_USART.c **** void USART_Initialize(void){
 418              		.loc 1 194 0
 419              		.cfi_startproc
 420              		@ args = 0, pretend = 0, frame = 0
 421              		@ frame_needed = 0, uses_anonymous_args = 0
 422 0000 10B5     		push	{r4, lr}
 423              	.LCFI4:
 424              		.cfi_def_cfa_offset 8
 425              		.cfi_offset 4, -8
 426              		.cfi_offset 14, -4
 195:C:/Users/geoma/Desktop/Scilab/scilab_test/USART_IT_F302R8_06/USART_IT_F302R8_06/Src\USART_IT_F302R8_06_USART.c ****    USART_IT_F302R8_06_block_outtbptr[2] = (uint16_t*)&USART2_RxDataLink.nbRcv; //Set first output b
 427              		.loc 1 195 0
 428 0002 074C     		ldr	r4, .L34
 429 0004 2268     		ldr	r2, [r4]
 430 0006 074B     		ldr	r3, .L34+4
 431 0008 9360     		str	r3, [r2, #8]
 196:C:/Users/geoma/Desktop/Scilab/scilab_test/USART_IT_F302R8_06/USART_IT_F302R8_06/Src\USART_IT_F302R8_06_USART.c ****    USART_IT_F302R8_06_block_outtbptr[3] = (uint8_t*)&USART2_RxDataLink.ptRcv; //Set second output b
 432              		.loc 1 196 0
 433 000a 043B     		subs	r3, r3, #4
 434 000c D360     		str	r3, [r2, #12]
 197:C:/Users/geoma/Desktop/Scilab/scilab_test/USART_IT_F302R8_06/USART_IT_F302R8_06/Src\USART_IT_F302R8_06_USART.c ****    USART2_Rx_Initialization(); //Initialize USART2 to receive
 435              		.loc 1 197 0
 436 000e FFF7FEFF 		bl	USART2_Rx_Initialization
 437              	.LVL32:
 198:C:/Users/geoma/Desktop/Scilab/scilab_test/USART_IT_F302R8_06/USART_IT_F302R8_06/Src\USART_IT_F302R8_06_USART.c ****    USART_IT_F302R8_06_block_outtbptr[4] = (uint16_t*)&USART2_TxDataLink.nbSent; //Set output block 
 438              		.loc 1 198 0
 439 0012 2368     		ldr	r3, [r4]
 440 0014 044A     		ldr	r2, .L34+8
 441 0016 1A61     		str	r2, [r3, #16]
 199:C:/Users/geoma/Desktop/Scilab/scilab_test/USART_IT_F302R8_06/USART_IT_F302R8_06/Src\USART_IT_F302R8_06_USART.c ****    USART2_Tx_Initialization(); //Initialize USART2 to transmit
 442              		.loc 1 199 0
 443 0018 FFF7FEFF 		bl	USART2_Tx_Initialization
 444              	.LVL33:
 445 001c 10BD     		pop	{r4, pc}
 446              	.L35:
 447 001e 00BF     		.align	2
 448              	.L34:
 449 0020 00000000 		.word	USART_IT_F302R8_06_block_outtbptr
 450 0024 04000000 		.word	USART2_RxDataLink+4
 451 0028 02000000 		.word	USART2_TxDataLink+2
 452              		.cfi_endproc
 453              	.LFE162:
 455              		.comm	G_USART2_TxDataBuffer,32,4
 456              		.comm	USART2_TxDataLink,36,4
 457              		.comm	G_Usart_TxHandler,4,4
 458              		.comm	G_Usart_TxData,4,4
ARM GAS  C:\Users\geoma\AppData\Local\Temp\cceauhXK.s 			page 13


 459              		.comm	G_USART2_RxDataBuffer,32,4
 460              		.comm	USART2_RxDataLink,8,4
 461              		.comm	G_Usart_RxHandler,4,4
 462              		.comm	G_Usart_RxData,4,4
 463              		.text
 464              	.Letext0:
 465              		.file 2 "c:\\program files (x86)\\gnu tools arm embedded\\4.9 2015q2\\arm-none-eabi\\include\\mach
 466              		.file 3 "c:\\program files (x86)\\gnu tools arm embedded\\4.9 2015q2\\arm-none-eabi\\include\\sys\
 467              		.file 4 "Drivers/CMSIS/Device/ST/STM32F3xx/Include/stm32f302x8.h"
 468              		.file 5 "Drivers/STM32F3xx_HAL_Driver/Inc/stm32f3xx_hal_def.h"
 469              		.file 6 "Drivers/STM32F3xx_HAL_Driver/Inc/stm32f3xx_hal_dma.h"
 470              		.file 7 "Drivers/STM32F3xx_HAL_Driver/Inc/stm32f3xx_hal_uart.h"
 471              		.file 8 "USART_IT_F302R8_06/Inc/USART_IT_F302R8_06_USART.h"
 472              		.file 9 "Drivers/CMSIS/Include/core_cm4.h"
ARM GAS  C:\Users\geoma\AppData\Local\Temp\cceauhXK.s 			page 14

