ARM GAS  C:\Users\geoma\AppData\Local\Temp\ccFPlC5d.s 			page 1


   1              		.syntax unified
   2              		.cpu cortex-m4
   3              		.eabi_attribute 27, 1
   4              		.eabi_attribute 28, 1
   5              		.fpu fpv4-sp-d16
   6              		.eabi_attribute 20, 1
   7              		.eabi_attribute 21, 1
   8              		.eabi_attribute 23, 3
   9              		.eabi_attribute 24, 1
  10              		.eabi_attribute 25, 1
  11              		.eabi_attribute 26, 1
  12              		.eabi_attribute 30, 1
  13              		.eabi_attribute 34, 1
  14              		.eabi_attribute 18, 4
  15              		.thumb
  16              		.file	"USART_IT_F302R8_06.c"
  17              		.text
  18              	.Ltext0:
  19              		.cfi_sections	.debug_frame
  20              		.section	.text.assert_sci_failed,"ax",%progbits
  21              		.align	2
  22              		.global	assert_sci_failed
  23              		.thumb
  24              		.thumb_func
  26              	assert_sci_failed:
  27              	.LFB156:
  28              		.file 1 "C:/Users/geoma/Desktop/Scilab/scilab_test/USART_IT_F302R8_06/USART_IT_F302R8_06/Src/USART
   1:C:/Users/geoma/Desktop/Scilab/scilab_test/USART_IT_F302R8_06/USART_IT_F302R8_06/Src\USART_IT_F302R8_06.c **** /*
   2:C:/Users/geoma/Desktop/Scilab/scilab_test/USART_IT_F302R8_06/USART_IT_F302R8_06/Src\USART_IT_F302R8_06.c ****  * File: USART_IT_F302R8_06.c
   3:C:/Users/geoma/Desktop/Scilab/scilab_test/USART_IT_F302R8_06/USART_IT_F302R8_06/Src\USART_IT_F302R8_06.c ****  *
   4:C:/Users/geoma/Desktop/Scilab/scilab_test/USART_IT_F302R8_06/USART_IT_F302R8_06/Src\USART_IT_F302R8_06.c ****  * Generated by STM32 Coder for Xcos with scilab-5.5.2
   5:C:/Users/geoma/Desktop/Scilab/scilab_test/USART_IT_F302R8_06/USART_IT_F302R8_06/Src\USART_IT_F302R8_06.c ****  * C/C++ source code generated on  :09-Oct-2020
   6:C:/Users/geoma/Desktop/Scilab/scilab_test/USART_IT_F302R8_06/USART_IT_F302R8_06/Src\USART_IT_F302R8_06.c ****  *
   7:C:/Users/geoma/Desktop/Scilab/scilab_test/USART_IT_F302R8_06/USART_IT_F302R8_06/Src\USART_IT_F302R8_06.c ****  * Model version      : 1.0
   8:C:/Users/geoma/Desktop/Scilab/scilab_test/USART_IT_F302R8_06/USART_IT_F302R8_06/Src\USART_IT_F302R8_06.c ****  *
   9:C:/Users/geoma/Desktop/Scilab/scilab_test/USART_IT_F302R8_06/USART_IT_F302R8_06/Src\USART_IT_F302R8_06.c ****  * ******************************************************************************
  10:C:/Users/geoma/Desktop/Scilab/scilab_test/USART_IT_F302R8_06/USART_IT_F302R8_06/Src\USART_IT_F302R8_06.c ****  * * attention
  11:C:/Users/geoma/Desktop/Scilab/scilab_test/USART_IT_F302R8_06/USART_IT_F302R8_06/Src\USART_IT_F302R8_06.c ****  * *
  12:C:/Users/geoma/Desktop/Scilab/scilab_test/USART_IT_F302R8_06/USART_IT_F302R8_06/Src\USART_IT_F302R8_06.c ****  * * THE PRESENT FIRMWARE WHICH IS FOR GUIDANCE ONLY AIMS AT PROVIDING CUSTOMERS
  13:C:/Users/geoma/Desktop/Scilab/scilab_test/USART_IT_F302R8_06/USART_IT_F302R8_06/Src\USART_IT_F302R8_06.c ****  * * WITH CODING INFORMATION REGARDING THEIR PRODUCTS IN ORDER FOR THEM TO SAVE
  14:C:/Users/geoma/Desktop/Scilab/scilab_test/USART_IT_F302R8_06/USART_IT_F302R8_06/Src\USART_IT_F302R8_06.c ****  * * TIME. AS A RESULT, STMICROELECTRONICS SHALL NOT BE HELD LIABLE FOR ANY
  15:C:/Users/geoma/Desktop/Scilab/scilab_test/USART_IT_F302R8_06/USART_IT_F302R8_06/Src\USART_IT_F302R8_06.c ****  * * DIRECT, INDIRECT OR CONSEQUENTIAL DAMAGES WITH RESPECT TO ANY CLAIMS ARISING
  16:C:/Users/geoma/Desktop/Scilab/scilab_test/USART_IT_F302R8_06/USART_IT_F302R8_06/Src\USART_IT_F302R8_06.c ****  * * FROM THE CONTENT OF SUCH FIRMWARE AND/OR THE USE MADE BY CUSTOMERS OF THE
  17:C:/Users/geoma/Desktop/Scilab/scilab_test/USART_IT_F302R8_06/USART_IT_F302R8_06/Src\USART_IT_F302R8_06.c ****  * * CODING INFORMATION CONTAINED HEREIN IN CONNECTION WITH THEIR PRODUCTS.
  18:C:/Users/geoma/Desktop/Scilab/scilab_test/USART_IT_F302R8_06/USART_IT_F302R8_06/Src\USART_IT_F302R8_06.c ****  * *
  19:C:/Users/geoma/Desktop/Scilab/scilab_test/USART_IT_F302R8_06/USART_IT_F302R8_06/Src\USART_IT_F302R8_06.c ****  * ******************************************************************************
  20:C:/Users/geoma/Desktop/Scilab/scilab_test/USART_IT_F302R8_06/USART_IT_F302R8_06/Src\USART_IT_F302R8_06.c ****  */
  21:C:/Users/geoma/Desktop/Scilab/scilab_test/USART_IT_F302R8_06/USART_IT_F302R8_06/Src\USART_IT_F302R8_06.c **** 
  22:C:/Users/geoma/Desktop/Scilab/scilab_test/USART_IT_F302R8_06/USART_IT_F302R8_06/Src\USART_IT_F302R8_06.c **** /* ---- Headers ---- */
  23:C:/Users/geoma/Desktop/Scilab/scilab_test/USART_IT_F302R8_06/USART_IT_F302R8_06/Src\USART_IT_F302R8_06.c **** #include <string.h> // memcpy
  24:C:/Users/geoma/Desktop/Scilab/scilab_test/USART_IT_F302R8_06/USART_IT_F302R8_06/Src\USART_IT_F302R8_06.c **** #include "STM32_Config.h"
  25:C:/Users/geoma/Desktop/Scilab/scilab_test/USART_IT_F302R8_06/USART_IT_F302R8_06/Src\USART_IT_F302R8_06.c **** 
  26:C:/Users/geoma/Desktop/Scilab/scilab_test/USART_IT_F302R8_06/USART_IT_F302R8_06/Src\USART_IT_F302R8_06.c **** #include "scicos_block4.h"
  27:C:/Users/geoma/Desktop/Scilab/scilab_test/USART_IT_F302R8_06/USART_IT_F302R8_06/Src\USART_IT_F302R8_06.c **** 
  28:C:/Users/geoma/Desktop/Scilab/scilab_test/USART_IT_F302R8_06/USART_IT_F302R8_06/Src\USART_IT_F302R8_06.c **** #include "USART_IT_F302R8_06.h"
  29:C:/Users/geoma/Desktop/Scilab/scilab_test/USART_IT_F302R8_06/USART_IT_F302R8_06/Src\USART_IT_F302R8_06.c **** 
  30:C:/Users/geoma/Desktop/Scilab/scilab_test/USART_IT_F302R8_06/USART_IT_F302R8_06/Src\USART_IT_F302R8_06.c **** double get_scicos_time(void);
ARM GAS  C:\Users\geoma\AppData\Local\Temp\ccFPlC5d.s 			page 2


  31:C:/Users/geoma/Desktop/Scilab/scilab_test/USART_IT_F302R8_06/USART_IT_F302R8_06/Src\USART_IT_F302R8_06.c **** void set_scicos_time(double t);
  32:C:/Users/geoma/Desktop/Scilab/scilab_test/USART_IT_F302R8_06/USART_IT_F302R8_06/Src\USART_IT_F302R8_06.c **** int get_phase_simulation(void);
  33:C:/Users/geoma/Desktop/Scilab/scilab_test/USART_IT_F302R8_06/USART_IT_F302R8_06/Src\USART_IT_F302R8_06.c **** void assert_sci_failed(const char* e, const char* file, int line){}
  29              		.loc 1 33 0
  30              		.cfi_startproc
  31              		@ args = 0, pretend = 0, frame = 0
  32              		@ frame_needed = 0, uses_anonymous_args = 0
  33              		@ link register save eliminated.
  34              	.LVL0:
  35 0000 7047     		bx	lr
  36              		.cfi_endproc
  37              	.LFE156:
  39 0002 00BF     		.section	.text.USART_IT_F302R8_06_Initialize,"ax",%progbits
  40              		.align	2
  41              		.global	USART_IT_F302R8_06_Initialize
  42              		.thumb
  43              		.thumb_func
  45              	USART_IT_F302R8_06_Initialize:
  46              	.LFB157:
  34:C:/Users/geoma/Desktop/Scilab/scilab_test/USART_IT_F302R8_06/USART_IT_F302R8_06/Src\USART_IT_F302R8_06.c **** 
  35:C:/Users/geoma/Desktop/Scilab/scilab_test/USART_IT_F302R8_06/USART_IT_F302R8_06/Src\USART_IT_F302R8_06.c ****  
  36:C:/Users/geoma/Desktop/Scilab/scilab_test/USART_IT_F302R8_06/USART_IT_F302R8_06/Src\USART_IT_F302R8_06.c **** #define max(a,b) ((a) >= (b) ? (a) : (b))
  37:C:/Users/geoma/Desktop/Scilab/scilab_test/USART_IT_F302R8_06/USART_IT_F302R8_06/Src\USART_IT_F302R8_06.c **** #define min(a,b) ((a) <= (b) ? (a) : (b))
  38:C:/Users/geoma/Desktop/Scilab/scilab_test/USART_IT_F302R8_06/USART_IT_F302R8_06/Src\USART_IT_F302R8_06.c ****  
  39:C:/Users/geoma/Desktop/Scilab/scilab_test/USART_IT_F302R8_06/USART_IT_F302R8_06/Src\USART_IT_F302R8_06.c **** /* Table of constant values passed by ref */
  40:C:/Users/geoma/Desktop/Scilab/scilab_test/USART_IT_F302R8_06/USART_IT_F302R8_06/Src\USART_IT_F302R8_06.c **** static const int nrd_0 = 0;
  41:C:/Users/geoma/Desktop/Scilab/scilab_test/USART_IT_F302R8_06/USART_IT_F302R8_06/Src\USART_IT_F302R8_06.c **** static const int nrd_1 = 1;
  42:C:/Users/geoma/Desktop/Scilab/scilab_test/USART_IT_F302R8_06/USART_IT_F302R8_06/Src\USART_IT_F302R8_06.c **** static const int nrd_2 = 2;
  43:C:/Users/geoma/Desktop/Scilab/scilab_test/USART_IT_F302R8_06/USART_IT_F302R8_06/Src\USART_IT_F302R8_06.c **** static const int nrd_10 = 10;
  44:C:/Users/geoma/Desktop/Scilab/scilab_test/USART_IT_F302R8_06/USART_IT_F302R8_06/Src\USART_IT_F302R8_06.c **** static const int nrd_11 = 11;
  45:C:/Users/geoma/Desktop/Scilab/scilab_test/USART_IT_F302R8_06/USART_IT_F302R8_06/Src\USART_IT_F302R8_06.c **** static const int nrd_81 = 81;
  46:C:/Users/geoma/Desktop/Scilab/scilab_test/USART_IT_F302R8_06/USART_IT_F302R8_06/Src\USART_IT_F302R8_06.c **** static const int nrd_82 = 82;
  47:C:/Users/geoma/Desktop/Scilab/scilab_test/USART_IT_F302R8_06/USART_IT_F302R8_06/Src\USART_IT_F302R8_06.c **** static const int nrd_84 = 84;
  48:C:/Users/geoma/Desktop/Scilab/scilab_test/USART_IT_F302R8_06/USART_IT_F302R8_06/Src\USART_IT_F302R8_06.c **** static const int nrd_811 = 811;
  49:C:/Users/geoma/Desktop/Scilab/scilab_test/USART_IT_F302R8_06/USART_IT_F302R8_06/Src\USART_IT_F302R8_06.c **** static const int nrd_812 = 812;
  50:C:/Users/geoma/Desktop/Scilab/scilab_test/USART_IT_F302R8_06/USART_IT_F302R8_06/Src\USART_IT_F302R8_06.c **** static const int nrd_814 = 814;
  51:C:/Users/geoma/Desktop/Scilab/scilab_test/USART_IT_F302R8_06/USART_IT_F302R8_06/Src\USART_IT_F302R8_06.c **** 
  52:C:/Users/geoma/Desktop/Scilab/scilab_test/USART_IT_F302R8_06/USART_IT_F302R8_06/Src\USART_IT_F302R8_06.c **** /* Some general static variables passed by ref */
  53:C:/Users/geoma/Desktop/Scilab/scilab_test/USART_IT_F302R8_06/USART_IT_F302R8_06/Src\USART_IT_F302R8_06.c **** static int aaa=0, bbb=0;
  54:C:/Users/geoma/Desktop/Scilab/scilab_test/USART_IT_F302R8_06/USART_IT_F302R8_06/Src\USART_IT_F302R8_06.c **** 
  55:C:/Users/geoma/Desktop/Scilab/scilab_test/USART_IT_F302R8_06/USART_IT_F302R8_06/Src\USART_IT_F302R8_06.c **** /* data shared ptr declaration */
  56:C:/Users/geoma/Desktop/Scilab/scilab_test/USART_IT_F302R8_06/USART_IT_F302R8_06/Src\USART_IT_F302R8_06.c **** void **work;
  57:C:/Users/geoma/Desktop/Scilab/scilab_test/USART_IT_F302R8_06/USART_IT_F302R8_06/Src\USART_IT_F302R8_06.c **** void **USART_IT_F302R8_06_block_outtbptr;
  58:C:/Users/geoma/Desktop/Scilab/scilab_test/USART_IT_F302R8_06/USART_IT_F302R8_06/Src\USART_IT_F302R8_06.c **** scicos_block block_USART_IT_F302R8_06;
  59:C:/Users/geoma/Desktop/Scilab/scilab_test/USART_IT_F302R8_06/USART_IT_F302R8_06/Src\USART_IT_F302R8_06.c **** /* Dumy variable not used in embedded word but necessary for current version based on PC scicos C f
  60:C:/Users/geoma/Desktop/Scilab/scilab_test/USART_IT_F302R8_06/USART_IT_F302R8_06/Src\USART_IT_F302R8_06.c **** int local_flag=4; //Set to initialization
  61:C:/Users/geoma/Desktop/Scilab/scilab_test/USART_IT_F302R8_06/USART_IT_F302R8_06/Src\USART_IT_F302R8_06.c **** double t; //Simulation time (not used)
  62:C:/Users/geoma/Desktop/Scilab/scilab_test/USART_IT_F302R8_06/USART_IT_F302R8_06/Src\USART_IT_F302R8_06.c **** 
  63:C:/Users/geoma/Desktop/Scilab/scilab_test/USART_IT_F302R8_06/USART_IT_F302R8_06/Src\USART_IT_F302R8_06.c **** double sci_time;
  64:C:/Users/geoma/Desktop/Scilab/scilab_test/USART_IT_F302R8_06/USART_IT_F302R8_06/Src\USART_IT_F302R8_06.c **** 
  65:C:/Users/geoma/Desktop/Scilab/scilab_test/USART_IT_F302R8_06/USART_IT_F302R8_06/Src\USART_IT_F302R8_06.c **** const int size_SCSREAL_N_1x1[] = {1, 1, SCSREAL_N};
  66:C:/Users/geoma/Desktop/Scilab/scilab_test/USART_IT_F302R8_06/USART_IT_F302R8_06/Src\USART_IT_F302R8_06.c **** 
  67:C:/Users/geoma/Desktop/Scilab/scilab_test/USART_IT_F302R8_06/USART_IT_F302R8_06/Src\USART_IT_F302R8_06.c **** /* def real parameters */
  68:C:/Users/geoma/Desktop/Scilab/scilab_test/USART_IT_F302R8_06/USART_IT_F302R8_06/Src\USART_IT_F302R8_06.c **** const double RPAR1[ ] = {
  69:C:/Users/geoma/Desktop/Scilab/scilab_test/USART_IT_F302R8_06/USART_IT_F302R8_06/Src\USART_IT_F302R8_06.c **** /*
  70:C:/Users/geoma/Desktop/Scilab/scilab_test/USART_IT_F302R8_06/USART_IT_F302R8_06/Src\USART_IT_F302R8_06.c ****  * Routine name of block: evtdly
  71:C:/Users/geoma/Desktop/Scilab/scilab_test/USART_IT_F302R8_06/USART_IT_F302R8_06/Src\USART_IT_F302R8_06.c ****  * UID of block: 41b3fae6:13d11b95ac2:-7d2e
ARM GAS  C:\Users\geoma\AppData\Local\Temp\ccFPlC5d.s 			page 3


  72:C:/Users/geoma/Desktop/Scilab/scilab_test/USART_IT_F302R8_06/USART_IT_F302R8_06/Src\USART_IT_F302R8_06.c ****  * Compiled structure index: 2
  73:C:/Users/geoma/Desktop/Scilab/scilab_test/USART_IT_F302R8_06/USART_IT_F302R8_06/Src\USART_IT_F302R8_06.c ****  */
  74:C:/Users/geoma/Desktop/Scilab/scilab_test/USART_IT_F302R8_06/USART_IT_F302R8_06/Src\USART_IT_F302R8_06.c **** 5.0000000000000000000000000E-01,
  75:C:/Users/geoma/Desktop/Scilab/scilab_test/USART_IT_F302R8_06/USART_IT_F302R8_06/Src\USART_IT_F302R8_06.c **** 
  76:C:/Users/geoma/Desktop/Scilab/scilab_test/USART_IT_F302R8_06/USART_IT_F302R8_06/Src\USART_IT_F302R8_06.c **** };
  77:C:/Users/geoma/Desktop/Scilab/scilab_test/USART_IT_F302R8_06/USART_IT_F302R8_06/Src\USART_IT_F302R8_06.c **** 
  78:C:/Users/geoma/Desktop/Scilab/scilab_test/USART_IT_F302R8_06/USART_IT_F302R8_06/Src\USART_IT_F302R8_06.c **** /* def integer parameters */
  79:C:/Users/geoma/Desktop/Scilab/scilab_test/USART_IT_F302R8_06/USART_IT_F302R8_06/Src\USART_IT_F302R8_06.c **** const int IPAR1[ ] = {
  80:C:/Users/geoma/Desktop/Scilab/scilab_test/USART_IT_F302R8_06/USART_IT_F302R8_06/Src\USART_IT_F302R8_06.c **** /*
  81:C:/Users/geoma/Desktop/Scilab/scilab_test/USART_IT_F302R8_06/USART_IT_F302R8_06/Src\USART_IT_F302R8_06.c ****  * Routine name of block: convert
  82:C:/Users/geoma/Desktop/Scilab/scilab_test/USART_IT_F302R8_06/USART_IT_F302R8_06/Src\USART_IT_F302R8_06.c ****  * UID of block: -5f95c7d:1566ea22c33:-7f04
  83:C:/Users/geoma/Desktop/Scilab/scilab_test/USART_IT_F302R8_06/USART_IT_F302R8_06/Src\USART_IT_F302R8_06.c ****  * Compiled structure index: 3
  84:C:/Users/geoma/Desktop/Scilab/scilab_test/USART_IT_F302R8_06/USART_IT_F302R8_06/Src\USART_IT_F302R8_06.c ****  */
  85:C:/Users/geoma/Desktop/Scilab/scilab_test/USART_IT_F302R8_06/USART_IT_F302R8_06/Src\USART_IT_F302R8_06.c **** 6,
  86:C:/Users/geoma/Desktop/Scilab/scilab_test/USART_IT_F302R8_06/USART_IT_F302R8_06/Src\USART_IT_F302R8_06.c **** 
  87:C:/Users/geoma/Desktop/Scilab/scilab_test/USART_IT_F302R8_06/USART_IT_F302R8_06/Src\USART_IT_F302R8_06.c **** };
  88:C:/Users/geoma/Desktop/Scilab/scilab_test/USART_IT_F302R8_06/USART_IT_F302R8_06/Src\USART_IT_F302R8_06.c **** 
  89:C:/Users/geoma/Desktop/Scilab/scilab_test/USART_IT_F302R8_06/USART_IT_F302R8_06/Src\USART_IT_F302R8_06.c **** /* def object parameters */
  90:C:/Users/geoma/Desktop/Scilab/scilab_test/USART_IT_F302R8_06/USART_IT_F302R8_06/Src\USART_IT_F302R8_06.c **** /*
  91:C:/Users/geoma/Desktop/Scilab/scilab_test/USART_IT_F302R8_06/USART_IT_F302R8_06/Src\USART_IT_F302R8_06.c ****  * Routine name of block: cstblk4_m
  92:C:/Users/geoma/Desktop/Scilab/scilab_test/USART_IT_F302R8_06/USART_IT_F302R8_06/Src\USART_IT_F302R8_06.c ****  * UID of block: -5f95c7d:1566ea22c33:-7ecc
  93:C:/Users/geoma/Desktop/Scilab/scilab_test/USART_IT_F302R8_06/USART_IT_F302R8_06/Src\USART_IT_F302R8_06.c ****  * Compiled structure index: 4
  94:C:/Users/geoma/Desktop/Scilab/scilab_test/USART_IT_F302R8_06/USART_IT_F302R8_06/Src\USART_IT_F302R8_06.c ****  */
  95:C:/Users/geoma/Desktop/Scilab/scilab_test/USART_IT_F302R8_06/USART_IT_F302R8_06/Src\USART_IT_F302R8_06.c **** static float OPAR_3[] = {4};
  96:C:/Users/geoma/Desktop/Scilab/scilab_test/USART_IT_F302R8_06/USART_IT_F302R8_06/Src\USART_IT_F302R8_06.c **** 
  97:C:/Users/geoma/Desktop/Scilab/scilab_test/USART_IT_F302R8_06/USART_IT_F302R8_06/Src\USART_IT_F302R8_06.c **** /* Initial values */
  98:C:/Users/geoma/Desktop/Scilab/scilab_test/USART_IT_F302R8_06/USART_IT_F302R8_06/Src\USART_IT_F302R8_06.c **** 
  99:C:/Users/geoma/Desktop/Scilab/scilab_test/USART_IT_F302R8_06/USART_IT_F302R8_06/Src\USART_IT_F302R8_06.c **** /* Note that z[]=[z_initial_condition;outtbptr;work]
 100:C:/Users/geoma/Desktop/Scilab/scilab_test/USART_IT_F302R8_06/USART_IT_F302R8_06/Src\USART_IT_F302R8_06.c ****     z_initial_condition={};
 101:C:/Users/geoma/Desktop/Scilab/scilab_test/USART_IT_F302R8_06/USART_IT_F302R8_06/Src\USART_IT_F302R8_06.c ****     outtbptr={0,0,0,0,0};
 102:C:/Users/geoma/Desktop/Scilab/scilab_test/USART_IT_F302R8_06/USART_IT_F302R8_06/Src\USART_IT_F302R8_06.c ****     work= {0,0,0,0,0,0,0};
 103:C:/Users/geoma/Desktop/Scilab/scilab_test/USART_IT_F302R8_06/USART_IT_F302R8_06/Src\USART_IT_F302R8_06.c ****   */
 104:C:/Users/geoma/Desktop/Scilab/scilab_test/USART_IT_F302R8_06/USART_IT_F302R8_06/Src\USART_IT_F302R8_06.c **** 
 105:C:/Users/geoma/Desktop/Scilab/scilab_test/USART_IT_F302R8_06/USART_IT_F302R8_06/Src\USART_IT_F302R8_06.c ****    double z[]={0,0,0,0,0,0,0,0,0,0,0,0};
 106:C:/Users/geoma/Desktop/Scilab/scilab_test/USART_IT_F302R8_06/USART_IT_F302R8_06/Src\USART_IT_F302R8_06.c **** 
 107:C:/Users/geoma/Desktop/Scilab/scilab_test/USART_IT_F302R8_06/USART_IT_F302R8_06/Src\USART_IT_F302R8_06.c ****   int evoutptr[1];
 108:C:/Users/geoma/Desktop/Scilab/scilab_test/USART_IT_F302R8_06/USART_IT_F302R8_06/Src\USART_IT_F302R8_06.c ****   void* inptr[2];
 109:C:/Users/geoma/Desktop/Scilab/scilab_test/USART_IT_F302R8_06/USART_IT_F302R8_06/Src\USART_IT_F302R8_06.c ****   int inszptr[3*2];
 110:C:/Users/geoma/Desktop/Scilab/scilab_test/USART_IT_F302R8_06/USART_IT_F302R8_06/Src\USART_IT_F302R8_06.c **** 
 111:C:/Users/geoma/Desktop/Scilab/scilab_test/USART_IT_F302R8_06/USART_IT_F302R8_06/Src\USART_IT_F302R8_06.c ****   void* outptr[2];
 112:C:/Users/geoma/Desktop/Scilab/scilab_test/USART_IT_F302R8_06/USART_IT_F302R8_06/Src\USART_IT_F302R8_06.c ****   int outszptr[3*2];
 113:C:/Users/geoma/Desktop/Scilab/scilab_test/USART_IT_F302R8_06/USART_IT_F302R8_06/Src\USART_IT_F302R8_06.c **** 
 114:C:/Users/geoma/Desktop/Scilab/scilab_test/USART_IT_F302R8_06/USART_IT_F302R8_06/Src\USART_IT_F302R8_06.c **** 
 115:C:/Users/geoma/Desktop/Scilab/scilab_test/USART_IT_F302R8_06/USART_IT_F302R8_06/Src\USART_IT_F302R8_06.c ****   /* outtb declaration */
 116:C:/Users/geoma/Desktop/Scilab/scilab_test/USART_IT_F302R8_06/USART_IT_F302R8_06/Src\USART_IT_F302R8_06.c ****   unsigned short outtb_2[1]={0};
 117:C:/Users/geoma/Desktop/Scilab/scilab_test/USART_IT_F302R8_06/USART_IT_F302R8_06/Src\USART_IT_F302R8_06.c ****   float outtb_1[1]={0};
 118:C:/Users/geoma/Desktop/Scilab/scilab_test/USART_IT_F302R8_06/USART_IT_F302R8_06/Src\USART_IT_F302R8_06.c **** 
 119:C:/Users/geoma/Desktop/Scilab/scilab_test/USART_IT_F302R8_06/USART_IT_F302R8_06/Src\USART_IT_F302R8_06.c **** /*----------------------------------------  Initialization function */
 120:C:/Users/geoma/Desktop/Scilab/scilab_test/USART_IT_F302R8_06/USART_IT_F302R8_06/Src\USART_IT_F302R8_06.c **** int USART_IT_F302R8_06_Initialize()
 121:C:/Users/geoma/Desktop/Scilab/scilab_test/USART_IT_F302R8_06/USART_IT_F302R8_06/Src\USART_IT_F302R8_06.c **** {
  47              		.loc 1 121 0
  48              		.cfi_startproc
  49              		@ args = 0, pretend = 0, frame = 0
  50              		@ frame_needed = 0, uses_anonymous_args = 0
  51              		.loc 1 121 0
  52 0000 2DE9F84F 		push	{r3, r4, r5, r6, r7, r8, r9, r10, fp, lr}
  53              	.LCFI0:
ARM GAS  C:\Users\geoma\AppData\Local\Temp\ccFPlC5d.s 			page 4


  54              		.cfi_def_cfa_offset 40
  55              		.cfi_offset 3, -40
  56              		.cfi_offset 4, -36
  57              		.cfi_offset 5, -32
  58              		.cfi_offset 6, -28
  59              		.cfi_offset 7, -24
  60              		.cfi_offset 8, -20
  61              		.cfi_offset 9, -16
  62              		.cfi_offset 10, -12
  63              		.cfi_offset 11, -8
  64              		.cfi_offset 14, -4
  65              	.LVL1:
 122:C:/Users/geoma/Desktop/Scilab/scilab_test/USART_IT_F302R8_06/USART_IT_F302R8_06/Src\USART_IT_F302R8_06.c ****   int nevprt=1;
 123:C:/Users/geoma/Desktop/Scilab/scilab_test/USART_IT_F302R8_06/USART_IT_F302R8_06/Src\USART_IT_F302R8_06.c ****   int nport;
 124:C:/Users/geoma/Desktop/Scilab/scilab_test/USART_IT_F302R8_06/USART_IT_F302R8_06/Src\USART_IT_F302R8_06.c **** 
 125:C:/Users/geoma/Desktop/Scilab/scilab_test/USART_IT_F302R8_06/USART_IT_F302R8_06/Src\USART_IT_F302R8_06.c **** 
 126:C:/Users/geoma/Desktop/Scilab/scilab_test/USART_IT_F302R8_06/USART_IT_F302R8_06/Src\USART_IT_F302R8_06.c ****   /* Get work ptr of blocks */
 127:C:/Users/geoma/Desktop/Scilab/scilab_test/USART_IT_F302R8_06/USART_IT_F302R8_06/Src\USART_IT_F302R8_06.c ****   work = (void **)(z+5);
  66              		.loc 1 127 0
  67 0004 DFF8B082 		ldr	r8, .L11+36
  68 0008 08F12803 		add	r3, r8, #40
  69 000c A14A     		ldr	r2, .L11
  70 000e 1360     		str	r3, [r2]
 128:C:/Users/geoma/Desktop/Scilab/scilab_test/USART_IT_F302R8_06/USART_IT_F302R8_06/Src\USART_IT_F302R8_06.c **** 
 129:C:/Users/geoma/Desktop/Scilab/scilab_test/USART_IT_F302R8_06/USART_IT_F302R8_06/Src\USART_IT_F302R8_06.c ****   /* Get outtbptr ptr of blocks */
 130:C:/Users/geoma/Desktop/Scilab/scilab_test/USART_IT_F302R8_06/USART_IT_F302R8_06/Src\USART_IT_F302R8_06.c ****   USART_IT_F302R8_06_block_outtbptr = (void **)(z+0);
  71              		.loc 1 130 0
  72 0010 DFF8A8A2 		ldr	r10, .L11+40
  73 0014 CAF80080 		str	r8, [r10]
 131:C:/Users/geoma/Desktop/Scilab/scilab_test/USART_IT_F302R8_06/USART_IT_F302R8_06/Src\USART_IT_F302R8_06.c **** 
 132:C:/Users/geoma/Desktop/Scilab/scilab_test/USART_IT_F302R8_06/USART_IT_F302R8_06/Src\USART_IT_F302R8_06.c ****   USART_IT_F302R8_06_block_outtbptr[1] = (void *) outtb_2;
  74              		.loc 1 132 0
  75 0018 9F4B     		ldr	r3, .L11+4
  76 001a C8F80430 		str	r3, [r8, #4]
 133:C:/Users/geoma/Desktop/Scilab/scilab_test/USART_IT_F302R8_06/USART_IT_F302R8_06/Src\USART_IT_F302R8_06.c ****   USART_IT_F302R8_06_block_outtbptr[0] = (void *) outtb_1;
  77              		.loc 1 133 0
  78 001e 9F4B     		ldr	r3, .L11+8
  79 0020 C8F80030 		str	r3, [r8]
 134:C:/Users/geoma/Desktop/Scilab/scilab_test/USART_IT_F302R8_06/USART_IT_F302R8_06/Src\USART_IT_F302R8_06.c **** 
 135:C:/Users/geoma/Desktop/Scilab/scilab_test/USART_IT_F302R8_06/USART_IT_F302R8_06/Src\USART_IT_F302R8_06.c ****   /* Initialization */
 136:C:/Users/geoma/Desktop/Scilab/scilab_test/USART_IT_F302R8_06/USART_IT_F302R8_06/Src\USART_IT_F302R8_06.c **** 
 137:C:/Users/geoma/Desktop/Scilab/scilab_test/USART_IT_F302R8_06/USART_IT_F302R8_06/Src\USART_IT_F302R8_06.c ****   //Call GPIO Initialization function defined in _GPIO.c file
 138:C:/Users/geoma/Desktop/Scilab/scilab_test/USART_IT_F302R8_06/USART_IT_F302R8_06/Src\USART_IT_F302R8_06.c ****   GPIO_Initialize();
  80              		.loc 1 138 0
  81 0024 FFF7FEFF 		bl	GPIO_Initialize
  82              	.LVL2:
 139:C:/Users/geoma/Desktop/Scilab/scilab_test/USART_IT_F302R8_06/USART_IT_F302R8_06/Src\USART_IT_F302R8_06.c **** 
 140:C:/Users/geoma/Desktop/Scilab/scilab_test/USART_IT_F302R8_06/USART_IT_F302R8_06/Src\USART_IT_F302R8_06.c ****   /* Call of 'convert' (type 4 - blk nb 3 - uid ) */
 141:C:/Users/geoma/Desktop/Scilab/scilab_test/USART_IT_F302R8_06/USART_IT_F302R8_06/Src\USART_IT_F302R8_06.c ****   { 
 142:C:/Users/geoma/Desktop/Scilab/scilab_test/USART_IT_F302R8_06/USART_IT_F302R8_06/Src\USART_IT_F302R8_06.c ****     /* set blk struc. of 'convert' (type 4 - blk nb 3 - uid ) */
 143:C:/Users/geoma/Desktop/Scilab/scilab_test/USART_IT_F302R8_06/USART_IT_F302R8_06/Src\USART_IT_F302R8_06.c ****     block_USART_IT_F302R8_06.type   = 4;
  83              		.loc 1 143 0
  84 0028 9D4C     		ldr	r4, .L11+12
  85 002a 0423     		movs	r3, #4
  86 002c A360     		str	r3, [r4, #8]
 144:C:/Users/geoma/Desktop/Scilab/scilab_test/USART_IT_F302R8_06/USART_IT_F302R8_06/Src\USART_IT_F302R8_06.c ****     block_USART_IT_F302R8_06.ztyp   = 0;
  87              		.loc 1 144 0
ARM GAS  C:\Users\geoma\AppData\Local\Temp\ccFPlC5d.s 			page 5


  88 002e 0025     		movs	r5, #0
  89 0030 C4F88450 		str	r5, [r4, #132]
 145:C:/Users/geoma/Desktop/Scilab/scilab_test/USART_IT_F302R8_06/USART_IT_F302R8_06/Src\USART_IT_F302R8_06.c ****     block_USART_IT_F302R8_06.ng     = 0;
  90              		.loc 1 145 0
  91 0034 E567     		str	r5, [r4, #124]
 146:C:/Users/geoma/Desktop/Scilab/scilab_test/USART_IT_F302R8_06/USART_IT_F302R8_06/Src\USART_IT_F302R8_06.c ****     block_USART_IT_F302R8_06.nz     = 0;
  92              		.loc 1 146 0
  93 0036 2561     		str	r5, [r4, #16]
 147:C:/Users/geoma/Desktop/Scilab/scilab_test/USART_IT_F302R8_06/USART_IT_F302R8_06/Src\USART_IT_F302R8_06.c ****     block_USART_IT_F302R8_06.noz    = 0;
  94              		.loc 1 147 0
  95 0038 A561     		str	r5, [r4, #24]
 148:C:/Users/geoma/Desktop/Scilab/scilab_test/USART_IT_F302R8_06/USART_IT_F302R8_06/Src\USART_IT_F302R8_06.c ****     block_USART_IT_F302R8_06.nrpar  = 0;
  96              		.loc 1 148 0
  97 003a E565     		str	r5, [r4, #92]
 149:C:/Users/geoma/Desktop/Scilab/scilab_test/USART_IT_F302R8_06/USART_IT_F302R8_06/Src\USART_IT_F302R8_06.c ****     block_USART_IT_F302R8_06.nopar  = 0;
  98              		.loc 1 149 0
  99 003c E566     		str	r5, [r4, #108]
 150:C:/Users/geoma/Desktop/Scilab/scilab_test/USART_IT_F302R8_06/USART_IT_F302R8_06/Src\USART_IT_F302R8_06.c ****     block_USART_IT_F302R8_06.nipar  = 1;
 100              		.loc 1 150 0
 101 003e 0126     		movs	r6, #1
 102 0040 6666     		str	r6, [r4, #100]
 151:C:/Users/geoma/Desktop/Scilab/scilab_test/USART_IT_F302R8_06/USART_IT_F302R8_06/Src\USART_IT_F302R8_06.c ****     block_USART_IT_F302R8_06.nin    = 1;
 103              		.loc 1 151 0
 104 0042 E663     		str	r6, [r4, #60]
 152:C:/Users/geoma/Desktop/Scilab/scilab_test/USART_IT_F302R8_06/USART_IT_F302R8_06/Src\USART_IT_F302R8_06.c ****     block_USART_IT_F302R8_06.nout   = 1;
 105              		.loc 1 152 0
 106 0044 A664     		str	r6, [r4, #72]
 153:C:/Users/geoma/Desktop/Scilab/scilab_test/USART_IT_F302R8_06/USART_IT_F302R8_06/Src\USART_IT_F302R8_06.c ****     block_USART_IT_F302R8_06.nevout = 0;
 107              		.loc 1 153 0
 108 0046 6565     		str	r5, [r4, #84]
 154:C:/Users/geoma/Desktop/Scilab/scilab_test/USART_IT_F302R8_06/USART_IT_F302R8_06/Src\USART_IT_F302R8_06.c ****     block_USART_IT_F302R8_06.nmode  = 0;
 109              		.loc 1 154 0
 110 0048 C4F89450 		str	r5, [r4, #148]
 155:C:/Users/geoma/Desktop/Scilab/scilab_test/USART_IT_F302R8_06/USART_IT_F302R8_06/Src\USART_IT_F302R8_06.c ****     block_USART_IT_F302R8_06.evout = NULL;
 111              		.loc 1 155 0
 112 004c A565     		str	r5, [r4, #88]
 156:C:/Users/geoma/Desktop/Scilab/scilab_test/USART_IT_F302R8_06/USART_IT_F302R8_06/Src\USART_IT_F302R8_06.c ****     block_USART_IT_F302R8_06.inptr  = inptr;
 113              		.loc 1 156 0
 114 004e DFF870B2 		ldr	fp, .L11+44
 115 0052 C4F844B0 		str	fp, [r4, #68]
 157:C:/Users/geoma/Desktop/Scilab/scilab_test/USART_IT_F302R8_06/USART_IT_F302R8_06/Src\USART_IT_F302R8_06.c ****     block_USART_IT_F302R8_06.inptr[0]  = USART_IT_F302R8_06_block_outtbptr[0];
 116              		.loc 1 157 0
 117 0056 DAF80020 		ldr	r2, [r10]
 118 005a 1368     		ldr	r3, [r2]
 119 005c CBF80030 		str	r3, [fp]
 158:C:/Users/geoma/Desktop/Scilab/scilab_test/USART_IT_F302R8_06/USART_IT_F302R8_06/Src\USART_IT_F302R8_06.c ****     block_USART_IT_F302R8_06.insz = inszptr;
 120              		.loc 1 158 0
 121 0060 904B     		ldr	r3, .L11+16
 122 0062 2364     		str	r3, [r4, #64]
 159:C:/Users/geoma/Desktop/Scilab/scilab_test/USART_IT_F302R8_06/USART_IT_F302R8_06/Src\USART_IT_F302R8_06.c ****     block_USART_IT_F302R8_06.insz[0]   = 1;
 123              		.loc 1 159 0
 124 0064 1E60     		str	r6, [r3]
 160:C:/Users/geoma/Desktop/Scilab/scilab_test/USART_IT_F302R8_06/USART_IT_F302R8_06/Src\USART_IT_F302R8_06.c ****     block_USART_IT_F302R8_06.insz[1]   = 1;
 125              		.loc 1 160 0
 126 0066 5E60     		str	r6, [r3, #4]
 161:C:/Users/geoma/Desktop/Scilab/scilab_test/USART_IT_F302R8_06/USART_IT_F302R8_06/Src\USART_IT_F302R8_06.c ****     block_USART_IT_F302R8_06.insz[2]   = SCSREAL_N;
 127              		.loc 1 161 0
ARM GAS  C:\Users\geoma\AppData\Local\Temp\ccFPlC5d.s 			page 6


 128 0068 0A21     		movs	r1, #10
 129 006a 9960     		str	r1, [r3, #8]
 162:C:/Users/geoma/Desktop/Scilab/scilab_test/USART_IT_F302R8_06/USART_IT_F302R8_06/Src\USART_IT_F302R8_06.c ****     block_USART_IT_F302R8_06.outptr = outptr;
 130              		.loc 1 162 0
 131 006c DFF85492 		ldr	r9, .L11+48
 132 0070 C4F85090 		str	r9, [r4, #80]
 163:C:/Users/geoma/Desktop/Scilab/scilab_test/USART_IT_F302R8_06/USART_IT_F302R8_06/Src\USART_IT_F302R8_06.c ****     block_USART_IT_F302R8_06.outptr[0] = USART_IT_F302R8_06_block_outtbptr[1];
 133              		.loc 1 163 0
 134 0074 5368     		ldr	r3, [r2, #4]
 135 0076 C9F80030 		str	r3, [r9]
 164:C:/Users/geoma/Desktop/Scilab/scilab_test/USART_IT_F302R8_06/USART_IT_F302R8_06/Src\USART_IT_F302R8_06.c ****     block_USART_IT_F302R8_06.outsz = outszptr;
 136              		.loc 1 164 0
 137 007a 8B4F     		ldr	r7, .L11+20
 138 007c E764     		str	r7, [r4, #76]
 165:C:/Users/geoma/Desktop/Scilab/scilab_test/USART_IT_F302R8_06/USART_IT_F302R8_06/Src\USART_IT_F302R8_06.c ****     block_USART_IT_F302R8_06.outsz[0]  = 1;
 139              		.loc 1 165 0
 140 007e 3E60     		str	r6, [r7]
 166:C:/Users/geoma/Desktop/Scilab/scilab_test/USART_IT_F302R8_06/USART_IT_F302R8_06/Src\USART_IT_F302R8_06.c ****     block_USART_IT_F302R8_06.outsz[1]  = 1;
 141              		.loc 1 166 0
 142 0080 7E60     		str	r6, [r7, #4]
 167:C:/Users/geoma/Desktop/Scilab/scilab_test/USART_IT_F302R8_06/USART_IT_F302R8_06/Src\USART_IT_F302R8_06.c ****     block_USART_IT_F302R8_06.outsz[2]  = SCSUINT16_N;
 143              		.loc 1 167 0
 144 0082 4FF44B73 		mov	r3, #812
 145 0086 BB60     		str	r3, [r7, #8]
 168:C:/Users/geoma/Desktop/Scilab/scilab_test/USART_IT_F302R8_06/USART_IT_F302R8_06/Src\USART_IT_F302R8_06.c ****     block_USART_IT_F302R8_06.z = &(z[0]);
 146              		.loc 1 168 0
 147 0088 C4F81480 		str	r8, [r4, #20]
 169:C:/Users/geoma/Desktop/Scilab/scilab_test/USART_IT_F302R8_06/USART_IT_F302R8_06/Src\USART_IT_F302R8_06.c ****     block_USART_IT_F302R8_06.ipar=(int*) &(IPAR1[0]);
 148              		.loc 1 169 0
 149 008c 874B     		ldr	r3, .L11+24
 150 008e A366     		str	r3, [r4, #104]
 170:C:/Users/geoma/Desktop/Scilab/scilab_test/USART_IT_F302R8_06/USART_IT_F302R8_06/Src\USART_IT_F302R8_06.c ****     block_USART_IT_F302R8_06.work = (void **)(((double *)work)+2);
 151              		.loc 1 170 0
 152 0090 804B     		ldr	r3, .L11
 153 0092 1B68     		ldr	r3, [r3]
 154 0094 1033     		adds	r3, r3, #16
 155 0096 C4F89030 		str	r3, [r4, #144]
 171:C:/Users/geoma/Desktop/Scilab/scilab_test/USART_IT_F302R8_06/USART_IT_F302R8_06/Src\USART_IT_F302R8_06.c ****   }
 172:C:/Users/geoma/Desktop/Scilab/scilab_test/USART_IT_F302R8_06/USART_IT_F302R8_06/Src\USART_IT_F302R8_06.c ****   convert(&block_USART_IT_F302R8_06,4);
 156              		.loc 1 172 0
 157 009a 2046     		mov	r0, r4
 158 009c 0421     		movs	r1, #4
 159 009e FFF7FEFF 		bl	convert
 160              	.LVL3:
 173:C:/Users/geoma/Desktop/Scilab/scilab_test/USART_IT_F302R8_06/USART_IT_F302R8_06/Src\USART_IT_F302R8_06.c **** 
 174:C:/Users/geoma/Desktop/Scilab/scilab_test/USART_IT_F302R8_06/USART_IT_F302R8_06/Src\USART_IT_F302R8_06.c ****   /* Call of 'cstblk4_m' (type 4 - blk nb 4 - uid ) */
 175:C:/Users/geoma/Desktop/Scilab/scilab_test/USART_IT_F302R8_06/USART_IT_F302R8_06/Src\USART_IT_F302R8_06.c ****   { 
 176:C:/Users/geoma/Desktop/Scilab/scilab_test/USART_IT_F302R8_06/USART_IT_F302R8_06/Src\USART_IT_F302R8_06.c ****     /* set blk struc. of 'cstblk4_m' (type 4 - blk nb 4 - uid ) */
 177:C:/Users/geoma/Desktop/Scilab/scilab_test/USART_IT_F302R8_06/USART_IT_F302R8_06/Src\USART_IT_F302R8_06.c ****     block_USART_IT_F302R8_06.type   = 4;
 161              		.loc 1 177 0
 162 00a2 0423     		movs	r3, #4
 163 00a4 A360     		str	r3, [r4, #8]
 178:C:/Users/geoma/Desktop/Scilab/scilab_test/USART_IT_F302R8_06/USART_IT_F302R8_06/Src\USART_IT_F302R8_06.c ****     block_USART_IT_F302R8_06.ztyp   = 0;
 164              		.loc 1 178 0
 165 00a6 C4F88450 		str	r5, [r4, #132]
 179:C:/Users/geoma/Desktop/Scilab/scilab_test/USART_IT_F302R8_06/USART_IT_F302R8_06/Src\USART_IT_F302R8_06.c ****     block_USART_IT_F302R8_06.ng     = 0;
 166              		.loc 1 179 0
ARM GAS  C:\Users\geoma\AppData\Local\Temp\ccFPlC5d.s 			page 7


 167 00aa E567     		str	r5, [r4, #124]
 180:C:/Users/geoma/Desktop/Scilab/scilab_test/USART_IT_F302R8_06/USART_IT_F302R8_06/Src\USART_IT_F302R8_06.c ****     block_USART_IT_F302R8_06.nz     = 0;
 168              		.loc 1 180 0
 169 00ac 2561     		str	r5, [r4, #16]
 181:C:/Users/geoma/Desktop/Scilab/scilab_test/USART_IT_F302R8_06/USART_IT_F302R8_06/Src\USART_IT_F302R8_06.c ****     block_USART_IT_F302R8_06.noz    = 0;
 170              		.loc 1 181 0
 171 00ae A561     		str	r5, [r4, #24]
 182:C:/Users/geoma/Desktop/Scilab/scilab_test/USART_IT_F302R8_06/USART_IT_F302R8_06/Src\USART_IT_F302R8_06.c ****     block_USART_IT_F302R8_06.nrpar  = 0;
 172              		.loc 1 182 0
 173 00b0 E565     		str	r5, [r4, #92]
 183:C:/Users/geoma/Desktop/Scilab/scilab_test/USART_IT_F302R8_06/USART_IT_F302R8_06/Src\USART_IT_F302R8_06.c ****     block_USART_IT_F302R8_06.nopar  = 1;
 174              		.loc 1 183 0
 175 00b2 E666     		str	r6, [r4, #108]
 184:C:/Users/geoma/Desktop/Scilab/scilab_test/USART_IT_F302R8_06/USART_IT_F302R8_06/Src\USART_IT_F302R8_06.c ****     block_USART_IT_F302R8_06.nipar  = 0;
 176              		.loc 1 184 0
 177 00b4 6566     		str	r5, [r4, #100]
 185:C:/Users/geoma/Desktop/Scilab/scilab_test/USART_IT_F302R8_06/USART_IT_F302R8_06/Src\USART_IT_F302R8_06.c ****     block_USART_IT_F302R8_06.nin    = 0;
 178              		.loc 1 185 0
 179 00b6 E563     		str	r5, [r4, #60]
 186:C:/Users/geoma/Desktop/Scilab/scilab_test/USART_IT_F302R8_06/USART_IT_F302R8_06/Src\USART_IT_F302R8_06.c ****     block_USART_IT_F302R8_06.nout   = 1;
 180              		.loc 1 186 0
 181 00b8 A664     		str	r6, [r4, #72]
 187:C:/Users/geoma/Desktop/Scilab/scilab_test/USART_IT_F302R8_06/USART_IT_F302R8_06/Src\USART_IT_F302R8_06.c ****     block_USART_IT_F302R8_06.nevout = 0;
 182              		.loc 1 187 0
 183 00ba 6565     		str	r5, [r4, #84]
 188:C:/Users/geoma/Desktop/Scilab/scilab_test/USART_IT_F302R8_06/USART_IT_F302R8_06/Src\USART_IT_F302R8_06.c ****     block_USART_IT_F302R8_06.nmode  = 0;
 184              		.loc 1 188 0
 185 00bc C4F89450 		str	r5, [r4, #148]
 189:C:/Users/geoma/Desktop/Scilab/scilab_test/USART_IT_F302R8_06/USART_IT_F302R8_06/Src\USART_IT_F302R8_06.c ****     block_USART_IT_F302R8_06.evout = NULL;
 186              		.loc 1 189 0
 187 00c0 A565     		str	r5, [r4, #88]
 190:C:/Users/geoma/Desktop/Scilab/scilab_test/USART_IT_F302R8_06/USART_IT_F302R8_06/Src\USART_IT_F302R8_06.c ****     block_USART_IT_F302R8_06.inptr  = inptr;
 188              		.loc 1 190 0
 189 00c2 C4F844B0 		str	fp, [r4, #68]
 191:C:/Users/geoma/Desktop/Scilab/scilab_test/USART_IT_F302R8_06/USART_IT_F302R8_06/Src\USART_IT_F302R8_06.c ****     block_USART_IT_F302R8_06.insz = NULL;
 190              		.loc 1 191 0
 191 00c6 2564     		str	r5, [r4, #64]
 192:C:/Users/geoma/Desktop/Scilab/scilab_test/USART_IT_F302R8_06/USART_IT_F302R8_06/Src\USART_IT_F302R8_06.c ****     block_USART_IT_F302R8_06.outptr = outptr;
 192              		.loc 1 192 0
 193 00c8 C4F85090 		str	r9, [r4, #80]
 193:C:/Users/geoma/Desktop/Scilab/scilab_test/USART_IT_F302R8_06/USART_IT_F302R8_06/Src\USART_IT_F302R8_06.c ****     block_USART_IT_F302R8_06.outptr[0] = USART_IT_F302R8_06_block_outtbptr[0];
 194              		.loc 1 193 0
 195 00cc DAF80030 		ldr	r3, [r10]
 196 00d0 1B68     		ldr	r3, [r3]
 197 00d2 C9F80030 		str	r3, [r9]
 194:C:/Users/geoma/Desktop/Scilab/scilab_test/USART_IT_F302R8_06/USART_IT_F302R8_06/Src\USART_IT_F302R8_06.c ****     block_USART_IT_F302R8_06.outsz = outszptr;
 198              		.loc 1 194 0
 199 00d6 E764     		str	r7, [r4, #76]
 195:C:/Users/geoma/Desktop/Scilab/scilab_test/USART_IT_F302R8_06/USART_IT_F302R8_06/Src\USART_IT_F302R8_06.c ****     block_USART_IT_F302R8_06.outsz[0]  = 1;
 200              		.loc 1 195 0
 201 00d8 3E60     		str	r6, [r7]
 196:C:/Users/geoma/Desktop/Scilab/scilab_test/USART_IT_F302R8_06/USART_IT_F302R8_06/Src\USART_IT_F302R8_06.c ****     block_USART_IT_F302R8_06.outsz[1]  = 1;
 202              		.loc 1 196 0
 203 00da 7E60     		str	r6, [r7, #4]
 197:C:/Users/geoma/Desktop/Scilab/scilab_test/USART_IT_F302R8_06/USART_IT_F302R8_06/Src\USART_IT_F302R8_06.c ****     block_USART_IT_F302R8_06.outsz[2]  = SCSREAL_N;
 204              		.loc 1 197 0
 205 00dc 0A23     		movs	r3, #10
ARM GAS  C:\Users\geoma\AppData\Local\Temp\ccFPlC5d.s 			page 8


 206 00de BB60     		str	r3, [r7, #8]
 198:C:/Users/geoma/Desktop/Scilab/scilab_test/USART_IT_F302R8_06/USART_IT_F302R8_06/Src\USART_IT_F302R8_06.c ****     block_USART_IT_F302R8_06.z = &(z[0]);
 207              		.loc 1 198 0
 208 00e0 C4F81480 		str	r8, [r4, #20]
 199:C:/Users/geoma/Desktop/Scilab/scilab_test/USART_IT_F302R8_06/USART_IT_F302R8_06/Src\USART_IT_F302R8_06.c ****     if ((block_USART_IT_F302R8_06.oparptr = malloc(sizeof(void *)*block_USART_IT_F302R8_06.nopar))=
 209              		.loc 1 199 0
 210 00e4 0420     		movs	r0, #4
 211 00e6 FFF7FEFF 		bl	malloc
 212              	.LVL4:
 213 00ea 0546     		mov	r5, r0
 214 00ec A067     		str	r0, [r4, #120]
 215 00ee 0028     		cmp	r0, #0
 216 00f0 00F0BD80 		beq	.L4
 200:C:/Users/geoma/Desktop/Scilab/scilab_test/USART_IT_F302R8_06/USART_IT_F302R8_06/Src\USART_IT_F302R8_06.c ****     if ((block_USART_IT_F302R8_06.oparsz  = malloc(2*sizeof(int)*block_USART_IT_F302R8_06.nopar))==
 217              		.loc 1 200 0
 218 00f4 0820     		movs	r0, #8
 219 00f6 FFF7FEFF 		bl	malloc
 220              	.LVL5:
 221 00fa 2067     		str	r0, [r4, #112]
 222 00fc 0028     		cmp	r0, #0
 223 00fe 00F0B980 		beq	.L5
 201:C:/Users/geoma/Desktop/Scilab/scilab_test/USART_IT_F302R8_06/USART_IT_F302R8_06/Src\USART_IT_F302R8_06.c ****     if ((block_USART_IT_F302R8_06.opartyp = malloc(sizeof(int)*block_USART_IT_F302R8_06.nopar))== N
 224              		.loc 1 201 0
 225 0102 0420     		movs	r0, #4
 226 0104 FFF7FEFF 		bl	malloc
 227              	.LVL6:
 228 0108 6067     		str	r0, [r4, #116]
 229 010a 0028     		cmp	r0, #0
 230 010c 00F0B580 		beq	.L6
 202:C:/Users/geoma/Desktop/Scilab/scilab_test/USART_IT_F302R8_06/USART_IT_F302R8_06/Src\USART_IT_F302R8_06.c ****     block_USART_IT_F302R8_06.oparptr[0]   = (void *) OPAR_3;
 231              		.loc 1 202 0
 232 0110 674B     		ldr	r3, .L11+28
 233 0112 2B60     		str	r3, [r5]
 203:C:/Users/geoma/Desktop/Scilab/scilab_test/USART_IT_F302R8_06/USART_IT_F302R8_06/Src\USART_IT_F302R8_06.c ****     block_USART_IT_F302R8_06.oparsz[0]    = 1;
 234              		.loc 1 203 0
 235 0114 236F     		ldr	r3, [r4, #112]
 236 0116 3546     		mov	r5, r6
 237 0118 1E60     		str	r6, [r3]
 204:C:/Users/geoma/Desktop/Scilab/scilab_test/USART_IT_F302R8_06/USART_IT_F302R8_06/Src\USART_IT_F302R8_06.c ****     block_USART_IT_F302R8_06.oparsz[1]    = 1;
 238              		.loc 1 204 0
 239 011a 236F     		ldr	r3, [r4, #112]
 240 011c 5E60     		str	r6, [r3, #4]
 205:C:/Users/geoma/Desktop/Scilab/scilab_test/USART_IT_F302R8_06/USART_IT_F302R8_06/Src\USART_IT_F302R8_06.c ****     block_USART_IT_F302R8_06.opartyp[0]   = SCSREAL_N;
 241              		.loc 1 205 0
 242 011e 636F     		ldr	r3, [r4, #116]
 243 0120 0A26     		movs	r6, #10
 244 0122 1E60     		str	r6, [r3]
 206:C:/Users/geoma/Desktop/Scilab/scilab_test/USART_IT_F302R8_06/USART_IT_F302R8_06/Src\USART_IT_F302R8_06.c ****     block_USART_IT_F302R8_06.work = (void **)(((double *)work)+3);
 245              		.loc 1 206 0
 246 0124 5B4B     		ldr	r3, .L11
 247 0126 1B68     		ldr	r3, [r3]
 248 0128 1833     		adds	r3, r3, #24
 249 012a C4F89030 		str	r3, [r4, #144]
 207:C:/Users/geoma/Desktop/Scilab/scilab_test/USART_IT_F302R8_06/USART_IT_F302R8_06/Src\USART_IT_F302R8_06.c ****   }
 208:C:/Users/geoma/Desktop/Scilab/scilab_test/USART_IT_F302R8_06/USART_IT_F302R8_06/Src\USART_IT_F302R8_06.c ****   cstblk4_m(&block_USART_IT_F302R8_06,4);
 250              		.loc 1 208 0
 251 012e 2046     		mov	r0, r4
ARM GAS  C:\Users\geoma\AppData\Local\Temp\ccFPlC5d.s 			page 9


 252 0130 0421     		movs	r1, #4
 253 0132 FFF7FEFF 		bl	cstblk4_m
 254              	.LVL7:
 209:C:/Users/geoma/Desktop/Scilab/scilab_test/USART_IT_F302R8_06/USART_IT_F302R8_06/Src\USART_IT_F302R8_06.c ****   {
 210:C:/Users/geoma/Desktop/Scilab/scilab_test/USART_IT_F302R8_06/USART_IT_F302R8_06/Src\USART_IT_F302R8_06.c ****     free(block_USART_IT_F302R8_06.oparptr);
 255              		.loc 1 210 0
 256 0136 A06F     		ldr	r0, [r4, #120]
 257 0138 FFF7FEFF 		bl	free
 258              	.LVL8:
 211:C:/Users/geoma/Desktop/Scilab/scilab_test/USART_IT_F302R8_06/USART_IT_F302R8_06/Src\USART_IT_F302R8_06.c ****     free(block_USART_IT_F302R8_06.oparsz);
 259              		.loc 1 211 0
 260 013c 206F     		ldr	r0, [r4, #112]
 261 013e FFF7FEFF 		bl	free
 262              	.LVL9:
 212:C:/Users/geoma/Desktop/Scilab/scilab_test/USART_IT_F302R8_06/USART_IT_F302R8_06/Src\USART_IT_F302R8_06.c ****     free(block_USART_IT_F302R8_06.opartyp);
 263              		.loc 1 212 0
 264 0142 606F     		ldr	r0, [r4, #116]
 265 0144 FFF7FEFF 		bl	free
 266              	.LVL10:
 213:C:/Users/geoma/Desktop/Scilab/scilab_test/USART_IT_F302R8_06/USART_IT_F302R8_06/Src\USART_IT_F302R8_06.c ****   }
 214:C:/Users/geoma/Desktop/Scilab/scilab_test/USART_IT_F302R8_06/USART_IT_F302R8_06/Src\USART_IT_F302R8_06.c **** 
 215:C:/Users/geoma/Desktop/Scilab/scilab_test/USART_IT_F302R8_06/USART_IT_F302R8_06/Src\USART_IT_F302R8_06.c ****   //Call USART Initialization function defined in _USART.c file
 216:C:/Users/geoma/Desktop/Scilab/scilab_test/USART_IT_F302R8_06/USART_IT_F302R8_06/Src\USART_IT_F302R8_06.c ****   USART_Initialize();
 267              		.loc 1 216 0
 268 0148 FFF7FEFF 		bl	USART_Initialize
 269              	.LVL11:
 217:C:/Users/geoma/Desktop/Scilab/scilab_test/USART_IT_F302R8_06/USART_IT_F302R8_06/Src\USART_IT_F302R8_06.c **** 
 218:C:/Users/geoma/Desktop/Scilab/scilab_test/USART_IT_F302R8_06/USART_IT_F302R8_06/Src\USART_IT_F302R8_06.c ****     /* Initial blocks must be called with flag 1 */
 219:C:/Users/geoma/Desktop/Scilab/scilab_test/USART_IT_F302R8_06/USART_IT_F302R8_06/Src\USART_IT_F302R8_06.c ****     /* Call of 'cstblk4_m' (type 4 - blk nb 4 - uid ) */
 220:C:/Users/geoma/Desktop/Scilab/scilab_test/USART_IT_F302R8_06/USART_IT_F302R8_06/Src\USART_IT_F302R8_06.c ****     { 
 221:C:/Users/geoma/Desktop/Scilab/scilab_test/USART_IT_F302R8_06/USART_IT_F302R8_06/Src\USART_IT_F302R8_06.c ****       /* set blk struc. of 'cstblk4_m' (type 4 - blk nb 4 - uid ) */
 222:C:/Users/geoma/Desktop/Scilab/scilab_test/USART_IT_F302R8_06/USART_IT_F302R8_06/Src\USART_IT_F302R8_06.c ****       block_USART_IT_F302R8_06.type   = 4;
 270              		.loc 1 222 0
 271 014c 0420     		movs	r0, #4
 272 014e A060     		str	r0, [r4, #8]
 223:C:/Users/geoma/Desktop/Scilab/scilab_test/USART_IT_F302R8_06/USART_IT_F302R8_06/Src\USART_IT_F302R8_06.c ****       block_USART_IT_F302R8_06.ztyp   = 0;
 273              		.loc 1 223 0
 274 0150 0023     		movs	r3, #0
 275 0152 C4F88430 		str	r3, [r4, #132]
 224:C:/Users/geoma/Desktop/Scilab/scilab_test/USART_IT_F302R8_06/USART_IT_F302R8_06/Src\USART_IT_F302R8_06.c ****       block_USART_IT_F302R8_06.ng     = 0;
 276              		.loc 1 224 0
 277 0156 E367     		str	r3, [r4, #124]
 225:C:/Users/geoma/Desktop/Scilab/scilab_test/USART_IT_F302R8_06/USART_IT_F302R8_06/Src\USART_IT_F302R8_06.c ****       block_USART_IT_F302R8_06.nz     = 0;
 278              		.loc 1 225 0
 279 0158 2361     		str	r3, [r4, #16]
 226:C:/Users/geoma/Desktop/Scilab/scilab_test/USART_IT_F302R8_06/USART_IT_F302R8_06/Src\USART_IT_F302R8_06.c ****       block_USART_IT_F302R8_06.noz    = 0;
 280              		.loc 1 226 0
 281 015a A361     		str	r3, [r4, #24]
 227:C:/Users/geoma/Desktop/Scilab/scilab_test/USART_IT_F302R8_06/USART_IT_F302R8_06/Src\USART_IT_F302R8_06.c ****       block_USART_IT_F302R8_06.nrpar  = 0;
 282              		.loc 1 227 0
 283 015c E365     		str	r3, [r4, #92]
 228:C:/Users/geoma/Desktop/Scilab/scilab_test/USART_IT_F302R8_06/USART_IT_F302R8_06/Src\USART_IT_F302R8_06.c ****       block_USART_IT_F302R8_06.nopar  = 1;
 284              		.loc 1 228 0
 285 015e E566     		str	r5, [r4, #108]
 229:C:/Users/geoma/Desktop/Scilab/scilab_test/USART_IT_F302R8_06/USART_IT_F302R8_06/Src\USART_IT_F302R8_06.c ****       block_USART_IT_F302R8_06.nipar  = 0;
 286              		.loc 1 229 0
 287 0160 6366     		str	r3, [r4, #100]
ARM GAS  C:\Users\geoma\AppData\Local\Temp\ccFPlC5d.s 			page 10


 230:C:/Users/geoma/Desktop/Scilab/scilab_test/USART_IT_F302R8_06/USART_IT_F302R8_06/Src\USART_IT_F302R8_06.c ****       block_USART_IT_F302R8_06.nin    = 0;
 288              		.loc 1 230 0
 289 0162 E363     		str	r3, [r4, #60]
 231:C:/Users/geoma/Desktop/Scilab/scilab_test/USART_IT_F302R8_06/USART_IT_F302R8_06/Src\USART_IT_F302R8_06.c ****       block_USART_IT_F302R8_06.nout   = 1;
 290              		.loc 1 231 0
 291 0164 A564     		str	r5, [r4, #72]
 232:C:/Users/geoma/Desktop/Scilab/scilab_test/USART_IT_F302R8_06/USART_IT_F302R8_06/Src\USART_IT_F302R8_06.c ****       block_USART_IT_F302R8_06.nevout = 0;
 292              		.loc 1 232 0
 293 0166 6365     		str	r3, [r4, #84]
 233:C:/Users/geoma/Desktop/Scilab/scilab_test/USART_IT_F302R8_06/USART_IT_F302R8_06/Src\USART_IT_F302R8_06.c ****       block_USART_IT_F302R8_06.nmode  = 0;
 294              		.loc 1 233 0
 295 0168 C4F89430 		str	r3, [r4, #148]
 234:C:/Users/geoma/Desktop/Scilab/scilab_test/USART_IT_F302R8_06/USART_IT_F302R8_06/Src\USART_IT_F302R8_06.c ****       block_USART_IT_F302R8_06.evout = NULL;
 296              		.loc 1 234 0
 297 016c A365     		str	r3, [r4, #88]
 235:C:/Users/geoma/Desktop/Scilab/scilab_test/USART_IT_F302R8_06/USART_IT_F302R8_06/Src\USART_IT_F302R8_06.c ****       block_USART_IT_F302R8_06.inptr  = inptr;
 298              		.loc 1 235 0
 299 016e C4F844B0 		str	fp, [r4, #68]
 236:C:/Users/geoma/Desktop/Scilab/scilab_test/USART_IT_F302R8_06/USART_IT_F302R8_06/Src\USART_IT_F302R8_06.c ****       block_USART_IT_F302R8_06.insz = NULL;
 300              		.loc 1 236 0
 301 0172 2364     		str	r3, [r4, #64]
 237:C:/Users/geoma/Desktop/Scilab/scilab_test/USART_IT_F302R8_06/USART_IT_F302R8_06/Src\USART_IT_F302R8_06.c ****       block_USART_IT_F302R8_06.outptr = outptr;
 302              		.loc 1 237 0
 303 0174 C4F85090 		str	r9, [r4, #80]
 238:C:/Users/geoma/Desktop/Scilab/scilab_test/USART_IT_F302R8_06/USART_IT_F302R8_06/Src\USART_IT_F302R8_06.c ****       block_USART_IT_F302R8_06.outptr[0] = USART_IT_F302R8_06_block_outtbptr[0];
 304              		.loc 1 238 0
 305 0178 DAF80020 		ldr	r2, [r10]
 306 017c 1268     		ldr	r2, [r2]
 307 017e C9F80020 		str	r2, [r9]
 239:C:/Users/geoma/Desktop/Scilab/scilab_test/USART_IT_F302R8_06/USART_IT_F302R8_06/Src\USART_IT_F302R8_06.c ****       block_USART_IT_F302R8_06.outsz = outszptr;
 308              		.loc 1 239 0
 309 0182 E764     		str	r7, [r4, #76]
 240:C:/Users/geoma/Desktop/Scilab/scilab_test/USART_IT_F302R8_06/USART_IT_F302R8_06/Src\USART_IT_F302R8_06.c ****       block_USART_IT_F302R8_06.outsz[0]  = 1;
 310              		.loc 1 240 0
 311 0184 3D60     		str	r5, [r7]
 241:C:/Users/geoma/Desktop/Scilab/scilab_test/USART_IT_F302R8_06/USART_IT_F302R8_06/Src\USART_IT_F302R8_06.c ****       block_USART_IT_F302R8_06.outsz[1]  = 1;
 312              		.loc 1 241 0
 313 0186 7D60     		str	r5, [r7, #4]
 242:C:/Users/geoma/Desktop/Scilab/scilab_test/USART_IT_F302R8_06/USART_IT_F302R8_06/Src\USART_IT_F302R8_06.c ****       block_USART_IT_F302R8_06.outsz[2]  = SCSREAL_N;
 314              		.loc 1 242 0
 315 0188 BE60     		str	r6, [r7, #8]
 243:C:/Users/geoma/Desktop/Scilab/scilab_test/USART_IT_F302R8_06/USART_IT_F302R8_06/Src\USART_IT_F302R8_06.c ****       block_USART_IT_F302R8_06.z = &(z[0]);
 316              		.loc 1 243 0
 317 018a C4F81480 		str	r8, [r4, #20]
 244:C:/Users/geoma/Desktop/Scilab/scilab_test/USART_IT_F302R8_06/USART_IT_F302R8_06/Src\USART_IT_F302R8_06.c ****       if ((block_USART_IT_F302R8_06.oparptr = malloc(sizeof(void *)*block_USART_IT_F302R8_06.nopar)
 318              		.loc 1 244 0
 319 018e FFF7FEFF 		bl	malloc
 320              	.LVL12:
 321 0192 0546     		mov	r5, r0
 322 0194 A067     		str	r0, [r4, #120]
 323 0196 0028     		cmp	r0, #0
 324 0198 72D0     		beq	.L7
 245:C:/Users/geoma/Desktop/Scilab/scilab_test/USART_IT_F302R8_06/USART_IT_F302R8_06/Src\USART_IT_F302R8_06.c ****       if ((block_USART_IT_F302R8_06.oparsz  = malloc(2*sizeof(int)*block_USART_IT_F302R8_06.nopar))
 325              		.loc 1 245 0
 326 019a 0820     		movs	r0, #8
 327 019c FFF7FEFF 		bl	malloc
 328              	.LVL13:
ARM GAS  C:\Users\geoma\AppData\Local\Temp\ccFPlC5d.s 			page 11


 329 01a0 2067     		str	r0, [r4, #112]
 330 01a2 0028     		cmp	r0, #0
 331 01a4 6FD0     		beq	.L8
 246:C:/Users/geoma/Desktop/Scilab/scilab_test/USART_IT_F302R8_06/USART_IT_F302R8_06/Src\USART_IT_F302R8_06.c ****       if ((block_USART_IT_F302R8_06.opartyp = malloc(sizeof(int)*block_USART_IT_F302R8_06.nopar))==
 332              		.loc 1 246 0
 333 01a6 0420     		movs	r0, #4
 334 01a8 FFF7FEFF 		bl	malloc
 335              	.LVL14:
 336 01ac 6067     		str	r0, [r4, #116]
 337 01ae 0028     		cmp	r0, #0
 338 01b0 6CD0     		beq	.L9
 247:C:/Users/geoma/Desktop/Scilab/scilab_test/USART_IT_F302R8_06/USART_IT_F302R8_06/Src\USART_IT_F302R8_06.c ****       block_USART_IT_F302R8_06.oparptr[0]   = (void *) OPAR_3;
 339              		.loc 1 247 0
 340 01b2 3F4B     		ldr	r3, .L11+28
 341 01b4 2B60     		str	r3, [r5]
 248:C:/Users/geoma/Desktop/Scilab/scilab_test/USART_IT_F302R8_06/USART_IT_F302R8_06/Src\USART_IT_F302R8_06.c ****       block_USART_IT_F302R8_06.oparsz[0]    = 1;
 342              		.loc 1 248 0
 343 01b6 236F     		ldr	r3, [r4, #112]
 344 01b8 0125     		movs	r5, #1
 345 01ba 1D60     		str	r5, [r3]
 249:C:/Users/geoma/Desktop/Scilab/scilab_test/USART_IT_F302R8_06/USART_IT_F302R8_06/Src\USART_IT_F302R8_06.c ****       block_USART_IT_F302R8_06.oparsz[1]    = 1;
 346              		.loc 1 249 0
 347 01bc 236F     		ldr	r3, [r4, #112]
 348 01be 5D60     		str	r5, [r3, #4]
 250:C:/Users/geoma/Desktop/Scilab/scilab_test/USART_IT_F302R8_06/USART_IT_F302R8_06/Src\USART_IT_F302R8_06.c ****       block_USART_IT_F302R8_06.opartyp[0]   = SCSREAL_N;
 349              		.loc 1 250 0
 350 01c0 636F     		ldr	r3, [r4, #116]
 351 01c2 3746     		mov	r7, r6
 352 01c4 1E60     		str	r6, [r3]
 251:C:/Users/geoma/Desktop/Scilab/scilab_test/USART_IT_F302R8_06/USART_IT_F302R8_06/Src\USART_IT_F302R8_06.c ****       block_USART_IT_F302R8_06.work = (void **)(((double *)work)+3);
 353              		.loc 1 251 0
 354 01c6 334E     		ldr	r6, .L11
 355 01c8 3368     		ldr	r3, [r6]
 356 01ca 1833     		adds	r3, r3, #24
 357 01cc C4F89030 		str	r3, [r4, #144]
 252:C:/Users/geoma/Desktop/Scilab/scilab_test/USART_IT_F302R8_06/USART_IT_F302R8_06/Src\USART_IT_F302R8_06.c ****     }
 253:C:/Users/geoma/Desktop/Scilab/scilab_test/USART_IT_F302R8_06/USART_IT_F302R8_06/Src\USART_IT_F302R8_06.c ****     cstblk4_m(&block_USART_IT_F302R8_06,1);
 358              		.loc 1 253 0
 359 01d0 2046     		mov	r0, r4
 360 01d2 2946     		mov	r1, r5
 361 01d4 FFF7FEFF 		bl	cstblk4_m
 362              	.LVL15:
 254:C:/Users/geoma/Desktop/Scilab/scilab_test/USART_IT_F302R8_06/USART_IT_F302R8_06/Src\USART_IT_F302R8_06.c ****     cstblk4_m(&block_USART_IT_F302R8_06,2);
 363              		.loc 1 254 0
 364 01d8 2046     		mov	r0, r4
 365 01da 0221     		movs	r1, #2
 366 01dc FFF7FEFF 		bl	cstblk4_m
 367              	.LVL16:
 255:C:/Users/geoma/Desktop/Scilab/scilab_test/USART_IT_F302R8_06/USART_IT_F302R8_06/Src\USART_IT_F302R8_06.c ****     {
 256:C:/Users/geoma/Desktop/Scilab/scilab_test/USART_IT_F302R8_06/USART_IT_F302R8_06/Src\USART_IT_F302R8_06.c ****       free(block_USART_IT_F302R8_06.oparptr);
 368              		.loc 1 256 0
 369 01e0 A06F     		ldr	r0, [r4, #120]
 370 01e2 FFF7FEFF 		bl	free
 371              	.LVL17:
 257:C:/Users/geoma/Desktop/Scilab/scilab_test/USART_IT_F302R8_06/USART_IT_F302R8_06/Src\USART_IT_F302R8_06.c ****       free(block_USART_IT_F302R8_06.oparsz);
 372              		.loc 1 257 0
 373 01e6 206F     		ldr	r0, [r4, #112]
ARM GAS  C:\Users\geoma\AppData\Local\Temp\ccFPlC5d.s 			page 12


 374 01e8 FFF7FEFF 		bl	free
 375              	.LVL18:
 258:C:/Users/geoma/Desktop/Scilab/scilab_test/USART_IT_F302R8_06/USART_IT_F302R8_06/Src\USART_IT_F302R8_06.c ****       free(block_USART_IT_F302R8_06.opartyp);
 376              		.loc 1 258 0
 377 01ec 606F     		ldr	r0, [r4, #116]
 378 01ee FFF7FEFF 		bl	free
 379              	.LVL19:
 259:C:/Users/geoma/Desktop/Scilab/scilab_test/USART_IT_F302R8_06/USART_IT_F302R8_06/Src\USART_IT_F302R8_06.c ****     }
 260:C:/Users/geoma/Desktop/Scilab/scilab_test/USART_IT_F302R8_06/USART_IT_F302R8_06/Src\USART_IT_F302R8_06.c **** 
 261:C:/Users/geoma/Desktop/Scilab/scilab_test/USART_IT_F302R8_06/USART_IT_F302R8_06/Src\USART_IT_F302R8_06.c ****     /* Call of 'convert' (type 4 - blk nb 3 - uid ) */
 262:C:/Users/geoma/Desktop/Scilab/scilab_test/USART_IT_F302R8_06/USART_IT_F302R8_06/Src\USART_IT_F302R8_06.c ****     { 
 263:C:/Users/geoma/Desktop/Scilab/scilab_test/USART_IT_F302R8_06/USART_IT_F302R8_06/Src\USART_IT_F302R8_06.c ****       /* set blk struc. of 'convert' (type 4 - blk nb 3 - uid ) */
 264:C:/Users/geoma/Desktop/Scilab/scilab_test/USART_IT_F302R8_06/USART_IT_F302R8_06/Src\USART_IT_F302R8_06.c ****       block_USART_IT_F302R8_06.type   = 4;
 380              		.loc 1 264 0
 381 01f2 0423     		movs	r3, #4
 382 01f4 A360     		str	r3, [r4, #8]
 265:C:/Users/geoma/Desktop/Scilab/scilab_test/USART_IT_F302R8_06/USART_IT_F302R8_06/Src\USART_IT_F302R8_06.c ****       block_USART_IT_F302R8_06.ztyp   = 0;
 383              		.loc 1 265 0
 384 01f6 0023     		movs	r3, #0
 385 01f8 C4F88430 		str	r3, [r4, #132]
 266:C:/Users/geoma/Desktop/Scilab/scilab_test/USART_IT_F302R8_06/USART_IT_F302R8_06/Src\USART_IT_F302R8_06.c ****       block_USART_IT_F302R8_06.ng     = 0;
 386              		.loc 1 266 0
 387 01fc E367     		str	r3, [r4, #124]
 267:C:/Users/geoma/Desktop/Scilab/scilab_test/USART_IT_F302R8_06/USART_IT_F302R8_06/Src\USART_IT_F302R8_06.c ****       block_USART_IT_F302R8_06.nz     = 0;
 388              		.loc 1 267 0
 389 01fe 2361     		str	r3, [r4, #16]
 268:C:/Users/geoma/Desktop/Scilab/scilab_test/USART_IT_F302R8_06/USART_IT_F302R8_06/Src\USART_IT_F302R8_06.c ****       block_USART_IT_F302R8_06.noz    = 0;
 390              		.loc 1 268 0
 391 0200 A361     		str	r3, [r4, #24]
 269:C:/Users/geoma/Desktop/Scilab/scilab_test/USART_IT_F302R8_06/USART_IT_F302R8_06/Src\USART_IT_F302R8_06.c ****       block_USART_IT_F302R8_06.nrpar  = 0;
 392              		.loc 1 269 0
 393 0202 E365     		str	r3, [r4, #92]
 270:C:/Users/geoma/Desktop/Scilab/scilab_test/USART_IT_F302R8_06/USART_IT_F302R8_06/Src\USART_IT_F302R8_06.c ****       block_USART_IT_F302R8_06.nopar  = 0;
 394              		.loc 1 270 0
 395 0204 E366     		str	r3, [r4, #108]
 271:C:/Users/geoma/Desktop/Scilab/scilab_test/USART_IT_F302R8_06/USART_IT_F302R8_06/Src\USART_IT_F302R8_06.c ****       block_USART_IT_F302R8_06.nipar  = 1;
 396              		.loc 1 271 0
 397 0206 6566     		str	r5, [r4, #100]
 272:C:/Users/geoma/Desktop/Scilab/scilab_test/USART_IT_F302R8_06/USART_IT_F302R8_06/Src\USART_IT_F302R8_06.c ****       block_USART_IT_F302R8_06.nin    = 1;
 398              		.loc 1 272 0
 399 0208 E563     		str	r5, [r4, #60]
 273:C:/Users/geoma/Desktop/Scilab/scilab_test/USART_IT_F302R8_06/USART_IT_F302R8_06/Src\USART_IT_F302R8_06.c ****       block_USART_IT_F302R8_06.nout   = 1;
 400              		.loc 1 273 0
 401 020a A564     		str	r5, [r4, #72]
 274:C:/Users/geoma/Desktop/Scilab/scilab_test/USART_IT_F302R8_06/USART_IT_F302R8_06/Src\USART_IT_F302R8_06.c ****       block_USART_IT_F302R8_06.nevout = 0;
 402              		.loc 1 274 0
 403 020c 6365     		str	r3, [r4, #84]
 275:C:/Users/geoma/Desktop/Scilab/scilab_test/USART_IT_F302R8_06/USART_IT_F302R8_06/Src\USART_IT_F302R8_06.c ****       block_USART_IT_F302R8_06.nmode  = 0;
 404              		.loc 1 275 0
 405 020e C4F89430 		str	r3, [r4, #148]
 276:C:/Users/geoma/Desktop/Scilab/scilab_test/USART_IT_F302R8_06/USART_IT_F302R8_06/Src\USART_IT_F302R8_06.c ****       block_USART_IT_F302R8_06.evout = NULL;
 406              		.loc 1 276 0
 407 0212 A365     		str	r3, [r4, #88]
 277:C:/Users/geoma/Desktop/Scilab/scilab_test/USART_IT_F302R8_06/USART_IT_F302R8_06/Src\USART_IT_F302R8_06.c ****       block_USART_IT_F302R8_06.inptr  = inptr;
 408              		.loc 1 277 0
 409 0214 C4F844B0 		str	fp, [r4, #68]
 278:C:/Users/geoma/Desktop/Scilab/scilab_test/USART_IT_F302R8_06/USART_IT_F302R8_06/Src\USART_IT_F302R8_06.c ****       block_USART_IT_F302R8_06.inptr[0]  = USART_IT_F302R8_06_block_outtbptr[0];
ARM GAS  C:\Users\geoma\AppData\Local\Temp\ccFPlC5d.s 			page 13


 410              		.loc 1 278 0
 411 0218 DAF80020 		ldr	r2, [r10]
 412 021c 1168     		ldr	r1, [r2]
 413 021e CBF80010 		str	r1, [fp]
 279:C:/Users/geoma/Desktop/Scilab/scilab_test/USART_IT_F302R8_06/USART_IT_F302R8_06/Src\USART_IT_F302R8_06.c ****       block_USART_IT_F302R8_06.insz = inszptr;
 414              		.loc 1 279 0
 415 0222 204B     		ldr	r3, .L11+16
 416 0224 2364     		str	r3, [r4, #64]
 280:C:/Users/geoma/Desktop/Scilab/scilab_test/USART_IT_F302R8_06/USART_IT_F302R8_06/Src\USART_IT_F302R8_06.c ****       block_USART_IT_F302R8_06.insz[0]   = 1;
 417              		.loc 1 280 0
 418 0226 1D60     		str	r5, [r3]
 281:C:/Users/geoma/Desktop/Scilab/scilab_test/USART_IT_F302R8_06/USART_IT_F302R8_06/Src\USART_IT_F302R8_06.c ****       block_USART_IT_F302R8_06.insz[1]   = 1;
 419              		.loc 1 281 0
 420 0228 5D60     		str	r5, [r3, #4]
 282:C:/Users/geoma/Desktop/Scilab/scilab_test/USART_IT_F302R8_06/USART_IT_F302R8_06/Src\USART_IT_F302R8_06.c ****       block_USART_IT_F302R8_06.insz[2]   = SCSREAL_N;
 421              		.loc 1 282 0
 422 022a 9F60     		str	r7, [r3, #8]
 283:C:/Users/geoma/Desktop/Scilab/scilab_test/USART_IT_F302R8_06/USART_IT_F302R8_06/Src\USART_IT_F302R8_06.c ****       block_USART_IT_F302R8_06.outptr = outptr;
 423              		.loc 1 283 0
 424 022c C4F85090 		str	r9, [r4, #80]
 284:C:/Users/geoma/Desktop/Scilab/scilab_test/USART_IT_F302R8_06/USART_IT_F302R8_06/Src\USART_IT_F302R8_06.c ****       block_USART_IT_F302R8_06.outptr[0] = USART_IT_F302R8_06_block_outtbptr[1];
 425              		.loc 1 284 0
 426 0230 5268     		ldr	r2, [r2, #4]
 427 0232 C9F80020 		str	r2, [r9]
 285:C:/Users/geoma/Desktop/Scilab/scilab_test/USART_IT_F302R8_06/USART_IT_F302R8_06/Src\USART_IT_F302R8_06.c ****       block_USART_IT_F302R8_06.outsz = outszptr;
 428              		.loc 1 285 0
 429 0236 1C4B     		ldr	r3, .L11+20
 430 0238 E364     		str	r3, [r4, #76]
 286:C:/Users/geoma/Desktop/Scilab/scilab_test/USART_IT_F302R8_06/USART_IT_F302R8_06/Src\USART_IT_F302R8_06.c ****       block_USART_IT_F302R8_06.outsz[0]  = 1;
 431              		.loc 1 286 0
 432 023a 1D60     		str	r5, [r3]
 287:C:/Users/geoma/Desktop/Scilab/scilab_test/USART_IT_F302R8_06/USART_IT_F302R8_06/Src\USART_IT_F302R8_06.c ****       block_USART_IT_F302R8_06.outsz[1]  = 1;
 433              		.loc 1 287 0
 434 023c 5D60     		str	r5, [r3, #4]
 288:C:/Users/geoma/Desktop/Scilab/scilab_test/USART_IT_F302R8_06/USART_IT_F302R8_06/Src\USART_IT_F302R8_06.c ****       block_USART_IT_F302R8_06.outsz[2]  = SCSUINT16_N;
 435              		.loc 1 288 0
 436 023e 4FF44B72 		mov	r2, #812
 437 0242 9A60     		str	r2, [r3, #8]
 289:C:/Users/geoma/Desktop/Scilab/scilab_test/USART_IT_F302R8_06/USART_IT_F302R8_06/Src\USART_IT_F302R8_06.c ****       block_USART_IT_F302R8_06.z = &(z[0]);
 438              		.loc 1 289 0
 439 0244 C4F81480 		str	r8, [r4, #20]
 290:C:/Users/geoma/Desktop/Scilab/scilab_test/USART_IT_F302R8_06/USART_IT_F302R8_06/Src\USART_IT_F302R8_06.c ****       block_USART_IT_F302R8_06.ipar=(int*) &(IPAR1[0]);
 440              		.loc 1 290 0
 441 0248 184B     		ldr	r3, .L11+24
 442 024a A366     		str	r3, [r4, #104]
 291:C:/Users/geoma/Desktop/Scilab/scilab_test/USART_IT_F302R8_06/USART_IT_F302R8_06/Src\USART_IT_F302R8_06.c ****       block_USART_IT_F302R8_06.work = (void **)(((double *)work)+2);
 443              		.loc 1 291 0
 444 024c 3368     		ldr	r3, [r6]
 445 024e 1033     		adds	r3, r3, #16
 446 0250 C4F89030 		str	r3, [r4, #144]
 292:C:/Users/geoma/Desktop/Scilab/scilab_test/USART_IT_F302R8_06/USART_IT_F302R8_06/Src\USART_IT_F302R8_06.c ****     }
 293:C:/Users/geoma/Desktop/Scilab/scilab_test/USART_IT_F302R8_06/USART_IT_F302R8_06/Src\USART_IT_F302R8_06.c ****     convert(&block_USART_IT_F302R8_06,1);
 447              		.loc 1 293 0
 448 0254 2046     		mov	r0, r4
 449 0256 2946     		mov	r1, r5
 450 0258 FFF7FEFF 		bl	convert
 451              	.LVL20:
ARM GAS  C:\Users\geoma\AppData\Local\Temp\ccFPlC5d.s 			page 14


 294:C:/Users/geoma/Desktop/Scilab/scilab_test/USART_IT_F302R8_06/USART_IT_F302R8_06/Src\USART_IT_F302R8_06.c ****     convert(&block_USART_IT_F302R8_06,2);
 452              		.loc 1 294 0
 453 025c 2046     		mov	r0, r4
 454 025e 0221     		movs	r1, #2
 455 0260 FFF7FEFF 		bl	convert
 456              	.LVL21:
 295:C:/Users/geoma/Desktop/Scilab/scilab_test/USART_IT_F302R8_06/USART_IT_F302R8_06/Src\USART_IT_F302R8_06.c **** 
 296:C:/Users/geoma/Desktop/Scilab/scilab_test/USART_IT_F302R8_06/USART_IT_F302R8_06/Src\USART_IT_F302R8_06.c **** 
 297:C:/Users/geoma/Desktop/Scilab/scilab_test/USART_IT_F302R8_06/USART_IT_F302R8_06/Src\USART_IT_F302R8_06.c ****     /* Dumy variable not used in embedded word but necessary for current version based on PC scicos
 298:C:/Users/geoma/Desktop/Scilab/scilab_test/USART_IT_F302R8_06/USART_IT_F302R8_06/Src\USART_IT_F302R8_06.c ****     /* local_flag set to output update */
 299:C:/Users/geoma/Desktop/Scilab/scilab_test/USART_IT_F302R8_06/USART_IT_F302R8_06/Src\USART_IT_F302R8_06.c ****     local_flag = 1;
 457              		.loc 1 299 0
 458 0264 134B     		ldr	r3, .L11+32
 459 0266 1D60     		str	r5, [r3]
 300:C:/Users/geoma/Desktop/Scilab/scilab_test/USART_IT_F302R8_06/USART_IT_F302R8_06/Src\USART_IT_F302R8_06.c ****     double t; //Simulation time (not used)
 301:C:/Users/geoma/Desktop/Scilab/scilab_test/USART_IT_F302R8_06/USART_IT_F302R8_06/Src\USART_IT_F302R8_06.c **** return(1);
 460              		.loc 1 301 0
 461 0268 2846     		mov	r0, r5
 462 026a BDE8F88F 		pop	{r3, r4, r5, r6, r7, r8, r9, r10, fp, pc}
 463              	.L4:
 199:C:/Users/geoma/Desktop/Scilab/scilab_test/USART_IT_F302R8_06/USART_IT_F302R8_06/Src\USART_IT_F302R8_06.c ****     if ((block_USART_IT_F302R8_06.oparsz  = malloc(2*sizeof(int)*block_USART_IT_F302R8_06.nopar))==
 464              		.loc 1 199 0
 465 026e 0020     		movs	r0, #0
 466 0270 BDE8F88F 		pop	{r3, r4, r5, r6, r7, r8, r9, r10, fp, pc}
 467              	.L5:
 200:C:/Users/geoma/Desktop/Scilab/scilab_test/USART_IT_F302R8_06/USART_IT_F302R8_06/Src\USART_IT_F302R8_06.c ****     if ((block_USART_IT_F302R8_06.opartyp = malloc(sizeof(int)*block_USART_IT_F302R8_06.nopar))== N
 468              		.loc 1 200 0
 469 0274 0020     		movs	r0, #0
 470 0276 BDE8F88F 		pop	{r3, r4, r5, r6, r7, r8, r9, r10, fp, pc}
 471              	.L6:
 201:C:/Users/geoma/Desktop/Scilab/scilab_test/USART_IT_F302R8_06/USART_IT_F302R8_06/Src\USART_IT_F302R8_06.c ****     block_USART_IT_F302R8_06.oparptr[0]   = (void *) OPAR_3;
 472              		.loc 1 201 0
 473 027a 0020     		movs	r0, #0
 474 027c BDE8F88F 		pop	{r3, r4, r5, r6, r7, r8, r9, r10, fp, pc}
 475              	.L7:
 244:C:/Users/geoma/Desktop/Scilab/scilab_test/USART_IT_F302R8_06/USART_IT_F302R8_06/Src\USART_IT_F302R8_06.c ****       if ((block_USART_IT_F302R8_06.oparsz  = malloc(2*sizeof(int)*block_USART_IT_F302R8_06.nopar))
 476              		.loc 1 244 0
 477 0280 0020     		movs	r0, #0
 478 0282 BDE8F88F 		pop	{r3, r4, r5, r6, r7, r8, r9, r10, fp, pc}
 479              	.L8:
 245:C:/Users/geoma/Desktop/Scilab/scilab_test/USART_IT_F302R8_06/USART_IT_F302R8_06/Src\USART_IT_F302R8_06.c ****       if ((block_USART_IT_F302R8_06.opartyp = malloc(sizeof(int)*block_USART_IT_F302R8_06.nopar))==
 480              		.loc 1 245 0
 481 0286 0020     		movs	r0, #0
 482 0288 BDE8F88F 		pop	{r3, r4, r5, r6, r7, r8, r9, r10, fp, pc}
 483              	.L9:
 246:C:/Users/geoma/Desktop/Scilab/scilab_test/USART_IT_F302R8_06/USART_IT_F302R8_06/Src\USART_IT_F302R8_06.c ****       block_USART_IT_F302R8_06.oparptr[0]   = (void *) OPAR_3;
 484              		.loc 1 246 0
 485 028c 0020     		movs	r0, #0
 302:C:/Users/geoma/Desktop/Scilab/scilab_test/USART_IT_F302R8_06/USART_IT_F302R8_06/Src\USART_IT_F302R8_06.c **** } //End of function USART_IT_F302R8_06_Initialize()
 486              		.loc 1 302 0
 487 028e BDE8F88F 		pop	{r3, r4, r5, r6, r7, r8, r9, r10, fp, pc}
 488              	.L12:
 489 0292 00BF     		.align	2
 490              	.L11:
 491 0294 00000000 		.word	work
 492 0298 00000000 		.word	.LANCHOR1
 493 029c 00000000 		.word	.LANCHOR2
ARM GAS  C:\Users\geoma\AppData\Local\Temp\ccFPlC5d.s 			page 15


 494 02a0 00000000 		.word	block_USART_IT_F302R8_06
 495 02a4 00000000 		.word	inszptr
 496 02a8 00000000 		.word	outszptr
 497 02ac 00000000 		.word	.LANCHOR3
 498 02b0 00000000 		.word	.LANCHOR4
 499 02b4 00000000 		.word	.LANCHOR5
 500 02b8 00000000 		.word	.LANCHOR0
 501 02bc 00000000 		.word	USART_IT_F302R8_06_block_outtbptr
 502 02c0 00000000 		.word	inptr
 503 02c4 00000000 		.word	outptr
 504              		.cfi_endproc
 505              	.LFE157:
 507              		.section	.text.USART_IT_F302R8_06_Step1,"ax",%progbits
 508              		.align	2
 509              		.global	USART_IT_F302R8_06_Step1
 510              		.thumb
 511              		.thumb_func
 513              	USART_IT_F302R8_06_Step1:
 514              	.LFB158:
 303:C:/Users/geoma/Desktop/Scilab/scilab_test/USART_IT_F302R8_06/USART_IT_F302R8_06/Src\USART_IT_F302R8_06.c **** /*------------------------------  Step1 function called every 1 solver loop(s)*/
 304:C:/Users/geoma/Desktop/Scilab/scilab_test/USART_IT_F302R8_06/USART_IT_F302R8_06/Src\USART_IT_F302R8_06.c **** void USART_IT_F302R8_06_Step1()
 305:C:/Users/geoma/Desktop/Scilab/scilab_test/USART_IT_F302R8_06/USART_IT_F302R8_06/Src\USART_IT_F302R8_06.c **** {
 515              		.loc 1 305 0
 516              		.cfi_startproc
 517              		@ args = 0, pretend = 0, frame = 0
 518              		@ frame_needed = 0, uses_anonymous_args = 0
 519 0000 08B5     		push	{r3, lr}
 520              	.LCFI1:
 521              		.cfi_def_cfa_offset 8
 522              		.cfi_offset 3, -8
 523              		.cfi_offset 14, -4
 524              	.LVL22:
 306:C:/Users/geoma/Desktop/Scilab/scilab_test/USART_IT_F302R8_06/USART_IT_F302R8_06/Src\USART_IT_F302R8_06.c ****   // double t;
 307:C:/Users/geoma/Desktop/Scilab/scilab_test/USART_IT_F302R8_06/USART_IT_F302R8_06/Src\USART_IT_F302R8_06.c ****   int nevprt=1;
 308:C:/Users/geoma/Desktop/Scilab/scilab_test/USART_IT_F302R8_06/USART_IT_F302R8_06/Src\USART_IT_F302R8_06.c ****   // int local_flag = 1; //Output update
 309:C:/Users/geoma/Desktop/Scilab/scilab_test/USART_IT_F302R8_06/USART_IT_F302R8_06/Src\USART_IT_F302R8_06.c ****   int nport;
 310:C:/Users/geoma/Desktop/Scilab/scilab_test/USART_IT_F302R8_06/USART_IT_F302R8_06/Src\USART_IT_F302R8_06.c **** 
 311:C:/Users/geoma/Desktop/Scilab/scilab_test/USART_IT_F302R8_06/USART_IT_F302R8_06/Src\USART_IT_F302R8_06.c **** /*---------------continuous activation state */
 312:C:/Users/geoma/Desktop/Scilab/scilab_test/USART_IT_F302R8_06/USART_IT_F302R8_06/Src\USART_IT_F302R8_06.c **** /*---------------STM32 block(s) without activation state  */
 313:C:/Users/geoma/Desktop/Scilab/scilab_test/USART_IT_F302R8_06/USART_IT_F302R8_06/Src\USART_IT_F302R8_06.c **** /*---------------STM32 solver step: NoEvt NoIn NoOut*/
 314:C:/Users/geoma/Desktop/Scilab/scilab_test/USART_IT_F302R8_06/USART_IT_F302R8_06/Src\USART_IT_F302R8_06.c **** /*---------------STM32 solver step: NoEvt NoIn Out*/
 315:C:/Users/geoma/Desktop/Scilab/scilab_test/USART_IT_F302R8_06/USART_IT_F302R8_06/Src\USART_IT_F302R8_06.c **** /*---------------STM32 solver step: NoEvt In Out*/
 316:C:/Users/geoma/Desktop/Scilab/scilab_test/USART_IT_F302R8_06/USART_IT_F302R8_06/Src\USART_IT_F302R8_06.c **** /*---------------STM32 solver step: NoEvt In NoOut*/
 317:C:/Users/geoma/Desktop/Scilab/scilab_test/USART_IT_F302R8_06/USART_IT_F302R8_06/Src\USART_IT_F302R8_06.c **** /*---------------FLAG: 1  */
 318:C:/Users/geoma/Desktop/Scilab/scilab_test/USART_IT_F302R8_06/USART_IT_F302R8_06/Src\USART_IT_F302R8_06.c ****     /* Output computation */
 319:C:/Users/geoma/Desktop/Scilab/scilab_test/USART_IT_F302R8_06/USART_IT_F302R8_06/Src\USART_IT_F302R8_06.c ****     if(USART2_RxDataLink.rxStatus == USART_RX_OFF)
 525              		.loc 1 319 0
 526 0002 104B     		ldr	r3, .L17
 527 0004 9B79     		ldrb	r3, [r3, #6]	@ zero_extendqisi2
 528 0006 DBB2     		uxtb	r3, r3
 529 0008 022B     		cmp	r3, #2
 530 000a 0CD1     		bne	.L14
 320:C:/Users/geoma/Desktop/Scilab/scilab_test/USART_IT_F302R8_06/USART_IT_F302R8_06/Src\USART_IT_F302R8_06.c ****     {
 321:C:/Users/geoma/Desktop/Scilab/scilab_test/USART_IT_F302R8_06/USART_IT_F302R8_06/Src\USART_IT_F302R8_06.c ****        USART2_RxDataLink.ptRcv = G_USART2_RxDataBuffer;
 531              		.loc 1 321 0
 532 000c 0D4B     		ldr	r3, .L17
 533 000e 0E49     		ldr	r1, .L17+4
ARM GAS  C:\Users\geoma\AppData\Local\Temp\ccFPlC5d.s 			page 16


 534 0010 1960     		str	r1, [r3]
 322:C:/Users/geoma/Desktop/Scilab/scilab_test/USART_IT_F302R8_06/USART_IT_F302R8_06/Src\USART_IT_F302R8_06.c ****        USART2_RxDataLink.nbRcv = 0;
 535              		.loc 1 322 0
 536 0012 0022     		movs	r2, #0
 537 0014 9A80     		strh	r2, [r3, #4]	@ movhi
 323:C:/Users/geoma/Desktop/Scilab/scilab_test/USART_IT_F302R8_06/USART_IT_F302R8_06/Src\USART_IT_F302R8_06.c ****         USART2_RxDataLink.rxStatus = USART_RX_ON;
 538              		.loc 1 323 0
 539 0016 9A71     		strb	r2, [r3, #6]
 324:C:/Users/geoma/Desktop/Scilab/scilab_test/USART_IT_F302R8_06/USART_IT_F302R8_06/Src\USART_IT_F302R8_06.c ****         HAL_UART_Receive_IT(&huart2, G_USART2_RxDataBuffer, *(uint16_t*)USART_IT_F302R8_06_block_ou
 540              		.loc 1 324 0
 541 0018 0C4B     		ldr	r3, .L17+8
 542 001a 1B68     		ldr	r3, [r3]
 543 001c 5B68     		ldr	r3, [r3, #4]
 544 001e 0C48     		ldr	r0, .L17+12
 545 0020 1A88     		ldrh	r2, [r3]
 546 0022 FFF7FEFF 		bl	HAL_UART_Receive_IT
 547              	.LVL23:
 548              	.L14:
 325:C:/Users/geoma/Desktop/Scilab/scilab_test/USART_IT_F302R8_06/USART_IT_F302R8_06/Src\USART_IT_F302R8_06.c ****     }
 326:C:/Users/geoma/Desktop/Scilab/scilab_test/USART_IT_F302R8_06/USART_IT_F302R8_06/Src\USART_IT_F302R8_06.c ****     
 327:C:/Users/geoma/Desktop/Scilab/scilab_test/USART_IT_F302R8_06/USART_IT_F302R8_06/Src\USART_IT_F302R8_06.c ****     if(USART2_RxDataLink.rxStatus == USART_RX_OK)
 549              		.loc 1 327 0
 550 0026 074B     		ldr	r3, .L17
 551 0028 9B79     		ldrb	r3, [r3, #6]	@ zero_extendqisi2
 552 002a DBB2     		uxtb	r3, r3
 553 002c 012B     		cmp	r3, #1
 554 002e 07D1     		bne	.L13
 328:C:/Users/geoma/Desktop/Scilab/scilab_test/USART_IT_F302R8_06/USART_IT_F302R8_06/Src\USART_IT_F302R8_06.c ****     {
 329:C:/Users/geoma/Desktop/Scilab/scilab_test/USART_IT_F302R8_06/USART_IT_F302R8_06/Src\USART_IT_F302R8_06.c ****        USART2_RxDataLink.nbRcv = *(uint16_t*)USART_IT_F302R8_06_block_outtbptr[1];
 555              		.loc 1 329 0
 556 0030 064B     		ldr	r3, .L17+8
 557 0032 1B68     		ldr	r3, [r3]
 558 0034 5B68     		ldr	r3, [r3, #4]
 559 0036 1A88     		ldrh	r2, [r3]
 560 0038 024B     		ldr	r3, .L17
 561 003a 9A80     		strh	r2, [r3, #4]	@ movhi
 330:C:/Users/geoma/Desktop/Scilab/scilab_test/USART_IT_F302R8_06/USART_IT_F302R8_06/Src\USART_IT_F302R8_06.c ****        USART2_RxDataLink.rxStatus = USART_RX_OFF;
 562              		.loc 1 330 0
 563 003c 0222     		movs	r2, #2
 564 003e 9A71     		strb	r2, [r3, #6]
 565              	.L13:
 566 0040 08BD     		pop	{r3, pc}
 567              	.L18:
 568 0042 00BF     		.align	2
 569              	.L17:
 570 0044 00000000 		.word	USART2_RxDataLink
 571 0048 00000000 		.word	G_USART2_RxDataBuffer
 572 004c 00000000 		.word	USART_IT_F302R8_06_block_outtbptr
 573 0050 00000000 		.word	huart2
 574              		.cfi_endproc
 575              	.LFE158:
 577              		.section	.text.get_scicos_time,"ax",%progbits
 578              		.align	2
 579              		.global	get_scicos_time
 580              		.thumb
 581              		.thumb_func
 583              	get_scicos_time:
ARM GAS  C:\Users\geoma\AppData\Local\Temp\ccFPlC5d.s 			page 17


 584              	.LFB159:
 331:C:/Users/geoma/Desktop/Scilab/scilab_test/USART_IT_F302R8_06/USART_IT_F302R8_06/Src\USART_IT_F302R8_06.c ****     }
 332:C:/Users/geoma/Desktop/Scilab/scilab_test/USART_IT_F302R8_06/USART_IT_F302R8_06/Src\USART_IT_F302R8_06.c ****     
 333:C:/Users/geoma/Desktop/Scilab/scilab_test/USART_IT_F302R8_06/USART_IT_F302R8_06/Src\USART_IT_F302R8_06.c **** 
 334:C:/Users/geoma/Desktop/Scilab/scilab_test/USART_IT_F302R8_06/USART_IT_F302R8_06/Src\USART_IT_F302R8_06.c **** 
 335:C:/Users/geoma/Desktop/Scilab/scilab_test/USART_IT_F302R8_06/USART_IT_F302R8_06/Src\USART_IT_F302R8_06.c ****   } //End of USART_IT_F302R8_06_Step1 function
 336:C:/Users/geoma/Desktop/Scilab/scilab_test/USART_IT_F302R8_06/USART_IT_F302R8_06/Src\USART_IT_F302R8_06.c **** 
 337:C:/Users/geoma/Desktop/Scilab/scilab_test/USART_IT_F302R8_06/USART_IT_F302R8_06/Src\USART_IT_F302R8_06.c **** 
 338:C:/Users/geoma/Desktop/Scilab/scilab_test/USART_IT_F302R8_06/USART_IT_F302R8_06/Src\USART_IT_F302R8_06.c **** double get_scicos_time()
 339:C:/Users/geoma/Desktop/Scilab/scilab_test/USART_IT_F302R8_06/USART_IT_F302R8_06/Src\USART_IT_F302R8_06.c **** {
 585              		.loc 1 339 0
 586              		.cfi_startproc
 587              		@ args = 0, pretend = 0, frame = 0
 588              		@ frame_needed = 0, uses_anonymous_args = 0
 589              		@ link register save eliminated.
 340:C:/Users/geoma/Desktop/Scilab/scilab_test/USART_IT_F302R8_06/USART_IT_F302R8_06/Src\USART_IT_F302R8_06.c ****   return sci_time;
 341:C:/Users/geoma/Desktop/Scilab/scilab_test/USART_IT_F302R8_06/USART_IT_F302R8_06/Src\USART_IT_F302R8_06.c **** }
 590              		.loc 1 341 0
 591 0000 014B     		ldr	r3, .L20
 592 0002 93ED000B 		fldd	d0, [r3]
 593 0006 7047     		bx	lr
 594              	.L21:
 595              		.align	2
 596              	.L20:
 597 0008 00000000 		.word	sci_time
 598              		.cfi_endproc
 599              	.LFE159:
 601              		.section	.text.set_scicos_time,"ax",%progbits
 602              		.align	2
 603              		.global	set_scicos_time
 604              		.thumb
 605              		.thumb_func
 607              	set_scicos_time:
 608              	.LFB160:
 342:C:/Users/geoma/Desktop/Scilab/scilab_test/USART_IT_F302R8_06/USART_IT_F302R8_06/Src\USART_IT_F302R8_06.c **** 
 343:C:/Users/geoma/Desktop/Scilab/scilab_test/USART_IT_F302R8_06/USART_IT_F302R8_06/Src\USART_IT_F302R8_06.c **** void set_scicos_time(double t)
 344:C:/Users/geoma/Desktop/Scilab/scilab_test/USART_IT_F302R8_06/USART_IT_F302R8_06/Src\USART_IT_F302R8_06.c **** {
 609              		.loc 1 344 0
 610              		.cfi_startproc
 611              		@ args = 0, pretend = 0, frame = 0
 612              		@ frame_needed = 0, uses_anonymous_args = 0
 613              		@ link register save eliminated.
 614              	.LVL24:
 345:C:/Users/geoma/Desktop/Scilab/scilab_test/USART_IT_F302R8_06/USART_IT_F302R8_06/Src\USART_IT_F302R8_06.c ****  sci_time = t;
 615              		.loc 1 345 0
 616 0000 014B     		ldr	r3, .L23
 617 0002 83ED000B 		fstd	d0, [r3]
 618 0006 7047     		bx	lr
 619              	.L24:
 620              		.align	2
 621              	.L23:
 622 0008 00000000 		.word	sci_time
 623              		.cfi_endproc
 624              	.LFE160:
 626              		.section	.text.get_phase_simulation,"ax",%progbits
 627              		.align	2
 628              		.global	get_phase_simulation
ARM GAS  C:\Users\geoma\AppData\Local\Temp\ccFPlC5d.s 			page 18


 629              		.thumb
 630              		.thumb_func
 632              	get_phase_simulation:
 633              	.LFB161:
 346:C:/Users/geoma/Desktop/Scilab/scilab_test/USART_IT_F302R8_06/USART_IT_F302R8_06/Src\USART_IT_F302R8_06.c **** }
 347:C:/Users/geoma/Desktop/Scilab/scilab_test/USART_IT_F302R8_06/USART_IT_F302R8_06/Src\USART_IT_F302R8_06.c **** 
 348:C:/Users/geoma/Desktop/Scilab/scilab_test/USART_IT_F302R8_06/USART_IT_F302R8_06/Src\USART_IT_F302R8_06.c **** int get_phase_simulation()
 349:C:/Users/geoma/Desktop/Scilab/scilab_test/USART_IT_F302R8_06/USART_IT_F302R8_06/Src\USART_IT_F302R8_06.c **** {
 634              		.loc 1 349 0
 635              		.cfi_startproc
 636              		@ args = 0, pretend = 0, frame = 0
 637              		@ frame_needed = 0, uses_anonymous_args = 0
 638              		@ link register save eliminated.
 350:C:/Users/geoma/Desktop/Scilab/scilab_test/USART_IT_F302R8_06/USART_IT_F302R8_06/Src\USART_IT_F302R8_06.c ****   return 1;
 351:C:/Users/geoma/Desktop/Scilab/scilab_test/USART_IT_F302R8_06/USART_IT_F302R8_06/Src\USART_IT_F302R8_06.c **** }
 639              		.loc 1 351 0
 640 0000 0120     		movs	r0, #1
 641 0002 7047     		bx	lr
 642              		.cfi_endproc
 643              	.LFE161:
 645              		.section	.text.set_block_error,"ax",%progbits
 646              		.align	2
 647              		.global	set_block_error
 648              		.thumb
 649              		.thumb_func
 651              	set_block_error:
 652              	.LFB162:
 352:C:/Users/geoma/Desktop/Scilab/scilab_test/USART_IT_F302R8_06/USART_IT_F302R8_06/Src\USART_IT_F302R8_06.c **** 
 353:C:/Users/geoma/Desktop/Scilab/scilab_test/USART_IT_F302R8_06/USART_IT_F302R8_06/Src\USART_IT_F302R8_06.c **** 
 354:C:/Users/geoma/Desktop/Scilab/scilab_test/USART_IT_F302R8_06/USART_IT_F302R8_06/Src\USART_IT_F302R8_06.c **** 
 355:C:/Users/geoma/Desktop/Scilab/scilab_test/USART_IT_F302R8_06/USART_IT_F302R8_06/Src\USART_IT_F302R8_06.c **** void set_block_error(int err)
 356:C:/Users/geoma/Desktop/Scilab/scilab_test/USART_IT_F302R8_06/USART_IT_F302R8_06/Src\USART_IT_F302R8_06.c **** {
 653              		.loc 1 356 0
 654              		.cfi_startproc
 655              		@ args = 0, pretend = 0, frame = 0
 656              		@ frame_needed = 0, uses_anonymous_args = 0
 657              		@ link register save eliminated.
 658              	.LVL25:
 659 0000 7047     		bx	lr
 660              		.cfi_endproc
 661              	.LFE162:
 663 0002 00BF     		.section	.text.scicos_malloc,"ax",%progbits
 664              		.align	2
 665              		.global	scicos_malloc
 666              		.thumb
 667              		.thumb_func
 669              	scicos_malloc:
 670              	.LFB163:
 357:C:/Users/geoma/Desktop/Scilab/scilab_test/USART_IT_F302R8_06/USART_IT_F302R8_06/Src\USART_IT_F302R8_06.c ****   return;
 358:C:/Users/geoma/Desktop/Scilab/scilab_test/USART_IT_F302R8_06/USART_IT_F302R8_06/Src\USART_IT_F302R8_06.c **** }
 359:C:/Users/geoma/Desktop/Scilab/scilab_test/USART_IT_F302R8_06/USART_IT_F302R8_06/Src\USART_IT_F302R8_06.c **** 
 360:C:/Users/geoma/Desktop/Scilab/scilab_test/USART_IT_F302R8_06/USART_IT_F302R8_06/Src\USART_IT_F302R8_06.c **** void * scicos_malloc(size_t size)
 361:C:/Users/geoma/Desktop/Scilab/scilab_test/USART_IT_F302R8_06/USART_IT_F302R8_06/Src\USART_IT_F302R8_06.c **** {
 671              		.loc 1 361 0
 672              		.cfi_startproc
 673              		@ args = 0, pretend = 0, frame = 0
 674              		@ frame_needed = 0, uses_anonymous_args = 0
ARM GAS  C:\Users\geoma\AppData\Local\Temp\ccFPlC5d.s 			page 19


 675              	.LVL26:
 676              		.loc 1 361 0
 677 0000 08B5     		push	{r3, lr}
 678              	.LCFI2:
 679              		.cfi_def_cfa_offset 8
 680              		.cfi_offset 3, -8
 681              		.cfi_offset 14, -4
 362:C:/Users/geoma/Desktop/Scilab/scilab_test/USART_IT_F302R8_06/USART_IT_F302R8_06/Src\USART_IT_F302R8_06.c ****   return malloc(size);
 682              		.loc 1 362 0
 683 0002 FFF7FEFF 		bl	malloc
 684              	.LVL27:
 363:C:/Users/geoma/Desktop/Scilab/scilab_test/USART_IT_F302R8_06/USART_IT_F302R8_06/Src\USART_IT_F302R8_06.c **** }
 685              		.loc 1 363 0
 686 0006 08BD     		pop	{r3, pc}
 687              		.cfi_endproc
 688              	.LFE163:
 690              		.section	.text.scicos_free,"ax",%progbits
 691              		.align	2
 692              		.global	scicos_free
 693              		.thumb
 694              		.thumb_func
 696              	scicos_free:
 697              	.LFB164:
 364:C:/Users/geoma/Desktop/Scilab/scilab_test/USART_IT_F302R8_06/USART_IT_F302R8_06/Src\USART_IT_F302R8_06.c **** 
 365:C:/Users/geoma/Desktop/Scilab/scilab_test/USART_IT_F302R8_06/USART_IT_F302R8_06/Src\USART_IT_F302R8_06.c **** void scicos_free(void *p)
 366:C:/Users/geoma/Desktop/Scilab/scilab_test/USART_IT_F302R8_06/USART_IT_F302R8_06/Src\USART_IT_F302R8_06.c **** {
 698              		.loc 1 366 0
 699              		.cfi_startproc
 700              		@ args = 0, pretend = 0, frame = 0
 701              		@ frame_needed = 0, uses_anonymous_args = 0
 702              	.LVL28:
 703 0000 08B5     		push	{r3, lr}
 704              	.LCFI3:
 705              		.cfi_def_cfa_offset 8
 706              		.cfi_offset 3, -8
 707              		.cfi_offset 14, -4
 367:C:/Users/geoma/Desktop/Scilab/scilab_test/USART_IT_F302R8_06/USART_IT_F302R8_06/Src\USART_IT_F302R8_06.c ****   free(p);
 708              		.loc 1 367 0
 709 0002 FFF7FEFF 		bl	free
 710              	.LVL29:
 711 0006 08BD     		pop	{r3, pc}
 712              		.cfi_endproc
 713              	.LFE164:
 715              		.section	.text.do_cold_restart,"ax",%progbits
 716              		.align	2
 717              		.global	do_cold_restart
 718              		.thumb
 719              		.thumb_func
 721              	do_cold_restart:
 722              	.LFB165:
 368:C:/Users/geoma/Desktop/Scilab/scilab_test/USART_IT_F302R8_06/USART_IT_F302R8_06/Src\USART_IT_F302R8_06.c **** }
 369:C:/Users/geoma/Desktop/Scilab/scilab_test/USART_IT_F302R8_06/USART_IT_F302R8_06/Src\USART_IT_F302R8_06.c **** 
 370:C:/Users/geoma/Desktop/Scilab/scilab_test/USART_IT_F302R8_06/USART_IT_F302R8_06/Src\USART_IT_F302R8_06.c **** void do_cold_restart()
 371:C:/Users/geoma/Desktop/Scilab/scilab_test/USART_IT_F302R8_06/USART_IT_F302R8_06/Src\USART_IT_F302R8_06.c **** {
 723              		.loc 1 371 0
 724              		.cfi_startproc
 725              		@ args = 0, pretend = 0, frame = 0
ARM GAS  C:\Users\geoma\AppData\Local\Temp\ccFPlC5d.s 			page 20


 726              		@ frame_needed = 0, uses_anonymous_args = 0
 727              		@ link register save eliminated.
 728 0000 7047     		bx	lr
 729              		.cfi_endproc
 730              	.LFE165:
 732 0002 00BF     		.section	.text.sciprint,"ax",%progbits
 733              		.align	2
 734              		.global	sciprint
 735              		.thumb
 736              		.thumb_func
 738              	sciprint:
 739              	.LFB166:
 372:C:/Users/geoma/Desktop/Scilab/scilab_test/USART_IT_F302R8_06/USART_IT_F302R8_06/Src\USART_IT_F302R8_06.c ****   return;
 373:C:/Users/geoma/Desktop/Scilab/scilab_test/USART_IT_F302R8_06/USART_IT_F302R8_06/Src\USART_IT_F302R8_06.c **** }
 374:C:/Users/geoma/Desktop/Scilab/scilab_test/USART_IT_F302R8_06/USART_IT_F302R8_06/Src\USART_IT_F302R8_06.c **** 
 375:C:/Users/geoma/Desktop/Scilab/scilab_test/USART_IT_F302R8_06/USART_IT_F302R8_06/Src\USART_IT_F302R8_06.c **** void sciprint (char *fmt)
 376:C:/Users/geoma/Desktop/Scilab/scilab_test/USART_IT_F302R8_06/USART_IT_F302R8_06/Src\USART_IT_F302R8_06.c **** {
 740              		.loc 1 376 0
 741              		.cfi_startproc
 742              		@ args = 0, pretend = 0, frame = 0
 743              		@ frame_needed = 0, uses_anonymous_args = 0
 744              		@ link register save eliminated.
 745              	.LVL30:
 746 0000 7047     		bx	lr
 747              		.cfi_endproc
 748              	.LFE166:
 750              		.global	outtb_1
 751              		.global	outtb_2
 752              		.comm	outszptr,24,4
 753              		.comm	outptr,8,4
 754              		.comm	inszptr,24,4
 755              		.comm	inptr,8,4
 756              		.comm	evoutptr,4,4
 757              		.global	z
 758              		.global	IPAR1
 759              		.global	RPAR1
 760              		.global	size_SCSREAL_N_1x1
 761              		.comm	sci_time,8,8
 762              		.comm	t,8,8
 763              		.global	local_flag
 764              		.comm	block_USART_IT_F302R8_06,160,4
 765              		.comm	USART_IT_F302R8_06_block_outtbptr,4,4
 766              		.comm	work,4,4
 767 0002 00BF     		.section	.data.local_flag,"aw",%progbits
 768              		.align	2
 769              		.set	.LANCHOR5,. + 0
 772              	local_flag:
 773 0000 04000000 		.word	4
 774              		.section	.rodata.size_SCSREAL_N_1x1,"a",%progbits
 775              		.align	2
 778              	size_SCSREAL_N_1x1:
 779 0000 01000000 		.word	1
 780 0004 01000000 		.word	1
 781 0008 0A000000 		.word	10
 782              		.section	.rodata.IPAR1,"a",%progbits
 783              		.align	2
 784              		.set	.LANCHOR3,. + 0
ARM GAS  C:\Users\geoma\AppData\Local\Temp\ccFPlC5d.s 			page 21


 787              	IPAR1:
 788 0000 06000000 		.word	6
 789              		.section	.rodata.RPAR1,"a",%progbits
 790              		.align	3
 793              	RPAR1:
 794 0000 00000000 		.word	0
 795 0004 0000E03F 		.word	1071644672
 796              		.section	.bss.z,"aw",%nobits
 797              		.align	3
 798              		.set	.LANCHOR0,. + 0
 801              	z:
 802 0000 00000000 		.space	96
 802      00000000 
 802      00000000 
 802      00000000 
 802      00000000 
 803              		.section	.data.OPAR_3,"aw",%progbits
 804              		.align	2
 805              		.set	.LANCHOR4,. + 0
 808              	OPAR_3:
 809 0000 00008040 		.word	1082130432
 810              		.section	.bss.outtb_1,"aw",%nobits
 811              		.align	2
 812              		.set	.LANCHOR2,. + 0
 815              	outtb_1:
 816 0000 00000000 		.space	4
 817              		.section	.bss.outtb_2,"aw",%nobits
 818              		.align	2
 819              		.set	.LANCHOR1,. + 0
 822              	outtb_2:
 823 0000 0000     		.space	2
 824              		.text
 825              	.Letext0:
 826              		.file 2 "c:\\program files (x86)\\gnu tools arm embedded\\4.9 2015q2\\lib\\gcc\\arm-none-eabi\\4.9
 827              		.file 3 "c:\\program files (x86)\\gnu tools arm embedded\\4.9 2015q2\\arm-none-eabi\\include\\mach
 828              		.file 4 "c:\\program files (x86)\\gnu tools arm embedded\\4.9 2015q2\\arm-none-eabi\\include\\sys\
 829              		.file 5 "Drivers/CMSIS/Device/ST/STM32F3xx/Include/stm32f302x8.h"
 830              		.file 6 "Drivers/STM32F3xx_HAL_Driver/Inc/stm32f3xx_hal_def.h"
 831              		.file 7 "Drivers/STM32F3xx_HAL_Driver/Inc/stm32f3xx_hal_dma.h"
 832              		.file 8 "Drivers/STM32F3xx_HAL_Driver/Inc/stm32f3xx_hal_uart.h"
 833              		.file 9 "../../toolboxes/STM32_toolbox_1-1/scicos_blocks/includes/scicos_block4.h"
 834              		.file 10 "USART_IT_F302R8_06/Inc/USART_IT_F302R8_06_USART.h"
 835              		.file 11 "Drivers/CMSIS/Include/core_cm4.h"
 836              		.file 12 "c:\\program files (x86)\\gnu tools arm embedded\\4.9 2015q2\\arm-none-eabi\\include\\std
 837              		.file 13 "USART_IT_F302R8_06/Inc/USART_IT_F302R8_06_GPIO.h"
ARM GAS  C:\Users\geoma\AppData\Local\Temp\ccFPlC5d.s 			page 22

