ARM GAS  C:\Users\geoma\AppData\Local\Temp\ccpZNVPJ.s 			page 1


   1              		.syntax unified
   2              		.cpu cortex-m4
   3              		.eabi_attribute 27, 1
   4              		.eabi_attribute 28, 1
   5              		.fpu fpv4-sp-d16
   6              		.eabi_attribute 20, 1
   7              		.eabi_attribute 21, 1
   8              		.eabi_attribute 23, 3
   9              		.eabi_attribute 24, 1
  10              		.eabi_attribute 25, 1
  11              		.eabi_attribute 26, 1
  12              		.eabi_attribute 30, 1
  13              		.eabi_attribute 34, 1
  14              		.eabi_attribute 18, 4
  15              		.thumb
  16              		.file	"convert.c"
  17              		.text
  18              	.Ltext0:
  19              		.cfi_sections	.debug_frame
  20              		.global	__aeabi_dmul
  21              		.global	__aeabi_d2iz
  22              		.global	__aeabi_i2d
  23              		.global	__aeabi_dsub
  24              		.global	__aeabi_dcmpgt
  25              		.global	__aeabi_dcmpge
  26              		.global	__aeabi_d2uiz
  27              		.global	__aeabi_ui2d
  28              		.global	__aeabi_dcmplt
  29              		.section	.text.convert,"ax",%progbits
  30              		.align	2
  31              		.global	convert
  32              		.thumb
  33              		.thumb_func
  35              	convert:
  36              	.LFB156:
  37              		.file 1 "C:/Users/geoma/Desktop/Scilab/toolboxes/STM32_toolbox_1-1/scicos_blocks/src/c/convert.c"
   1:C:/Users/geoma/Desktop/Scilab/toolboxes/STM32_toolbox_1-1/scicos_blocks/src/c\convert.c **** /*  Scicos
   2:C:/Users/geoma/Desktop/Scilab/toolboxes/STM32_toolbox_1-1/scicos_blocks/src/c\convert.c **** *
   3:C:/Users/geoma/Desktop/Scilab/toolboxes/STM32_toolbox_1-1/scicos_blocks/src/c\convert.c **** *  Copyright (C) INRIA - METALAU Project <scicos@inria.fr>
   4:C:/Users/geoma/Desktop/Scilab/toolboxes/STM32_toolbox_1-1/scicos_blocks/src/c\convert.c **** *
   5:C:/Users/geoma/Desktop/Scilab/toolboxes/STM32_toolbox_1-1/scicos_blocks/src/c\convert.c **** * This program is free software; you can redistribute it and/or modify
   6:C:/Users/geoma/Desktop/Scilab/toolboxes/STM32_toolbox_1-1/scicos_blocks/src/c\convert.c **** * it under the terms of the GNU General Public License as published by
   7:C:/Users/geoma/Desktop/Scilab/toolboxes/STM32_toolbox_1-1/scicos_blocks/src/c\convert.c **** * the Free Software Foundation; either version 2 of the License, or
   8:C:/Users/geoma/Desktop/Scilab/toolboxes/STM32_toolbox_1-1/scicos_blocks/src/c\convert.c **** * (at your option) any later version.
   9:C:/Users/geoma/Desktop/Scilab/toolboxes/STM32_toolbox_1-1/scicos_blocks/src/c\convert.c **** *
  10:C:/Users/geoma/Desktop/Scilab/toolboxes/STM32_toolbox_1-1/scicos_blocks/src/c\convert.c **** * This program is distributed in the hope that it will be useful,
  11:C:/Users/geoma/Desktop/Scilab/toolboxes/STM32_toolbox_1-1/scicos_blocks/src/c\convert.c **** * but WITHOUT ANY WARRANTY; without even the implied warranty of
  12:C:/Users/geoma/Desktop/Scilab/toolboxes/STM32_toolbox_1-1/scicos_blocks/src/c\convert.c **** * MERCHANTABILITY or FITNESS FOR A PARTICULAR PURPOSE.  See the
  13:C:/Users/geoma/Desktop/Scilab/toolboxes/STM32_toolbox_1-1/scicos_blocks/src/c\convert.c **** * GNU General Public License for more details.
  14:C:/Users/geoma/Desktop/Scilab/toolboxes/STM32_toolbox_1-1/scicos_blocks/src/c\convert.c **** *
  15:C:/Users/geoma/Desktop/Scilab/toolboxes/STM32_toolbox_1-1/scicos_blocks/src/c\convert.c **** * You should have received a copy of the GNU General Public License
  16:C:/Users/geoma/Desktop/Scilab/toolboxes/STM32_toolbox_1-1/scicos_blocks/src/c\convert.c **** * along with this program; if not, write to the Free Software
  17:C:/Users/geoma/Desktop/Scilab/toolboxes/STM32_toolbox_1-1/scicos_blocks/src/c\convert.c **** * Foundation, Inc., 51 Franklin Street, Fifth Floor, Boston, MA 02110-1301, USA.
  18:C:/Users/geoma/Desktop/Scilab/toolboxes/STM32_toolbox_1-1/scicos_blocks/src/c\convert.c **** *
  19:C:/Users/geoma/Desktop/Scilab/toolboxes/STM32_toolbox_1-1/scicos_blocks/src/c\convert.c **** * See the file ./license.txt
  20:C:/Users/geoma/Desktop/Scilab/toolboxes/STM32_toolbox_1-1/scicos_blocks/src/c\convert.c **** */
  21:C:/Users/geoma/Desktop/Scilab/toolboxes/STM32_toolbox_1-1/scicos_blocks/src/c\convert.c **** /*--------------------------------------------------------------------------*/
ARM GAS  C:\Users\geoma\AppData\Local\Temp\ccpZNVPJ.s 			page 2


  22:C:/Users/geoma/Desktop/Scilab/toolboxes/STM32_toolbox_1-1/scicos_blocks/src/c\convert.c **** #ifndef __aeabi_assert
  23:C:/Users/geoma/Desktop/Scilab/toolboxes/STM32_toolbox_1-1/scicos_blocks/src/c\convert.c **** #define __aeabi_assert assert_failed
  24:C:/Users/geoma/Desktop/Scilab/toolboxes/STM32_toolbox_1-1/scicos_blocks/src/c\convert.c **** #endif
  25:C:/Users/geoma/Desktop/Scilab/toolboxes/STM32_toolbox_1-1/scicos_blocks/src/c\convert.c **** #include <math.h>
  26:C:/Users/geoma/Desktop/Scilab/toolboxes/STM32_toolbox_1-1/scicos_blocks/src/c\convert.c **** #include <string.h>
  27:C:/Users/geoma/Desktop/Scilab/toolboxes/STM32_toolbox_1-1/scicos_blocks/src/c\convert.c **** //#include <memory.h>
  28:C:/Users/geoma/Desktop/Scilab/toolboxes/STM32_toolbox_1-1/scicos_blocks/src/c\convert.c **** //#include "scicos.h"
  29:C:/Users/geoma/Desktop/Scilab/toolboxes/STM32_toolbox_1-1/scicos_blocks/src/c\convert.c **** //#include "machine.h"
  30:C:/Users/geoma/Desktop/Scilab/toolboxes/STM32_toolbox_1-1/scicos_blocks/src/c\convert.c **** #include "scicos_block4.h"
  31:C:/Users/geoma/Desktop/Scilab/toolboxes/STM32_toolbox_1-1/scicos_blocks/src/c\convert.c **** //#include "localization.h"
  32:C:/Users/geoma/Desktop/Scilab/toolboxes/STM32_toolbox_1-1/scicos_blocks/src/c\convert.c **** //#include "MALLOC.h"
  33:C:/Users/geoma/Desktop/Scilab/toolboxes/STM32_toolbox_1-1/scicos_blocks/src/c\convert.c **** #include "dynlib_scicos_blocks.h"
  34:C:/Users/geoma/Desktop/Scilab/toolboxes/STM32_toolbox_1-1/scicos_blocks/src/c\convert.c **** 
  35:C:/Users/geoma/Desktop/Scilab/toolboxes/STM32_toolbox_1-1/scicos_blocks/src/c\convert.c **** 
  36:C:/Users/geoma/Desktop/Scilab/toolboxes/STM32_toolbox_1-1/scicos_blocks/src/c\convert.c **** /*--------------------------------------------------------------------------*/
  37:C:/Users/geoma/Desktop/Scilab/toolboxes/STM32_toolbox_1-1/scicos_blocks/src/c\convert.c **** SCICOS_BLOCKS_IMPEXP void convert(scicos_block *block, int flag)
  38:C:/Users/geoma/Desktop/Scilab/toolboxes/STM32_toolbox_1-1/scicos_blocks/src/c\convert.c **** {
  38              		.loc 1 38 0
  39              		.cfi_startproc
  40              		@ args = 0, pretend = 0, frame = 168
  41              		@ frame_needed = 0, uses_anonymous_args = 0
  42              	.LVL0:
  43 0000 2DE9F04F 		push	{r4, r5, r6, r7, r8, r9, r10, fp, lr}
  44              	.LCFI0:
  45              		.cfi_def_cfa_offset 36
  46              		.cfi_offset 4, -36
  47              		.cfi_offset 5, -32
  48              		.cfi_offset 6, -28
  49              		.cfi_offset 7, -24
  50              		.cfi_offset 8, -20
  51              		.cfi_offset 9, -16
  52              		.cfi_offset 10, -12
  53              		.cfi_offset 11, -8
  54              		.cfi_offset 14, -4
  55 0004 2DED028B 		fstmfdd	sp!, {d8}
  56              	.LCFI1:
  57              		.cfi_def_cfa_offset 44
  58              		.cfi_offset 80, -44
  59              		.cfi_offset 81, -40
  60 0008 ABB0     		sub	sp, sp, #172
  61              	.LCFI2:
  62              		.cfi_def_cfa_offset 216
  63              	.LVL1:
  39:C:/Users/geoma/Desktop/Scilab/toolboxes/STM32_toolbox_1-1/scicos_blocks/src/c\convert.c ****     int m = 0, n = 0, i = 0;
  40:C:/Users/geoma/Desktop/Scilab/toolboxes/STM32_toolbox_1-1/scicos_blocks/src/c\convert.c ****     int *ipar = NULL;
  41:C:/Users/geoma/Desktop/Scilab/toolboxes/STM32_toolbox_1-1/scicos_blocks/src/c\convert.c ****     double v = 0., w = 0., k = 0.;
  42:C:/Users/geoma/Desktop/Scilab/toolboxes/STM32_toolbox_1-1/scicos_blocks/src/c\convert.c **** 
  43:C:/Users/geoma/Desktop/Scilab/toolboxes/STM32_toolbox_1-1/scicos_blocks/src/c\convert.c ****     m = GetInPortRows(block, 1);
  64              		.loc 1 43 0
  65 000a 036C     		ldr	r3, [r0, #64]
  66 000c D3F800B0 		ldr	fp, [r3]
  67              	.LVL2:
  44:C:/Users/geoma/Desktop/Scilab/toolboxes/STM32_toolbox_1-1/scicos_blocks/src/c\convert.c ****     n = GetInPortCols(block, 1);
  68              		.loc 1 44 0
  69 0010 C26B     		ldr	r2, [r0, #60]
  70 0012 53F822A0 		ldr	r10, [r3, r2, lsl #2]
  71              	.LVL3:
ARM GAS  C:\Users\geoma\AppData\Local\Temp\ccpZNVPJ.s 			page 3


  45:C:/Users/geoma/Desktop/Scilab/toolboxes/STM32_toolbox_1-1/scicos_blocks/src/c\convert.c ****     ipar = GetIparPtrs(block);
  72              		.loc 1 45 0
  73 0016 826E     		ldr	r2, [r0, #104]
  74              	.LVL4:
  46:C:/Users/geoma/Desktop/Scilab/toolboxes/STM32_toolbox_1-1/scicos_blocks/src/c\convert.c **** 
  47:C:/Users/geoma/Desktop/Scilab/toolboxes/STM32_toolbox_1-1/scicos_blocks/src/c\convert.c **** //RP_MODIF    if ((flag == 1) | (flag == 6))
  48:C:/Users/geoma/Desktop/Scilab/toolboxes/STM32_toolbox_1-1/scicos_blocks/src/c\convert.c ****     if ((flag == 1) | (flag == 4) | (flag == 6))
  75              		.loc 1 48 0
  76 0018 0129     		cmp	r1, #1
  77 001a 14BF     		ite	ne
  78 001c 0025     		movne	r5, #0
  79 001e 0125     		moveq	r5, #1
  80 0020 0429     		cmp	r1, #4
  81 0022 14BF     		ite	ne
  82 0024 2B46     		movne	r3, r5
  83 0026 45F00103 		orreq	r3, r5, #1
  84 002a 0629     		cmp	r1, #6
  85 002c 08BF     		it	eq
  86 002e 43F00103 		orreq	r3, r3, #1
  87 0032 002B     		cmp	r3, #0
  88 0034 01F01087 		beq	.L1
  89 0038 0C46     		mov	r4, r1
  49:C:/Users/geoma/Desktop/Scilab/toolboxes/STM32_toolbox_1-1/scicos_blocks/src/c\convert.c ****     {
  50:C:/Users/geoma/Desktop/Scilab/toolboxes/STM32_toolbox_1-1/scicos_blocks/src/c\convert.c ****         switch (*ipar)
  90              		.loc 1 50 0
  91 003a 1268     		ldr	r2, [r2]
  92              	.LVL5:
  93 003c 531E     		subs	r3, r2, #1
  94 003e 5A2B     		cmp	r3, #90
  95 0040 01F20A87 		bhi	.L1
  96 0044 DFE813F0 		tbh	[pc, r3, lsl #1]
  97              	.LVL6:
  98              	.L4:
  99 0048 5B00     		.2byte	(.L3-.L4)/2
 100 004a 8900     		.2byte	(.L5-.L4)/2
 101 004c 1101     		.2byte	(.L6-.L4)/2
 102 004e 9901     		.2byte	(.L7-.L4)/2
 103 0050 2102     		.2byte	(.L8-.L4)/2
 104 0052 6902     		.2byte	(.L9-.L4)/2
 105 0054 9202     		.2byte	(.L10-.L4)/2
 106 0056 BA02     		.2byte	(.L11-.L4)/2
 107 0058 CF02     		.2byte	(.L12-.L4)/2
 108 005a 5703     		.2byte	(.L13-.L4)/2
 109 005c F803     		.2byte	(.L14-.L4)/2
 110 005e 2204     		.2byte	(.L15-.L4)/2
 111 0060 4C04     		.2byte	(.L16-.L4)/2
 112 0062 6104     		.2byte	(.L17-.L4)/2
 113 0064 7204     		.2byte	(.L18-.L4)/2
 114 0066 FA04     		.2byte	(.L19-.L4)/2
 115 0068 0B05     		.2byte	(.L20-.L4)/2
 116 006a 3505     		.2byte	(.L21-.L4)/2
 117 006c 4905     		.2byte	(.L22-.L4)/2
 118 006e 5905     		.2byte	(.L23-.L4)/2
 119 0070 6905     		.2byte	(.L24-.L4)/2
 120 0072 7905     		.2byte	(.L25-.L4)/2
 121 0074 8905     		.2byte	(.L26-.L4)/2
 122 0076 AD05     		.2byte	(.L27-.L4)/2
ARM GAS  C:\Users\geoma\AppData\Local\Temp\ccpZNVPJ.s 			page 4


 123 0078 0406     		.2byte	(.L28-.L4)/2
 124 007a 5B06     		.2byte	(.L29-.L4)/2
 125 007c 8506     		.2byte	(.L30-.L4)/2
 126 007e AF06     		.2byte	(.L31-.L4)/2
 127 0080 C406     		.2byte	(.L32-.L4)/2
 128 0082 D506     		.2byte	(.L33-.L4)/2
 129 0084 2C07     		.2byte	(.L34-.L4)/2
 130 0086 3D07     		.2byte	(.L35-.L4)/2
 131 0088 7B07     		.2byte	(.L36-.L4)/2
 132 008a 8F07     		.2byte	(.L37-.L4)/2
 133 008c 9F07     		.2byte	(.L38-.L4)/2
 134 008e AF07     		.2byte	(.L39-.L4)/2
 135 0090 BF07     		.2byte	(.L40-.L4)/2
 136 0092 CF07     		.2byte	(.L41-.L4)/2
 137 0094 FF07     		.2byte	(.L42-.L4)/2
 138 0096 3008     		.2byte	(.L43-.L4)/2
 139 0098 5F08     		.2byte	(.L44-.L4)/2
 140 009a 8E08     		.2byte	(.L45-.L4)/2
 141 009c BD08     		.2byte	(.L46-.L4)/2
 142 009e 0709     		.2byte	(.L47-.L4)/2
 143 00a0 2809     		.2byte	(.L48-.L4)/2
 144 00a2 4309     		.2byte	(.L49-.L4)/2
 145 00a4 5A09     		.2byte	(.L50-.L4)/2
 146 00a6 7909     		.2byte	(.L51-.L4)/2
 147 00a8 9309     		.2byte	(.L52-.L4)/2
 148 00aa B009     		.2byte	(.L53-.L4)/2
 149 00ac C909     		.2byte	(.L54-.L4)/2
 150 00ae E109     		.2byte	(.L55-.L4)/2
 151 00b0 FD09     		.2byte	(.L56-.L4)/2
 152 00b2 0D0A     		.2byte	(.L57-.L4)/2
 153 00b4 1D0A     		.2byte	(.L58-.L4)/2
 154 00b6 2C0A     		.2byte	(.L59-.L4)/2
 155 00b8 450A     		.2byte	(.L60-.L4)/2
 156 00ba 610A     		.2byte	(.L61-.L4)/2
 157 00bc 760A     		.2byte	(.L62-.L4)/2
 158 00be 8F0A     		.2byte	(.L63-.L4)/2
 159 00c0 A40A     		.2byte	(.L64-.L4)/2
 160 00c2 BD0A     		.2byte	(.L65-.L4)/2
 161 00c4 D20A     		.2byte	(.L66-.L4)/2
 162 00c6 E70A     		.2byte	(.L67-.L4)/2
 163 00c8 FB0A     		.2byte	(.L68-.L4)/2
 164 00ca 330B     		.2byte	(.L69-.L4)/2
 165 00cc 6B0B     		.2byte	(.L70-.L4)/2
 166 00ce A30B     		.2byte	(.L71-.L4)/2
 167 00d0 DA0B     		.2byte	(.L72-.L4)/2
 168 00d2 110C     		.2byte	(.L73-.L4)/2
 169 00d4 480C     		.2byte	(.L74-.L4)/2
 170 00d6 9C0C     		.2byte	(.L75-.L4)/2
 171 00d8 D40C     		.2byte	(.L76-.L4)/2
 172 00da E90C     		.2byte	(.L77-.L4)/2
 173 00dc 110D     		.2byte	(.L78-.L4)/2
 174 00de 390D     		.2byte	(.L79-.L4)/2
 175 00e0 710D     		.2byte	(.L80-.L4)/2
 176 00e2 880D     		.2byte	(.L81-.L4)/2
 177 00e4 9E0D     		.2byte	(.L82-.L4)/2
 178 00e6 C80D     		.2byte	(.L83-.L4)/2
 179 00e8 D70D     		.2byte	(.L84-.L4)/2
ARM GAS  C:\Users\geoma\AppData\Local\Temp\ccpZNVPJ.s 			page 5


 180 00ea E60D     		.2byte	(.L85-.L4)/2
 181 00ec F40D     		.2byte	(.L86-.L4)/2
 182 00ee 220E     		.2byte	(.L87-.L4)/2
 183 00f0 3F0E     		.2byte	(.L88-.L4)/2
 184 00f2 5C0E     		.2byte	(.L89-.L4)/2
 185 00f4 790E     		.2byte	(.L90-.L4)/2
 186 00f6 960E     		.2byte	(.L91-.L4)/2
 187 00f8 B30E     		.2byte	(.L92-.L4)/2
 188 00fa D00E     		.2byte	(.L93-.L4)/2
 189 00fc ED0E     		.2byte	(.L94-.L4)/2
 190              		.p2align 1
 191              	.L3:
 192              	.LBB2:
  51:C:/Users/geoma/Desktop/Scilab/toolboxes/STM32_toolbox_1-1/scicos_blocks/src/c\convert.c ****         {
  52:C:/Users/geoma/Desktop/Scilab/toolboxes/STM32_toolbox_1-1/scicos_blocks/src/c\convert.c ****             case 1:
  53:C:/Users/geoma/Desktop/Scilab/toolboxes/STM32_toolbox_1-1/scicos_blocks/src/c\convert.c ****             {
  54:C:/Users/geoma/Desktop/Scilab/toolboxes/STM32_toolbox_1-1/scicos_blocks/src/c\convert.c ****                 void *u = NULL, *y = NULL;
  55:C:/Users/geoma/Desktop/Scilab/toolboxes/STM32_toolbox_1-1/scicos_blocks/src/c\convert.c ****                 int so;
  56:C:/Users/geoma/Desktop/Scilab/toolboxes/STM32_toolbox_1-1/scicos_blocks/src/c\convert.c ****                 so = GetSizeOfOut(block, 1);
 193              		.loc 1 56 0
 194 00fe C36C     		ldr	r3, [r0, #76]
 195 0100 816C     		ldr	r1, [r0, #72]
 196 0102 53F83130 		ldr	r3, [r3, r1, lsl #3]
 197 0106 0A2B     		cmp	r3, #10
 198 0108 1AD0     		beq	.L460
 199              		.loc 1 56 0 is_stmt 0 discriminator 1
 200 010a 0B2B     		cmp	r3, #11
 201 010c 16D0     		beq	.L461
 202              		.loc 1 56 0 discriminator 3
 203 010e 40F22B31 		movw	r1, #811
 204 0112 8B42     		cmp	r3, r1
 205 0114 18BF     		it	ne
 206 0116 512B     		cmpne	r3, #81
 207 0118 13D0     		beq	.L95
 208              		.loc 1 56 0 discriminator 6
 209 011a B3F54B7F 		cmp	r3, #812
 210 011e 18BF     		it	ne
 211 0120 522B     		cmpne	r3, #82
 212 0122 09D0     		beq	.L462
 213              		.loc 1 56 0 discriminator 9
 214 0124 40F22E32 		movw	r2, #814
 215 0128 9342     		cmp	r3, r2
 216 012a 18BF     		it	ne
 217 012c 542B     		cmpne	r3, #84
 218 012e 01D1     		bne	.L463
 219              		.loc 1 56 0
 220 0130 0422     		movs	r2, #4
 221 0132 06E0     		b	.L95
 222              	.L463:
 223 0134 0022     		movs	r2, #0
 224 0136 04E0     		b	.L95
 225              	.L462:
 226 0138 0222     		movs	r2, #2
 227 013a 02E0     		b	.L95
 228              	.L461:
 229 013c 1022     		movs	r2, #16
 230 013e 00E0     		b	.L95
ARM GAS  C:\Users\geoma\AppData\Local\Temp\ccpZNVPJ.s 			page 6


 231              	.L460:
 232 0140 0822     		movs	r2, #8
 233              	.L95:
 234              	.LVL7:
  57:C:/Users/geoma/Desktop/Scilab/toolboxes/STM32_toolbox_1-1/scicos_blocks/src/c\convert.c ****                 u = GetInPortPtrs(block, 1);
 235              		.loc 1 57 0 is_stmt 1 discriminator 20
 236 0142 416C     		ldr	r1, [r0, #68]
 237              	.LVL8:
  58:C:/Users/geoma/Desktop/Scilab/toolboxes/STM32_toolbox_1-1/scicos_blocks/src/c\convert.c ****                 y = GetOutPortPtrs(block, 1);
 238              		.loc 1 58 0 discriminator 20
 239 0144 006D     		ldr	r0, [r0, #80]
 240              	.LVL9:
  59:C:/Users/geoma/Desktop/Scilab/toolboxes/STM32_toolbox_1-1/scicos_blocks/src/c\convert.c ****                 memcpy(y, u, m * n * so);
 241              		.loc 1 59 0 discriminator 20
 242 0146 0AFB0BF3 		mul	r3, r10, fp
 243 014a 0068     		ldr	r0, [r0]
 244              	.LVL10:
 245 014c 0968     		ldr	r1, [r1]
 246              	.LVL11:
 247 014e 03FB02F2 		mul	r2, r3, r2
 248              	.LVL12:
 249 0152 FFF7FEFF 		bl	memcpy
 250              	.LVL13:
  60:C:/Users/geoma/Desktop/Scilab/toolboxes/STM32_toolbox_1-1/scicos_blocks/src/c\convert.c ****                 break;
 251              		.loc 1 60 0 discriminator 20
 252 0156 01F07FBE 		b	.L1
 253              	.LVL14:
 254              	.L5:
 255              	.LBE2:
 256              	.LBB3:
  61:C:/Users/geoma/Desktop/Scilab/toolboxes/STM32_toolbox_1-1/scicos_blocks/src/c\convert.c ****             }
  62:C:/Users/geoma/Desktop/Scilab/toolboxes/STM32_toolbox_1-1/scicos_blocks/src/c\convert.c ****             case 2:
  63:C:/Users/geoma/Desktop/Scilab/toolboxes/STM32_toolbox_1-1/scicos_blocks/src/c\convert.c ****             {
  64:C:/Users/geoma/Desktop/Scilab/toolboxes/STM32_toolbox_1-1/scicos_blocks/src/c\convert.c ****                 SCSREAL_COP *u = NULL;
  65:C:/Users/geoma/Desktop/Scilab/toolboxes/STM32_toolbox_1-1/scicos_blocks/src/c\convert.c ****                 SCSINT32_COP *y = NULL;
  66:C:/Users/geoma/Desktop/Scilab/toolboxes/STM32_toolbox_1-1/scicos_blocks/src/c\convert.c ****                 u = GetRealInPortPtrs(block, 1);
 257              		.loc 1 66 0
 258 015a 436C     		ldr	r3, [r0, #68]
 259 015c D3F80090 		ldr	r9, [r3]
 260              	.LVL15:
  67:C:/Users/geoma/Desktop/Scilab/toolboxes/STM32_toolbox_1-1/scicos_blocks/src/c\convert.c ****                 y = Getint32OutPortPtrs(block, 1);
 261              		.loc 1 67 0
 262 0160 036D     		ldr	r3, [r0, #80]
 263 0162 D3F80080 		ldr	r8, [r3]
 264              	.LVL16:
  68:C:/Users/geoma/Desktop/Scilab/toolboxes/STM32_toolbox_1-1/scicos_blocks/src/c\convert.c ****                 k = pow(2, 32);
  69:C:/Users/geoma/Desktop/Scilab/toolboxes/STM32_toolbox_1-1/scicos_blocks/src/c\convert.c ****                 for (i = 0; i < m * n; i++)
 265              		.loc 1 69 0
 266 0166 0026     		movs	r6, #0
 267 0168 79E0     		b	.L100
 268              	.LVL17:
 269              	.L105:
  70:C:/Users/geoma/Desktop/Scilab/toolboxes/STM32_toolbox_1-1/scicos_blocks/src/c\convert.c ****                 {
  71:C:/Users/geoma/Desktop/Scilab/toolboxes/STM32_toolbox_1-1/scicos_blocks/src/c\convert.c ****                     v = (double)u[i];
 270              		.loc 1 71 0
 271 016a 3746     		mov	r7, r6
 272 016c 09EBC603 		add	r3, r9, r6, lsl #3
ARM GAS  C:\Users\geoma\AppData\Local\Temp\ccpZNVPJ.s 			page 7


 273 0170 D3E90045 		ldrd	r4, [r3]
 274              	.LVL18:
  72:C:/Users/geoma/Desktop/Scilab/toolboxes/STM32_toolbox_1-1/scicos_blocks/src/c\convert.c ****                     w = v - (double)((int)(v / k)) * k;
 275              		.loc 1 72 0
 276 0174 2046     		mov	r0, r4
 277 0176 2946     		mov	r1, r5
 278 0178 0022     		movs	r2, #0
 279 017a CD4B     		ldr	r3, .L528+24
 280 017c FFF7FEFF 		bl	__aeabi_dmul
 281              	.LVL19:
 282 0180 FFF7FEFF 		bl	__aeabi_d2iz
 283              	.LVL20:
 284 0184 FFF7FEFF 		bl	__aeabi_i2d
 285              	.LVL21:
 286 0188 0022     		movs	r2, #0
 287 018a CA4B     		ldr	r3, .L528+28
 288 018c FFF7FEFF 		bl	__aeabi_dmul
 289              	.LVL22:
 290 0190 0246     		mov	r2, r0
 291 0192 0B46     		mov	r3, r1
 292 0194 2046     		mov	r0, r4
 293 0196 2946     		mov	r1, r5
 294 0198 FFF7FEFF 		bl	__aeabi_dsub
 295              	.LVL23:
 296 019c 0446     		mov	r4, r0
 297              	.LVL24:
 298 019e 0D46     		mov	r5, r1
 299              	.LVL25:
  73:C:/Users/geoma/Desktop/Scilab/toolboxes/STM32_toolbox_1-1/scicos_blocks/src/c\convert.c ****                     if (fabs(w) > k / 2 - 1)
 300              		.loc 1 73 0
 301 01a0 0090     		str	r0, [sp]
 302 01a2 21F00043 		bic	r3, r1, #-2147483648
 303 01a6 0193     		str	r3, [sp, #4]
 304 01a8 DDE90001 		ldrd	r0, [sp]
 305 01ac BAA3     		adr	r3, .L528
 306 01ae D3E90023 		ldrd	r2, [r3]
 307 01b2 FFF7FEFF 		bl	__aeabi_dcmpgt
 308              	.LVL26:
 309 01b6 0028     		cmp	r0, #0
 310 01b8 4AD0     		beq	.L101
  74:C:/Users/geoma/Desktop/Scilab/toolboxes/STM32_toolbox_1-1/scicos_blocks/src/c\convert.c ****                     {
  75:C:/Users/geoma/Desktop/Scilab/toolboxes/STM32_toolbox_1-1/scicos_blocks/src/c\convert.c ****                         if (w >= 0)
 311              		.loc 1 75 0
 312 01ba 2046     		mov	r0, r4
 313 01bc 2946     		mov	r1, r5
 314 01be 0022     		movs	r2, #0
 315 01c0 0023     		movs	r3, #0
 316 01c2 FFF7FEFF 		bl	__aeabi_dcmpge
 317              	.LVL27:
 318 01c6 08B3     		cbz	r0, .L500
  76:C:/Users/geoma/Desktop/Scilab/toolboxes/STM32_toolbox_1-1/scicos_blocks/src/c\convert.c ****                         {
  77:C:/Users/geoma/Desktop/Scilab/toolboxes/STM32_toolbox_1-1/scicos_blocks/src/c\convert.c ****                             w = (-k / 2 + fabs(w - (double)((int)(w / (k / 2))) * (k / 2)));
 319              		.loc 1 77 0
 320 01c8 2046     		mov	r0, r4
 321 01ca 2946     		mov	r1, r5
 322 01cc 0022     		movs	r2, #0
 323 01ce 4FF07853 		mov	r3, #1040187392
ARM GAS  C:\Users\geoma\AppData\Local\Temp\ccpZNVPJ.s 			page 8


 324 01d2 FFF7FEFF 		bl	__aeabi_dmul
 325              	.LVL28:
 326 01d6 FFF7FEFF 		bl	__aeabi_d2iz
 327              	.LVL29:
 328 01da FFF7FEFF 		bl	__aeabi_i2d
 329              	.LVL30:
 330 01de 0022     		movs	r2, #0
 331 01e0 B54B     		ldr	r3, .L528+32
 332 01e2 FFF7FEFF 		bl	__aeabi_dmul
 333              	.LVL31:
 334 01e6 0246     		mov	r2, r0
 335 01e8 0B46     		mov	r3, r1
 336 01ea 2046     		mov	r0, r4
 337 01ec 2946     		mov	r1, r5
 338 01ee FFF7FEFF 		bl	__aeabi_dsub
 339              	.LVL32:
 340 01f2 1290     		str	r0, [sp, #72]
 341 01f4 21F00043 		bic	r3, r1, #-2147483648
 342 01f8 1393     		str	r3, [sp, #76]
 343 01fa DDE91201 		ldrd	r0, [sp, #72]
 344 01fe 0022     		movs	r2, #0
 345 0200 AD4B     		ldr	r3, .L528+32
 346 0202 FFF7FEFF 		bl	__aeabi_dsub
 347              	.LVL33:
 348 0206 0446     		mov	r4, r0
 349              	.LVL34:
 350 0208 0D46     		mov	r5, r1
 351              	.LVL35:
 352 020a 21E0     		b	.L101
 353              	.L500:
  78:C:/Users/geoma/Desktop/Scilab/toolboxes/STM32_toolbox_1-1/scicos_blocks/src/c\convert.c ****                         }
  79:C:/Users/geoma/Desktop/Scilab/toolboxes/STM32_toolbox_1-1/scicos_blocks/src/c\convert.c ****                         else
  80:C:/Users/geoma/Desktop/Scilab/toolboxes/STM32_toolbox_1-1/scicos_blocks/src/c\convert.c ****                         {
  81:C:/Users/geoma/Desktop/Scilab/toolboxes/STM32_toolbox_1-1/scicos_blocks/src/c\convert.c ****                             w = -(-(k / 2) + fabs(w - (double)((int)(w / (k / 2))) * (k / 2)));
 354              		.loc 1 81 0
 355 020c 2046     		mov	r0, r4
 356 020e 2946     		mov	r1, r5
 357 0210 0022     		movs	r2, #0
 358 0212 4FF07853 		mov	r3, #1040187392
 359 0216 FFF7FEFF 		bl	__aeabi_dmul
 360              	.LVL36:
 361 021a FFF7FEFF 		bl	__aeabi_d2iz
 362              	.LVL37:
 363 021e FFF7FEFF 		bl	__aeabi_i2d
 364              	.LVL38:
 365 0222 0022     		movs	r2, #0
 366 0224 A44B     		ldr	r3, .L528+32
 367 0226 FFF7FEFF 		bl	__aeabi_dmul
 368              	.LVL39:
 369 022a 0246     		mov	r2, r0
 370 022c 0B46     		mov	r3, r1
 371 022e 2046     		mov	r0, r4
 372 0230 2946     		mov	r1, r5
 373 0232 FFF7FEFF 		bl	__aeabi_dsub
 374              	.LVL40:
 375 0236 1E90     		str	r0, [sp, #120]
 376 0238 21F00043 		bic	r3, r1, #-2147483648
ARM GAS  C:\Users\geoma\AppData\Local\Temp\ccpZNVPJ.s 			page 9


 377 023c 1F93     		str	r3, [sp, #124]
 378 023e DDE91E01 		ldrd	r0, [sp, #120]
 379 0242 0022     		movs	r2, #0
 380 0244 9C4B     		ldr	r3, .L528+32
 381 0246 FFF7FEFF 		bl	__aeabi_dsub
 382              	.LVL41:
 383 024a 0446     		mov	r4, r0
 384              	.LVL42:
 385 024c 01F10045 		add	r5, r1, #-2147483648
 386              	.LVL43:
 387              	.L101:
  82:C:/Users/geoma/Desktop/Scilab/toolboxes/STM32_toolbox_1-1/scicos_blocks/src/c\convert.c ****                         }
  83:C:/Users/geoma/Desktop/Scilab/toolboxes/STM32_toolbox_1-1/scicos_blocks/src/c\convert.c ****                     }
  84:C:/Users/geoma/Desktop/Scilab/toolboxes/STM32_toolbox_1-1/scicos_blocks/src/c\convert.c ****                     y[i] = (SCSINT32_COP)w;
 388              		.loc 1 84 0 discriminator 2
 389 0250 2046     		mov	r0, r4
 390 0252 2946     		mov	r1, r5
 391 0254 FFF7FEFF 		bl	__aeabi_d2iz
 392              	.LVL44:
 393 0258 48F82700 		str	r0, [r8, r7, lsl #2]
  69:C:/Users/geoma/Desktop/Scilab/toolboxes/STM32_toolbox_1-1/scicos_blocks/src/c\convert.c ****                 {
 394              		.loc 1 69 0 discriminator 2
 395 025c 0136     		adds	r6, r6, #1
 396              	.LVL45:
 397              	.L100:
  69:C:/Users/geoma/Desktop/Scilab/toolboxes/STM32_toolbox_1-1/scicos_blocks/src/c\convert.c ****                 {
 398              		.loc 1 69 0 is_stmt 0 discriminator 1
 399 025e 0AFB0BF3 		mul	r3, r10, fp
 400 0262 B342     		cmp	r3, r6
 401 0264 81DC     		bgt	.L105
 402 0266 01F0F7BD 		b	.L1
 403              	.LVL46:
 404              	.L6:
 405              	.LBE3:
 406              	.LBB4:
  85:C:/Users/geoma/Desktop/Scilab/toolboxes/STM32_toolbox_1-1/scicos_blocks/src/c\convert.c ****                 }
  86:C:/Users/geoma/Desktop/Scilab/toolboxes/STM32_toolbox_1-1/scicos_blocks/src/c\convert.c ****                 break;
  87:C:/Users/geoma/Desktop/Scilab/toolboxes/STM32_toolbox_1-1/scicos_blocks/src/c\convert.c ****             }
  88:C:/Users/geoma/Desktop/Scilab/toolboxes/STM32_toolbox_1-1/scicos_blocks/src/c\convert.c ****             case 3:
  89:C:/Users/geoma/Desktop/Scilab/toolboxes/STM32_toolbox_1-1/scicos_blocks/src/c\convert.c ****             {
  90:C:/Users/geoma/Desktop/Scilab/toolboxes/STM32_toolbox_1-1/scicos_blocks/src/c\convert.c ****                 SCSREAL_COP *u = NULL;
  91:C:/Users/geoma/Desktop/Scilab/toolboxes/STM32_toolbox_1-1/scicos_blocks/src/c\convert.c ****                 SCSINT16_COP *y = NULL;
  92:C:/Users/geoma/Desktop/Scilab/toolboxes/STM32_toolbox_1-1/scicos_blocks/src/c\convert.c ****                 u = GetRealInPortPtrs(block, 1);
 407              		.loc 1 92 0 is_stmt 1
 408 026a 436C     		ldr	r3, [r0, #68]
 409 026c D3F80090 		ldr	r9, [r3]
 410              	.LVL47:
  93:C:/Users/geoma/Desktop/Scilab/toolboxes/STM32_toolbox_1-1/scicos_blocks/src/c\convert.c ****                 y = Getint16OutPortPtrs(block, 1);
 411              		.loc 1 93 0
 412 0270 036D     		ldr	r3, [r0, #80]
 413 0272 D3F80080 		ldr	r8, [r3]
 414              	.LVL48:
  94:C:/Users/geoma/Desktop/Scilab/toolboxes/STM32_toolbox_1-1/scicos_blocks/src/c\convert.c ****                 k = pow(2, 16);
  95:C:/Users/geoma/Desktop/Scilab/toolboxes/STM32_toolbox_1-1/scicos_blocks/src/c\convert.c ****                 for (i = 0; i < m * n; i++)
 415              		.loc 1 95 0
 416 0276 0026     		movs	r6, #0
 417 0278 79E0     		b	.L106
ARM GAS  C:\Users\geoma\AppData\Local\Temp\ccpZNVPJ.s 			page 10


 418              	.LVL49:
 419              	.L111:
  96:C:/Users/geoma/Desktop/Scilab/toolboxes/STM32_toolbox_1-1/scicos_blocks/src/c\convert.c ****                 {
  97:C:/Users/geoma/Desktop/Scilab/toolboxes/STM32_toolbox_1-1/scicos_blocks/src/c\convert.c ****                     v = (double)u[i];
 420              		.loc 1 97 0
 421 027a 3746     		mov	r7, r6
 422 027c 09EBC603 		add	r3, r9, r6, lsl #3
 423 0280 D3E90045 		ldrd	r4, [r3]
 424              	.LVL50:
  98:C:/Users/geoma/Desktop/Scilab/toolboxes/STM32_toolbox_1-1/scicos_blocks/src/c\convert.c ****                     w = v - (double)((int)(v / k)) * k;
 425              		.loc 1 98 0
 426 0284 2046     		mov	r0, r4
 427 0286 2946     		mov	r1, r5
 428 0288 0022     		movs	r2, #0
 429 028a 8C4B     		ldr	r3, .L528+36
 430 028c FFF7FEFF 		bl	__aeabi_dmul
 431              	.LVL51:
 432 0290 FFF7FEFF 		bl	__aeabi_d2iz
 433              	.LVL52:
 434 0294 FFF7FEFF 		bl	__aeabi_i2d
 435              	.LVL53:
 436 0298 0022     		movs	r2, #0
 437 029a 894B     		ldr	r3, .L528+40
 438 029c FFF7FEFF 		bl	__aeabi_dmul
 439              	.LVL54:
 440 02a0 0246     		mov	r2, r0
 441 02a2 0B46     		mov	r3, r1
 442 02a4 2046     		mov	r0, r4
 443 02a6 2946     		mov	r1, r5
 444 02a8 FFF7FEFF 		bl	__aeabi_dsub
 445              	.LVL55:
 446 02ac 0446     		mov	r4, r0
 447              	.LVL56:
 448 02ae 0D46     		mov	r5, r1
 449              	.LVL57:
  99:C:/Users/geoma/Desktop/Scilab/toolboxes/STM32_toolbox_1-1/scicos_blocks/src/c\convert.c ****                     if (fabs(w) > k / 2 - 1)
 450              		.loc 1 99 0
 451 02b0 0290     		str	r0, [sp, #8]
 452 02b2 21F00043 		bic	r3, r1, #-2147483648
 453 02b6 0393     		str	r3, [sp, #12]
 454 02b8 DDE90201 		ldrd	r0, [sp, #8]
 455 02bc 78A3     		adr	r3, .L528+8
 456 02be D3E90023 		ldrd	r2, [r3]
 457 02c2 FFF7FEFF 		bl	__aeabi_dcmpgt
 458              	.LVL58:
 459 02c6 0028     		cmp	r0, #0
 460 02c8 4AD0     		beq	.L107
 100:C:/Users/geoma/Desktop/Scilab/toolboxes/STM32_toolbox_1-1/scicos_blocks/src/c\convert.c ****                     {
 101:C:/Users/geoma/Desktop/Scilab/toolboxes/STM32_toolbox_1-1/scicos_blocks/src/c\convert.c ****                         if (w >= 0)
 461              		.loc 1 101 0
 462 02ca 2046     		mov	r0, r4
 463 02cc 2946     		mov	r1, r5
 464 02ce 0022     		movs	r2, #0
 465 02d0 0023     		movs	r3, #0
 466 02d2 FFF7FEFF 		bl	__aeabi_dcmpge
 467              	.LVL59:
 468 02d6 08B3     		cbz	r0, .L501
ARM GAS  C:\Users\geoma\AppData\Local\Temp\ccpZNVPJ.s 			page 11


 102:C:/Users/geoma/Desktop/Scilab/toolboxes/STM32_toolbox_1-1/scicos_blocks/src/c\convert.c ****                         {
 103:C:/Users/geoma/Desktop/Scilab/toolboxes/STM32_toolbox_1-1/scicos_blocks/src/c\convert.c ****                             w = (-k / 2 + fabs(w - (double)((int)(w / (k / 2))) * (k / 2)));
 469              		.loc 1 103 0
 470 02d8 2046     		mov	r0, r4
 471 02da 2946     		mov	r1, r5
 472 02dc 0022     		movs	r2, #0
 473 02de 4FF07C53 		mov	r3, #1056964608
 474 02e2 FFF7FEFF 		bl	__aeabi_dmul
 475              	.LVL60:
 476 02e6 FFF7FEFF 		bl	__aeabi_d2iz
 477              	.LVL61:
 478 02ea FFF7FEFF 		bl	__aeabi_i2d
 479              	.LVL62:
 480 02ee 0022     		movs	r2, #0
 481 02f0 744B     		ldr	r3, .L528+44
 482 02f2 FFF7FEFF 		bl	__aeabi_dmul
 483              	.LVL63:
 484 02f6 0246     		mov	r2, r0
 485 02f8 0B46     		mov	r3, r1
 486 02fa 2046     		mov	r0, r4
 487 02fc 2946     		mov	r1, r5
 488 02fe FFF7FEFF 		bl	__aeabi_dsub
 489              	.LVL64:
 490 0302 1490     		str	r0, [sp, #80]
 491 0304 21F00043 		bic	r3, r1, #-2147483648
 492 0308 1593     		str	r3, [sp, #84]
 493 030a DDE91401 		ldrd	r0, [sp, #80]
 494 030e 0022     		movs	r2, #0
 495 0310 6C4B     		ldr	r3, .L528+44
 496 0312 FFF7FEFF 		bl	__aeabi_dsub
 497              	.LVL65:
 498 0316 0446     		mov	r4, r0
 499              	.LVL66:
 500 0318 0D46     		mov	r5, r1
 501              	.LVL67:
 502 031a 21E0     		b	.L107
 503              	.L501:
 104:C:/Users/geoma/Desktop/Scilab/toolboxes/STM32_toolbox_1-1/scicos_blocks/src/c\convert.c ****                         }
 105:C:/Users/geoma/Desktop/Scilab/toolboxes/STM32_toolbox_1-1/scicos_blocks/src/c\convert.c ****                         else
 106:C:/Users/geoma/Desktop/Scilab/toolboxes/STM32_toolbox_1-1/scicos_blocks/src/c\convert.c ****                         {
 107:C:/Users/geoma/Desktop/Scilab/toolboxes/STM32_toolbox_1-1/scicos_blocks/src/c\convert.c ****                             w = -(-(k / 2) + fabs(w - (double)((int)(w / (k / 2))) * (k / 2)));
 504              		.loc 1 107 0
 505 031c 2046     		mov	r0, r4
 506 031e 2946     		mov	r1, r5
 507 0320 0022     		movs	r2, #0
 508 0322 4FF07C53 		mov	r3, #1056964608
 509 0326 FFF7FEFF 		bl	__aeabi_dmul
 510              	.LVL68:
 511 032a FFF7FEFF 		bl	__aeabi_d2iz
 512              	.LVL69:
 513 032e FFF7FEFF 		bl	__aeabi_i2d
 514              	.LVL70:
 515 0332 0022     		movs	r2, #0
 516 0334 634B     		ldr	r3, .L528+44
 517 0336 FFF7FEFF 		bl	__aeabi_dmul
 518              	.LVL71:
 519 033a 0246     		mov	r2, r0
ARM GAS  C:\Users\geoma\AppData\Local\Temp\ccpZNVPJ.s 			page 12


 520 033c 0B46     		mov	r3, r1
 521 033e 2046     		mov	r0, r4
 522 0340 2946     		mov	r1, r5
 523 0342 FFF7FEFF 		bl	__aeabi_dsub
 524              	.LVL72:
 525 0346 2090     		str	r0, [sp, #128]
 526 0348 21F00043 		bic	r3, r1, #-2147483648
 527 034c 2193     		str	r3, [sp, #132]
 528 034e DDE92001 		ldrd	r0, [sp, #128]
 529 0352 0022     		movs	r2, #0
 530 0354 5B4B     		ldr	r3, .L528+44
 531 0356 FFF7FEFF 		bl	__aeabi_dsub
 532              	.LVL73:
 533 035a 0446     		mov	r4, r0
 534              	.LVL74:
 535 035c 01F10045 		add	r5, r1, #-2147483648
 536              	.LVL75:
 537              	.L107:
 108:C:/Users/geoma/Desktop/Scilab/toolboxes/STM32_toolbox_1-1/scicos_blocks/src/c\convert.c ****                         }
 109:C:/Users/geoma/Desktop/Scilab/toolboxes/STM32_toolbox_1-1/scicos_blocks/src/c\convert.c ****                     }
 110:C:/Users/geoma/Desktop/Scilab/toolboxes/STM32_toolbox_1-1/scicos_blocks/src/c\convert.c ****                     y[i] = (SCSINT16_COP)w;
 538              		.loc 1 110 0 discriminator 2
 539 0360 2046     		mov	r0, r4
 540 0362 2946     		mov	r1, r5
 541 0364 FFF7FEFF 		bl	__aeabi_d2iz
 542              	.LVL76:
 543 0368 28F81700 		strh	r0, [r8, r7, lsl #1]	@ movhi
  95:C:/Users/geoma/Desktop/Scilab/toolboxes/STM32_toolbox_1-1/scicos_blocks/src/c\convert.c ****                 {
 544              		.loc 1 95 0 discriminator 2
 545 036c 0136     		adds	r6, r6, #1
 546              	.LVL77:
 547              	.L106:
  95:C:/Users/geoma/Desktop/Scilab/toolboxes/STM32_toolbox_1-1/scicos_blocks/src/c\convert.c ****                 {
 548              		.loc 1 95 0 is_stmt 0 discriminator 1
 549 036e 0AFB0BF3 		mul	r3, r10, fp
 550 0372 B342     		cmp	r3, r6
 551 0374 81DC     		bgt	.L111
 552 0376 01F06FBD 		b	.L1
 553              	.LVL78:
 554              	.L7:
 555              	.LBE4:
 556              	.LBB5:
 111:C:/Users/geoma/Desktop/Scilab/toolboxes/STM32_toolbox_1-1/scicos_blocks/src/c\convert.c ****                 }
 112:C:/Users/geoma/Desktop/Scilab/toolboxes/STM32_toolbox_1-1/scicos_blocks/src/c\convert.c ****                 break;
 113:C:/Users/geoma/Desktop/Scilab/toolboxes/STM32_toolbox_1-1/scicos_blocks/src/c\convert.c ****             }
 114:C:/Users/geoma/Desktop/Scilab/toolboxes/STM32_toolbox_1-1/scicos_blocks/src/c\convert.c ****             case 4:
 115:C:/Users/geoma/Desktop/Scilab/toolboxes/STM32_toolbox_1-1/scicos_blocks/src/c\convert.c ****             {
 116:C:/Users/geoma/Desktop/Scilab/toolboxes/STM32_toolbox_1-1/scicos_blocks/src/c\convert.c ****                 SCSREAL_COP *u = NULL;
 117:C:/Users/geoma/Desktop/Scilab/toolboxes/STM32_toolbox_1-1/scicos_blocks/src/c\convert.c ****                 SCSINT8_COP *y = NULL;
 118:C:/Users/geoma/Desktop/Scilab/toolboxes/STM32_toolbox_1-1/scicos_blocks/src/c\convert.c ****                 u = GetRealInPortPtrs(block, 1);
 557              		.loc 1 118 0 is_stmt 1
 558 037a 436C     		ldr	r3, [r0, #68]
 559 037c D3F80090 		ldr	r9, [r3]
 560              	.LVL79:
 119:C:/Users/geoma/Desktop/Scilab/toolboxes/STM32_toolbox_1-1/scicos_blocks/src/c\convert.c ****                 y = Getint8OutPortPtrs(block, 1);
 561              		.loc 1 119 0
 562 0380 036D     		ldr	r3, [r0, #80]
ARM GAS  C:\Users\geoma\AppData\Local\Temp\ccpZNVPJ.s 			page 13


 563 0382 D3F80080 		ldr	r8, [r3]
 564              	.LVL80:
 120:C:/Users/geoma/Desktop/Scilab/toolboxes/STM32_toolbox_1-1/scicos_blocks/src/c\convert.c ****                 k = pow(2, 8);
 121:C:/Users/geoma/Desktop/Scilab/toolboxes/STM32_toolbox_1-1/scicos_blocks/src/c\convert.c ****                 for (i = 0; i < m * n; i++)
 565              		.loc 1 121 0
 566 0386 0026     		movs	r6, #0
 567 0388 79E0     		b	.L112
 568              	.LVL81:
 569              	.L117:
 122:C:/Users/geoma/Desktop/Scilab/toolboxes/STM32_toolbox_1-1/scicos_blocks/src/c\convert.c ****                 {
 123:C:/Users/geoma/Desktop/Scilab/toolboxes/STM32_toolbox_1-1/scicos_blocks/src/c\convert.c ****                     v = (double)u[i];
 570              		.loc 1 123 0
 571 038a 3746     		mov	r7, r6
 572 038c 09EBC603 		add	r3, r9, r6, lsl #3
 573 0390 D3E90045 		ldrd	r4, [r3]
 574              	.LVL82:
 124:C:/Users/geoma/Desktop/Scilab/toolboxes/STM32_toolbox_1-1/scicos_blocks/src/c\convert.c ****                     w = v - (double)((int)(v / k)) * k;
 575              		.loc 1 124 0
 576 0394 2046     		mov	r0, r4
 577 0396 2946     		mov	r1, r5
 578 0398 0022     		movs	r2, #0
 579 039a 4B4B     		ldr	r3, .L528+48
 580 039c FFF7FEFF 		bl	__aeabi_dmul
 581              	.LVL83:
 582 03a0 FFF7FEFF 		bl	__aeabi_d2iz
 583              	.LVL84:
 584 03a4 FFF7FEFF 		bl	__aeabi_i2d
 585              	.LVL85:
 586 03a8 0022     		movs	r2, #0
 587 03aa 484B     		ldr	r3, .L528+52
 588 03ac FFF7FEFF 		bl	__aeabi_dmul
 589              	.LVL86:
 590 03b0 0246     		mov	r2, r0
 591 03b2 0B46     		mov	r3, r1
 592 03b4 2046     		mov	r0, r4
 593 03b6 2946     		mov	r1, r5
 594 03b8 FFF7FEFF 		bl	__aeabi_dsub
 595              	.LVL87:
 596 03bc 0446     		mov	r4, r0
 597              	.LVL88:
 598 03be 0D46     		mov	r5, r1
 599              	.LVL89:
 125:C:/Users/geoma/Desktop/Scilab/toolboxes/STM32_toolbox_1-1/scicos_blocks/src/c\convert.c ****                     if (fabs(w) > k / 2 - 1)
 600              		.loc 1 125 0
 601 03c0 0490     		str	r0, [sp, #16]
 602 03c2 21F00043 		bic	r3, r1, #-2147483648
 603 03c6 0593     		str	r3, [sp, #20]
 604 03c8 DDE90401 		ldrd	r0, [sp, #16]
 605 03cc 36A3     		adr	r3, .L528+16
 606 03ce D3E90023 		ldrd	r2, [r3]
 607 03d2 FFF7FEFF 		bl	__aeabi_dcmpgt
 608              	.LVL90:
 609 03d6 0028     		cmp	r0, #0
 610 03d8 4AD0     		beq	.L113
 126:C:/Users/geoma/Desktop/Scilab/toolboxes/STM32_toolbox_1-1/scicos_blocks/src/c\convert.c ****                     {
 127:C:/Users/geoma/Desktop/Scilab/toolboxes/STM32_toolbox_1-1/scicos_blocks/src/c\convert.c ****                         if (w >= 0)
 611              		.loc 1 127 0
ARM GAS  C:\Users\geoma\AppData\Local\Temp\ccpZNVPJ.s 			page 14


 612 03da 2046     		mov	r0, r4
 613 03dc 2946     		mov	r1, r5
 614 03de 0022     		movs	r2, #0
 615 03e0 0023     		movs	r3, #0
 616 03e2 FFF7FEFF 		bl	__aeabi_dcmpge
 617              	.LVL91:
 618 03e6 08B3     		cbz	r0, .L502
 128:C:/Users/geoma/Desktop/Scilab/toolboxes/STM32_toolbox_1-1/scicos_blocks/src/c\convert.c ****                         {
 129:C:/Users/geoma/Desktop/Scilab/toolboxes/STM32_toolbox_1-1/scicos_blocks/src/c\convert.c ****                             w = (-k / 2 + fabs(w - (double)((int)(w / (k / 2))) * (k / 2)));
 619              		.loc 1 129 0
 620 03e8 2046     		mov	r0, r4
 621 03ea 2946     		mov	r1, r5
 622 03ec 0022     		movs	r2, #0
 623 03ee 4FF07E53 		mov	r3, #1065353216
 624 03f2 FFF7FEFF 		bl	__aeabi_dmul
 625              	.LVL92:
 626 03f6 FFF7FEFF 		bl	__aeabi_d2iz
 627              	.LVL93:
 628 03fa FFF7FEFF 		bl	__aeabi_i2d
 629              	.LVL94:
 630 03fe 0022     		movs	r2, #0
 631 0400 334B     		ldr	r3, .L528+56
 632 0402 FFF7FEFF 		bl	__aeabi_dmul
 633              	.LVL95:
 634 0406 0246     		mov	r2, r0
 635 0408 0B46     		mov	r3, r1
 636 040a 2046     		mov	r0, r4
 637 040c 2946     		mov	r1, r5
 638 040e FFF7FEFF 		bl	__aeabi_dsub
 639              	.LVL96:
 640 0412 1690     		str	r0, [sp, #88]
 641 0414 21F00043 		bic	r3, r1, #-2147483648
 642 0418 1793     		str	r3, [sp, #92]
 643 041a DDE91601 		ldrd	r0, [sp, #88]
 644 041e 0022     		movs	r2, #0
 645 0420 2B4B     		ldr	r3, .L528+56
 646 0422 FFF7FEFF 		bl	__aeabi_dsub
 647              	.LVL97:
 648 0426 0446     		mov	r4, r0
 649              	.LVL98:
 650 0428 0D46     		mov	r5, r1
 651              	.LVL99:
 652 042a 21E0     		b	.L113
 653              	.L502:
 130:C:/Users/geoma/Desktop/Scilab/toolboxes/STM32_toolbox_1-1/scicos_blocks/src/c\convert.c ****                         }
 131:C:/Users/geoma/Desktop/Scilab/toolboxes/STM32_toolbox_1-1/scicos_blocks/src/c\convert.c ****                         else
 132:C:/Users/geoma/Desktop/Scilab/toolboxes/STM32_toolbox_1-1/scicos_blocks/src/c\convert.c ****                         {
 133:C:/Users/geoma/Desktop/Scilab/toolboxes/STM32_toolbox_1-1/scicos_blocks/src/c\convert.c ****                             w = -(-(k / 2) + fabs(w - (double)((int)(w / (k / 2))) * (k / 2)));
 654              		.loc 1 133 0
 655 042c 2046     		mov	r0, r4
 656 042e 2946     		mov	r1, r5
 657 0430 0022     		movs	r2, #0
 658 0432 4FF07E53 		mov	r3, #1065353216
 659 0436 FFF7FEFF 		bl	__aeabi_dmul
 660              	.LVL100:
 661 043a FFF7FEFF 		bl	__aeabi_d2iz
 662              	.LVL101:
ARM GAS  C:\Users\geoma\AppData\Local\Temp\ccpZNVPJ.s 			page 15


 663 043e FFF7FEFF 		bl	__aeabi_i2d
 664              	.LVL102:
 665 0442 0022     		movs	r2, #0
 666 0444 224B     		ldr	r3, .L528+56
 667 0446 FFF7FEFF 		bl	__aeabi_dmul
 668              	.LVL103:
 669 044a 0246     		mov	r2, r0
 670 044c 0B46     		mov	r3, r1
 671 044e 2046     		mov	r0, r4
 672 0450 2946     		mov	r1, r5
 673 0452 FFF7FEFF 		bl	__aeabi_dsub
 674              	.LVL104:
 675 0456 2290     		str	r0, [sp, #136]
 676 0458 21F00043 		bic	r3, r1, #-2147483648
 677 045c 2393     		str	r3, [sp, #140]
 678 045e DDE92201 		ldrd	r0, [sp, #136]
 679 0462 0022     		movs	r2, #0
 680 0464 1A4B     		ldr	r3, .L528+56
 681 0466 FFF7FEFF 		bl	__aeabi_dsub
 682              	.LVL105:
 683 046a 0446     		mov	r4, r0
 684              	.LVL106:
 685 046c 01F10045 		add	r5, r1, #-2147483648
 686              	.LVL107:
 687              	.L113:
 134:C:/Users/geoma/Desktop/Scilab/toolboxes/STM32_toolbox_1-1/scicos_blocks/src/c\convert.c ****                         }
 135:C:/Users/geoma/Desktop/Scilab/toolboxes/STM32_toolbox_1-1/scicos_blocks/src/c\convert.c ****                     }
 136:C:/Users/geoma/Desktop/Scilab/toolboxes/STM32_toolbox_1-1/scicos_blocks/src/c\convert.c ****                     y[i] = (SCSINT8_COP)w;
 688              		.loc 1 136 0 discriminator 2
 689 0470 2046     		mov	r0, r4
 690 0472 2946     		mov	r1, r5
 691 0474 FFF7FEFF 		bl	__aeabi_d2uiz
 692              	.LVL108:
 693 0478 08F80700 		strb	r0, [r8, r7]
 121:C:/Users/geoma/Desktop/Scilab/toolboxes/STM32_toolbox_1-1/scicos_blocks/src/c\convert.c ****                 {
 694              		.loc 1 121 0 discriminator 2
 695 047c 0136     		adds	r6, r6, #1
 696              	.LVL109:
 697              	.L112:
 121:C:/Users/geoma/Desktop/Scilab/toolboxes/STM32_toolbox_1-1/scicos_blocks/src/c\convert.c ****                 {
 698              		.loc 1 121 0 is_stmt 0 discriminator 1
 699 047e 0AFB0BF3 		mul	r3, r10, fp
 700 0482 B342     		cmp	r3, r6
 701 0484 81DC     		bgt	.L117
 702 0486 01F0E7BC 		b	.L1
 703              	.LVL110:
 704              	.L8:
 705              	.LBE5:
 706              	.LBB6:
 137:C:/Users/geoma/Desktop/Scilab/toolboxes/STM32_toolbox_1-1/scicos_blocks/src/c\convert.c ****                 }
 138:C:/Users/geoma/Desktop/Scilab/toolboxes/STM32_toolbox_1-1/scicos_blocks/src/c\convert.c ****                 break;
 139:C:/Users/geoma/Desktop/Scilab/toolboxes/STM32_toolbox_1-1/scicos_blocks/src/c\convert.c ****             }
 140:C:/Users/geoma/Desktop/Scilab/toolboxes/STM32_toolbox_1-1/scicos_blocks/src/c\convert.c ****             case 5:
 141:C:/Users/geoma/Desktop/Scilab/toolboxes/STM32_toolbox_1-1/scicos_blocks/src/c\convert.c ****             {
 142:C:/Users/geoma/Desktop/Scilab/toolboxes/STM32_toolbox_1-1/scicos_blocks/src/c\convert.c ****                 SCSREAL_COP *u = NULL;
 143:C:/Users/geoma/Desktop/Scilab/toolboxes/STM32_toolbox_1-1/scicos_blocks/src/c\convert.c ****                 SCSUINT32_COP *y = NULL;
 144:C:/Users/geoma/Desktop/Scilab/toolboxes/STM32_toolbox_1-1/scicos_blocks/src/c\convert.c ****                 u = GetRealInPortPtrs(block, 1);
ARM GAS  C:\Users\geoma\AppData\Local\Temp\ccpZNVPJ.s 			page 16


 707              		.loc 1 144 0 is_stmt 1
 708 048a 436C     		ldr	r3, [r0, #68]
 709 048c 1E68     		ldr	r6, [r3]
 710              	.LVL111:
 145:C:/Users/geoma/Desktop/Scilab/toolboxes/STM32_toolbox_1-1/scicos_blocks/src/c\convert.c ****                 y = Getuint32OutPortPtrs(block, 1);
 711              		.loc 1 145 0
 712 048e 036D     		ldr	r3, [r0, #80]
 713 0490 1D68     		ldr	r5, [r3]
 714              	.LVL112:
 146:C:/Users/geoma/Desktop/Scilab/toolboxes/STM32_toolbox_1-1/scicos_blocks/src/c\convert.c ****                 k = pow(2, 32);
 147:C:/Users/geoma/Desktop/Scilab/toolboxes/STM32_toolbox_1-1/scicos_blocks/src/c\convert.c ****                 for (i = 0; i < m * n; i++)
 715              		.loc 1 147 0
 716 0492 0024     		movs	r4, #0
 717              	.LVL113:
 718 0494 3BE0     		b	.L118
 719              	.L529:
 720 0496 00BF     		.align	3
 721              	.L528:
 722 0498 0000C0FF 		.word	-4194304
 723 049c FFFFDF41 		.word	1105199103
 724 04a0 00000000 		.word	0
 725 04a4 C0FFDF40 		.word	1088421824
 726 04a8 00000000 		.word	0
 727 04ac 00C05F40 		.word	1080016896
 728 04b0 0000F03D 		.word	1039138816
 729 04b4 0000F041 		.word	1106247680
 730 04b8 0000E041 		.word	1105199104
 731 04bc 0000F03E 		.word	1055916032
 732 04c0 0000F040 		.word	1089470464
 733 04c4 0000E040 		.word	1088421888
 734 04c8 0000703F 		.word	1064304640
 735 04cc 00007040 		.word	1081081856
 736 04d0 00006040 		.word	1080033280
 737              	.LVL114:
 738              	.L119:
 148:C:/Users/geoma/Desktop/Scilab/toolboxes/STM32_toolbox_1-1/scicos_blocks/src/c\convert.c ****                 {
 149:C:/Users/geoma/Desktop/Scilab/toolboxes/STM32_toolbox_1-1/scicos_blocks/src/c\convert.c ****                     v = (double)u[i];
 739              		.loc 1 149 0 discriminator 3
 740 04d4 06EBC403 		add	r3, r6, r4, lsl #3
 741 04d8 D3E90089 		ldrd	r8, [r3]
 742              	.LVL115:
 150:C:/Users/geoma/Desktop/Scilab/toolboxes/STM32_toolbox_1-1/scicos_blocks/src/c\convert.c ****                     w = v - (double)((int)(v / k)) * k;
 743              		.loc 1 150 0 discriminator 3
 744 04dc 4046     		mov	r0, r8
 745 04de 4946     		mov	r1, r9
 746 04e0 0022     		movs	r2, #0
 747 04e2 CD4B     		ldr	r3, .L530+16
 748 04e4 FFF7FEFF 		bl	__aeabi_dmul
 749              	.LVL116:
 750 04e8 FFF7FEFF 		bl	__aeabi_d2iz
 751              	.LVL117:
 752 04ec FFF7FEFF 		bl	__aeabi_i2d
 753              	.LVL118:
 754 04f0 0022     		movs	r2, #0
 755 04f2 CA4B     		ldr	r3, .L530+20
 756 04f4 FFF7FEFF 		bl	__aeabi_dmul
 757              	.LVL119:
ARM GAS  C:\Users\geoma\AppData\Local\Temp\ccpZNVPJ.s 			page 17


 758 04f8 0246     		mov	r2, r0
 759 04fa 0B46     		mov	r3, r1
 760 04fc 4046     		mov	r0, r8
 761 04fe 4946     		mov	r1, r9
 762 0500 FFF7FEFF 		bl	__aeabi_dsub
 763              	.LVL120:
 151:C:/Users/geoma/Desktop/Scilab/toolboxes/STM32_toolbox_1-1/scicos_blocks/src/c\convert.c ****                     y[i] = (SCSUINT32_COP)w;
 764              		.loc 1 151 0 discriminator 3
 765 0504 FFF7FEFF 		bl	__aeabi_d2uiz
 766              	.LVL121:
 767 0508 45F82400 		str	r0, [r5, r4, lsl #2]
 147:C:/Users/geoma/Desktop/Scilab/toolboxes/STM32_toolbox_1-1/scicos_blocks/src/c\convert.c ****                 {
 768              		.loc 1 147 0 discriminator 3
 769 050c 0134     		adds	r4, r4, #1
 770              	.LVL122:
 771              	.L118:
 147:C:/Users/geoma/Desktop/Scilab/toolboxes/STM32_toolbox_1-1/scicos_blocks/src/c\convert.c ****                 {
 772              		.loc 1 147 0 is_stmt 0 discriminator 1
 773 050e 0AFB0BF3 		mul	r3, r10, fp
 774 0512 A342     		cmp	r3, r4
 775 0514 DEDC     		bgt	.L119
 776 0516 01F09FBC 		b	.L1
 777              	.LVL123:
 778              	.L9:
 779              	.LBE6:
 780              	.LBB7:
 152:C:/Users/geoma/Desktop/Scilab/toolboxes/STM32_toolbox_1-1/scicos_blocks/src/c\convert.c ****                 }
 153:C:/Users/geoma/Desktop/Scilab/toolboxes/STM32_toolbox_1-1/scicos_blocks/src/c\convert.c ****                 break;
 154:C:/Users/geoma/Desktop/Scilab/toolboxes/STM32_toolbox_1-1/scicos_blocks/src/c\convert.c ****             }
 155:C:/Users/geoma/Desktop/Scilab/toolboxes/STM32_toolbox_1-1/scicos_blocks/src/c\convert.c ****             case 6:
 156:C:/Users/geoma/Desktop/Scilab/toolboxes/STM32_toolbox_1-1/scicos_blocks/src/c\convert.c ****             {
 157:C:/Users/geoma/Desktop/Scilab/toolboxes/STM32_toolbox_1-1/scicos_blocks/src/c\convert.c ****                 SCSREAL_COP *u = NULL;
 158:C:/Users/geoma/Desktop/Scilab/toolboxes/STM32_toolbox_1-1/scicos_blocks/src/c\convert.c ****                 SCSUINT16_COP *y = NULL;
 159:C:/Users/geoma/Desktop/Scilab/toolboxes/STM32_toolbox_1-1/scicos_blocks/src/c\convert.c ****                 u = GetRealInPortPtrs(block, 1);
 781              		.loc 1 159 0 is_stmt 1
 782 051a 436C     		ldr	r3, [r0, #68]
 783 051c 1E68     		ldr	r6, [r3]
 784              	.LVL124:
 160:C:/Users/geoma/Desktop/Scilab/toolboxes/STM32_toolbox_1-1/scicos_blocks/src/c\convert.c ****                 y = Getuint16OutPortPtrs(block, 1);
 785              		.loc 1 160 0
 786 051e 036D     		ldr	r3, [r0, #80]
 787 0520 1D68     		ldr	r5, [r3]
 788              	.LVL125:
 161:C:/Users/geoma/Desktop/Scilab/toolboxes/STM32_toolbox_1-1/scicos_blocks/src/c\convert.c ****                 k = pow(2, 16);
 162:C:/Users/geoma/Desktop/Scilab/toolboxes/STM32_toolbox_1-1/scicos_blocks/src/c\convert.c ****                 for (i = 0; i < m * n; i++)
 789              		.loc 1 162 0
 790 0522 0024     		movs	r4, #0
 791              	.LVL126:
 792 0524 1CE0     		b	.L120
 793              	.LVL127:
 794              	.L121:
 163:C:/Users/geoma/Desktop/Scilab/toolboxes/STM32_toolbox_1-1/scicos_blocks/src/c\convert.c ****                 {
 164:C:/Users/geoma/Desktop/Scilab/toolboxes/STM32_toolbox_1-1/scicos_blocks/src/c\convert.c ****                     v = (double)u[i];
 795              		.loc 1 164 0 discriminator 3
 796 0526 06EBC403 		add	r3, r6, r4, lsl #3
 797 052a D3E90089 		ldrd	r8, [r3]
 798              	.LVL128:
ARM GAS  C:\Users\geoma\AppData\Local\Temp\ccpZNVPJ.s 			page 18


 165:C:/Users/geoma/Desktop/Scilab/toolboxes/STM32_toolbox_1-1/scicos_blocks/src/c\convert.c ****                     w = v - (double)((int)(v / k)) * k;
 799              		.loc 1 165 0 discriminator 3
 800 052e 4046     		mov	r0, r8
 801 0530 4946     		mov	r1, r9
 802 0532 0022     		movs	r2, #0
 803 0534 BA4B     		ldr	r3, .L530+24
 804 0536 FFF7FEFF 		bl	__aeabi_dmul
 805              	.LVL129:
 806 053a FFF7FEFF 		bl	__aeabi_d2iz
 807              	.LVL130:
 808 053e FFF7FEFF 		bl	__aeabi_i2d
 809              	.LVL131:
 810 0542 0022     		movs	r2, #0
 811 0544 B74B     		ldr	r3, .L530+28
 812 0546 FFF7FEFF 		bl	__aeabi_dmul
 813              	.LVL132:
 814 054a 0246     		mov	r2, r0
 815 054c 0B46     		mov	r3, r1
 816 054e 4046     		mov	r0, r8
 817 0550 4946     		mov	r1, r9
 818 0552 FFF7FEFF 		bl	__aeabi_dsub
 819              	.LVL133:
 166:C:/Users/geoma/Desktop/Scilab/toolboxes/STM32_toolbox_1-1/scicos_blocks/src/c\convert.c ****                     y[i] = (SCSUINT16_COP)w;
 820              		.loc 1 166 0 discriminator 3
 821 0556 FFF7FEFF 		bl	__aeabi_d2uiz
 822              	.LVL134:
 823 055a 25F81400 		strh	r0, [r5, r4, lsl #1]	@ movhi
 162:C:/Users/geoma/Desktop/Scilab/toolboxes/STM32_toolbox_1-1/scicos_blocks/src/c\convert.c ****                 {
 824              		.loc 1 162 0 discriminator 3
 825 055e 0134     		adds	r4, r4, #1
 826              	.LVL135:
 827              	.L120:
 162:C:/Users/geoma/Desktop/Scilab/toolboxes/STM32_toolbox_1-1/scicos_blocks/src/c\convert.c ****                 {
 828              		.loc 1 162 0 is_stmt 0 discriminator 1
 829 0560 0AFB0BF3 		mul	r3, r10, fp
 830 0564 A342     		cmp	r3, r4
 831 0566 DEDC     		bgt	.L121
 832 0568 01F076BC 		b	.L1
 833              	.LVL136:
 834              	.L10:
 835              	.LBE7:
 836              	.LBB8:
 167:C:/Users/geoma/Desktop/Scilab/toolboxes/STM32_toolbox_1-1/scicos_blocks/src/c\convert.c ****                 }
 168:C:/Users/geoma/Desktop/Scilab/toolboxes/STM32_toolbox_1-1/scicos_blocks/src/c\convert.c ****                 break;
 169:C:/Users/geoma/Desktop/Scilab/toolboxes/STM32_toolbox_1-1/scicos_blocks/src/c\convert.c ****             }
 170:C:/Users/geoma/Desktop/Scilab/toolboxes/STM32_toolbox_1-1/scicos_blocks/src/c\convert.c ****             case 7:
 171:C:/Users/geoma/Desktop/Scilab/toolboxes/STM32_toolbox_1-1/scicos_blocks/src/c\convert.c ****             {
 172:C:/Users/geoma/Desktop/Scilab/toolboxes/STM32_toolbox_1-1/scicos_blocks/src/c\convert.c ****                 SCSREAL_COP *u = NULL;
 173:C:/Users/geoma/Desktop/Scilab/toolboxes/STM32_toolbox_1-1/scicos_blocks/src/c\convert.c ****                 SCSUINT8_COP *y = NULL;
 174:C:/Users/geoma/Desktop/Scilab/toolboxes/STM32_toolbox_1-1/scicos_blocks/src/c\convert.c ****                 u = GetRealInPortPtrs(block, 1);
 837              		.loc 1 174 0 is_stmt 1
 838 056c 436C     		ldr	r3, [r0, #68]
 839 056e 1E68     		ldr	r6, [r3]
 840              	.LVL137:
 175:C:/Users/geoma/Desktop/Scilab/toolboxes/STM32_toolbox_1-1/scicos_blocks/src/c\convert.c ****                 y = Getuint8OutPortPtrs(block, 1);
 841              		.loc 1 175 0
 842 0570 036D     		ldr	r3, [r0, #80]
ARM GAS  C:\Users\geoma\AppData\Local\Temp\ccpZNVPJ.s 			page 19


 843 0572 1D68     		ldr	r5, [r3]
 844              	.LVL138:
 176:C:/Users/geoma/Desktop/Scilab/toolboxes/STM32_toolbox_1-1/scicos_blocks/src/c\convert.c ****                 k = pow(2, 8);
 177:C:/Users/geoma/Desktop/Scilab/toolboxes/STM32_toolbox_1-1/scicos_blocks/src/c\convert.c ****                 for (i = 0; i < m * n; i++)
 845              		.loc 1 177 0
 846 0574 0024     		movs	r4, #0
 847              	.LVL139:
 848 0576 1BE0     		b	.L122
 849              	.LVL140:
 850              	.L123:
 178:C:/Users/geoma/Desktop/Scilab/toolboxes/STM32_toolbox_1-1/scicos_blocks/src/c\convert.c ****                 {
 179:C:/Users/geoma/Desktop/Scilab/toolboxes/STM32_toolbox_1-1/scicos_blocks/src/c\convert.c ****                     v = (double)u[i];
 851              		.loc 1 179 0 discriminator 3
 852 0578 06EBC403 		add	r3, r6, r4, lsl #3
 853 057c D3E90089 		ldrd	r8, [r3]
 854              	.LVL141:
 180:C:/Users/geoma/Desktop/Scilab/toolboxes/STM32_toolbox_1-1/scicos_blocks/src/c\convert.c ****                     w = v - (double)((int)(v / k)) * k;
 855              		.loc 1 180 0 discriminator 3
 856 0580 4046     		mov	r0, r8
 857 0582 4946     		mov	r1, r9
 858 0584 0022     		movs	r2, #0
 859 0586 A84B     		ldr	r3, .L530+32
 860 0588 FFF7FEFF 		bl	__aeabi_dmul
 861              	.LVL142:
 862 058c FFF7FEFF 		bl	__aeabi_d2iz
 863              	.LVL143:
 864 0590 FFF7FEFF 		bl	__aeabi_i2d
 865              	.LVL144:
 866 0594 0022     		movs	r2, #0
 867 0596 A54B     		ldr	r3, .L530+36
 868 0598 FFF7FEFF 		bl	__aeabi_dmul
 869              	.LVL145:
 870 059c 0246     		mov	r2, r0
 871 059e 0B46     		mov	r3, r1
 872 05a0 4046     		mov	r0, r8
 873 05a2 4946     		mov	r1, r9
 874 05a4 FFF7FEFF 		bl	__aeabi_dsub
 875              	.LVL146:
 181:C:/Users/geoma/Desktop/Scilab/toolboxes/STM32_toolbox_1-1/scicos_blocks/src/c\convert.c ****                     y[i] = (SCSUINT8_COP)w;
 876              		.loc 1 181 0 discriminator 3
 877 05a8 FFF7FEFF 		bl	__aeabi_d2uiz
 878              	.LVL147:
 879 05ac 2855     		strb	r0, [r5, r4]
 177:C:/Users/geoma/Desktop/Scilab/toolboxes/STM32_toolbox_1-1/scicos_blocks/src/c\convert.c ****                 {
 880              		.loc 1 177 0 discriminator 3
 881 05ae 0134     		adds	r4, r4, #1
 882              	.LVL148:
 883              	.L122:
 177:C:/Users/geoma/Desktop/Scilab/toolboxes/STM32_toolbox_1-1/scicos_blocks/src/c\convert.c ****                 {
 884              		.loc 1 177 0 is_stmt 0 discriminator 1
 885 05b0 0AFB0BF3 		mul	r3, r10, fp
 886 05b4 A342     		cmp	r3, r4
 887 05b6 DFDC     		bgt	.L123
 888 05b8 01F04EBC 		b	.L1
 889              	.LVL149:
 890              	.L11:
 891              	.LBE8:
ARM GAS  C:\Users\geoma\AppData\Local\Temp\ccpZNVPJ.s 			page 20


 892              	.LBB9:
 182:C:/Users/geoma/Desktop/Scilab/toolboxes/STM32_toolbox_1-1/scicos_blocks/src/c\convert.c ****                 }
 183:C:/Users/geoma/Desktop/Scilab/toolboxes/STM32_toolbox_1-1/scicos_blocks/src/c\convert.c ****                 break;
 184:C:/Users/geoma/Desktop/Scilab/toolboxes/STM32_toolbox_1-1/scicos_blocks/src/c\convert.c ****             }
 185:C:/Users/geoma/Desktop/Scilab/toolboxes/STM32_toolbox_1-1/scicos_blocks/src/c\convert.c ****             case 8:
 186:C:/Users/geoma/Desktop/Scilab/toolboxes/STM32_toolbox_1-1/scicos_blocks/src/c\convert.c ****             {
 187:C:/Users/geoma/Desktop/Scilab/toolboxes/STM32_toolbox_1-1/scicos_blocks/src/c\convert.c ****                 SCSINT32_COP *u = NULL;
 188:C:/Users/geoma/Desktop/Scilab/toolboxes/STM32_toolbox_1-1/scicos_blocks/src/c\convert.c ****                 SCSREAL_COP *y = NULL;
 189:C:/Users/geoma/Desktop/Scilab/toolboxes/STM32_toolbox_1-1/scicos_blocks/src/c\convert.c ****                 u = Getint32InPortPtrs(block, 1);
 893              		.loc 1 189 0 is_stmt 1
 894 05bc 436C     		ldr	r3, [r0, #68]
 895 05be 1F68     		ldr	r7, [r3]
 896              	.LVL150:
 190:C:/Users/geoma/Desktop/Scilab/toolboxes/STM32_toolbox_1-1/scicos_blocks/src/c\convert.c ****                 y = GetRealOutPortPtrs(block, 1);
 897              		.loc 1 190 0
 898 05c0 036D     		ldr	r3, [r0, #80]
 899 05c2 1E68     		ldr	r6, [r3]
 900              	.LVL151:
 191:C:/Users/geoma/Desktop/Scilab/toolboxes/STM32_toolbox_1-1/scicos_blocks/src/c\convert.c ****                 for (i = 0; i < m * n; i++)
 901              		.loc 1 191 0
 902 05c4 0024     		movs	r4, #0
 903              	.LVL152:
 904 05c6 08E0     		b	.L124
 905              	.LVL153:
 906              	.L125:
 192:C:/Users/geoma/Desktop/Scilab/toolboxes/STM32_toolbox_1-1/scicos_blocks/src/c\convert.c ****                 {
 193:C:/Users/geoma/Desktop/Scilab/toolboxes/STM32_toolbox_1-1/scicos_blocks/src/c\convert.c ****                     y[i] = (SCSREAL_COP) u[i];
 907              		.loc 1 193 0 discriminator 3
 908 05c8 06EBC405 		add	r5, r6, r4, lsl #3
 909 05cc 57F82400 		ldr	r0, [r7, r4, lsl #2]
 910 05d0 FFF7FEFF 		bl	__aeabi_i2d
 911              	.LVL154:
 912 05d4 C5E90001 		strd	r0, [r5]
 191:C:/Users/geoma/Desktop/Scilab/toolboxes/STM32_toolbox_1-1/scicos_blocks/src/c\convert.c ****                 for (i = 0; i < m * n; i++)
 913              		.loc 1 191 0 discriminator 3
 914 05d8 0134     		adds	r4, r4, #1
 915              	.LVL155:
 916              	.L124:
 191:C:/Users/geoma/Desktop/Scilab/toolboxes/STM32_toolbox_1-1/scicos_blocks/src/c\convert.c ****                 for (i = 0; i < m * n; i++)
 917              		.loc 1 191 0 is_stmt 0 discriminator 1
 918 05da 0AFB0BF3 		mul	r3, r10, fp
 919 05de A342     		cmp	r3, r4
 920 05e0 F2DC     		bgt	.L125
 921 05e2 01F039BC 		b	.L1
 922              	.LVL156:
 923              	.L12:
 924              	.LBE9:
 925              	.LBB10:
 194:C:/Users/geoma/Desktop/Scilab/toolboxes/STM32_toolbox_1-1/scicos_blocks/src/c\convert.c ****                 }
 195:C:/Users/geoma/Desktop/Scilab/toolboxes/STM32_toolbox_1-1/scicos_blocks/src/c\convert.c ****                 break;
 196:C:/Users/geoma/Desktop/Scilab/toolboxes/STM32_toolbox_1-1/scicos_blocks/src/c\convert.c ****             }
 197:C:/Users/geoma/Desktop/Scilab/toolboxes/STM32_toolbox_1-1/scicos_blocks/src/c\convert.c ****             case 9:
 198:C:/Users/geoma/Desktop/Scilab/toolboxes/STM32_toolbox_1-1/scicos_blocks/src/c\convert.c ****             {
 199:C:/Users/geoma/Desktop/Scilab/toolboxes/STM32_toolbox_1-1/scicos_blocks/src/c\convert.c ****                 SCSINT32_COP *u = NULL;
 200:C:/Users/geoma/Desktop/Scilab/toolboxes/STM32_toolbox_1-1/scicos_blocks/src/c\convert.c ****                 SCSINT16_COP *y = NULL;
 201:C:/Users/geoma/Desktop/Scilab/toolboxes/STM32_toolbox_1-1/scicos_blocks/src/c\convert.c ****                 u = Getint32InPortPtrs(block, 1);
 926              		.loc 1 201 0 is_stmt 1
ARM GAS  C:\Users\geoma\AppData\Local\Temp\ccpZNVPJ.s 			page 21


 927 05e6 436C     		ldr	r3, [r0, #68]
 928 05e8 D3F80080 		ldr	r8, [r3]
 929              	.LVL157:
 202:C:/Users/geoma/Desktop/Scilab/toolboxes/STM32_toolbox_1-1/scicos_blocks/src/c\convert.c ****                 y = Getint16OutPortPtrs(block, 1);
 930              		.loc 1 202 0
 931 05ec 036D     		ldr	r3, [r0, #80]
 932 05ee D3F80090 		ldr	r9, [r3]
 933              	.LVL158:
 203:C:/Users/geoma/Desktop/Scilab/toolboxes/STM32_toolbox_1-1/scicos_blocks/src/c\convert.c ****                 k = pow(2, 16);
 204:C:/Users/geoma/Desktop/Scilab/toolboxes/STM32_toolbox_1-1/scicos_blocks/src/c\convert.c ****                 for (i = 0; i < m * n; i++)
 934              		.loc 1 204 0
 935 05f2 0026     		movs	r6, #0
 936 05f4 79E0     		b	.L126
 937              	.LVL159:
 938              	.L131:
 205:C:/Users/geoma/Desktop/Scilab/toolboxes/STM32_toolbox_1-1/scicos_blocks/src/c\convert.c ****                 {
 206:C:/Users/geoma/Desktop/Scilab/toolboxes/STM32_toolbox_1-1/scicos_blocks/src/c\convert.c ****                     v = (double)u[i];
 939              		.loc 1 206 0
 940 05f6 3746     		mov	r7, r6
 941 05f8 58F82600 		ldr	r0, [r8, r6, lsl #2]
 942 05fc FFF7FEFF 		bl	__aeabi_i2d
 943              	.LVL160:
 944 0600 0446     		mov	r4, r0
 945 0602 0D46     		mov	r5, r1
 946              	.LVL161:
 207:C:/Users/geoma/Desktop/Scilab/toolboxes/STM32_toolbox_1-1/scicos_blocks/src/c\convert.c ****                     w = v - (double)((int)(v / k)) * k;
 947              		.loc 1 207 0
 948 0604 0022     		movs	r2, #0
 949 0606 864B     		ldr	r3, .L530+24
 950 0608 FFF7FEFF 		bl	__aeabi_dmul
 951              	.LVL162:
 952 060c FFF7FEFF 		bl	__aeabi_d2iz
 953              	.LVL163:
 954 0610 FFF7FEFF 		bl	__aeabi_i2d
 955              	.LVL164:
 956 0614 0022     		movs	r2, #0
 957 0616 834B     		ldr	r3, .L530+28
 958 0618 FFF7FEFF 		bl	__aeabi_dmul
 959              	.LVL165:
 960 061c 0246     		mov	r2, r0
 961 061e 0B46     		mov	r3, r1
 962 0620 2046     		mov	r0, r4
 963 0622 2946     		mov	r1, r5
 964 0624 FFF7FEFF 		bl	__aeabi_dsub
 965              	.LVL166:
 966 0628 0446     		mov	r4, r0
 967              	.LVL167:
 968 062a 0D46     		mov	r5, r1
 969              	.LVL168:
 208:C:/Users/geoma/Desktop/Scilab/toolboxes/STM32_toolbox_1-1/scicos_blocks/src/c\convert.c ****                     if (fabs(w) > k / 2 - 1)
 970              		.loc 1 208 0
 971 062c 0690     		str	r0, [sp, #24]
 972 062e 21F00043 		bic	r3, r1, #-2147483648
 973 0632 0793     		str	r3, [sp, #28]
 974 0634 DDE90601 		ldrd	r0, [sp, #24]
 975 0638 73A3     		adr	r3, .L530
 976 063a D3E90023 		ldrd	r2, [r3]
ARM GAS  C:\Users\geoma\AppData\Local\Temp\ccpZNVPJ.s 			page 22


 977 063e FFF7FEFF 		bl	__aeabi_dcmpgt
 978              	.LVL169:
 979 0642 0028     		cmp	r0, #0
 980 0644 4AD0     		beq	.L127
 209:C:/Users/geoma/Desktop/Scilab/toolboxes/STM32_toolbox_1-1/scicos_blocks/src/c\convert.c ****                     {
 210:C:/Users/geoma/Desktop/Scilab/toolboxes/STM32_toolbox_1-1/scicos_blocks/src/c\convert.c ****                         if (w >= 0)
 981              		.loc 1 210 0
 982 0646 2046     		mov	r0, r4
 983 0648 2946     		mov	r1, r5
 984 064a 0022     		movs	r2, #0
 985 064c 0023     		movs	r3, #0
 986 064e FFF7FEFF 		bl	__aeabi_dcmpge
 987              	.LVL170:
 988 0652 08B3     		cbz	r0, .L503
 211:C:/Users/geoma/Desktop/Scilab/toolboxes/STM32_toolbox_1-1/scicos_blocks/src/c\convert.c ****                         {
 212:C:/Users/geoma/Desktop/Scilab/toolboxes/STM32_toolbox_1-1/scicos_blocks/src/c\convert.c ****                             w = (-k / 2 + fabs(w - (double)((int)(w / (k / 2))) * (k / 2)));
 989              		.loc 1 212 0
 990 0654 2046     		mov	r0, r4
 991 0656 2946     		mov	r1, r5
 992 0658 0022     		movs	r2, #0
 993 065a 4FF07C53 		mov	r3, #1056964608
 994 065e FFF7FEFF 		bl	__aeabi_dmul
 995              	.LVL171:
 996 0662 FFF7FEFF 		bl	__aeabi_d2iz
 997              	.LVL172:
 998 0666 FFF7FEFF 		bl	__aeabi_i2d
 999              	.LVL173:
 1000 066a 0022     		movs	r2, #0
 1001 066c 704B     		ldr	r3, .L530+40
 1002 066e FFF7FEFF 		bl	__aeabi_dmul
 1003              	.LVL174:
 1004 0672 0246     		mov	r2, r0
 1005 0674 0B46     		mov	r3, r1
 1006 0676 2046     		mov	r0, r4
 1007 0678 2946     		mov	r1, r5
 1008 067a FFF7FEFF 		bl	__aeabi_dsub
 1009              	.LVL175:
 1010 067e 1890     		str	r0, [sp, #96]
 1011 0680 21F00043 		bic	r3, r1, #-2147483648
 1012 0684 1993     		str	r3, [sp, #100]
 1013 0686 DDE91801 		ldrd	r0, [sp, #96]
 1014 068a 0022     		movs	r2, #0
 1015 068c 684B     		ldr	r3, .L530+40
 1016 068e FFF7FEFF 		bl	__aeabi_dsub
 1017              	.LVL176:
 1018 0692 0446     		mov	r4, r0
 1019              	.LVL177:
 1020 0694 0D46     		mov	r5, r1
 1021              	.LVL178:
 1022 0696 21E0     		b	.L127
 1023              	.L503:
 213:C:/Users/geoma/Desktop/Scilab/toolboxes/STM32_toolbox_1-1/scicos_blocks/src/c\convert.c ****                         }
 214:C:/Users/geoma/Desktop/Scilab/toolboxes/STM32_toolbox_1-1/scicos_blocks/src/c\convert.c ****                         else
 215:C:/Users/geoma/Desktop/Scilab/toolboxes/STM32_toolbox_1-1/scicos_blocks/src/c\convert.c ****                         {
 216:C:/Users/geoma/Desktop/Scilab/toolboxes/STM32_toolbox_1-1/scicos_blocks/src/c\convert.c ****                             w = -(-(k / 2) + fabs(w - (double)((int)(w / (k / 2))) * (k / 2)));
 1024              		.loc 1 216 0
 1025 0698 2046     		mov	r0, r4
ARM GAS  C:\Users\geoma\AppData\Local\Temp\ccpZNVPJ.s 			page 23


 1026 069a 2946     		mov	r1, r5
 1027 069c 0022     		movs	r2, #0
 1028 069e 4FF07C53 		mov	r3, #1056964608
 1029 06a2 FFF7FEFF 		bl	__aeabi_dmul
 1030              	.LVL179:
 1031 06a6 FFF7FEFF 		bl	__aeabi_d2iz
 1032              	.LVL180:
 1033 06aa FFF7FEFF 		bl	__aeabi_i2d
 1034              	.LVL181:
 1035 06ae 0022     		movs	r2, #0
 1036 06b0 5F4B     		ldr	r3, .L530+40
 1037 06b2 FFF7FEFF 		bl	__aeabi_dmul
 1038              	.LVL182:
 1039 06b6 0246     		mov	r2, r0
 1040 06b8 0B46     		mov	r3, r1
 1041 06ba 2046     		mov	r0, r4
 1042 06bc 2946     		mov	r1, r5
 1043 06be FFF7FEFF 		bl	__aeabi_dsub
 1044              	.LVL183:
 1045 06c2 2490     		str	r0, [sp, #144]
 1046 06c4 21F00043 		bic	r3, r1, #-2147483648
 1047 06c8 2593     		str	r3, [sp, #148]
 1048 06ca DDE92401 		ldrd	r0, [sp, #144]
 1049 06ce 0022     		movs	r2, #0
 1050 06d0 574B     		ldr	r3, .L530+40
 1051 06d2 FFF7FEFF 		bl	__aeabi_dsub
 1052              	.LVL184:
 1053 06d6 0446     		mov	r4, r0
 1054              	.LVL185:
 1055 06d8 01F10045 		add	r5, r1, #-2147483648
 1056              	.LVL186:
 1057              	.L127:
 217:C:/Users/geoma/Desktop/Scilab/toolboxes/STM32_toolbox_1-1/scicos_blocks/src/c\convert.c ****                         }
 218:C:/Users/geoma/Desktop/Scilab/toolboxes/STM32_toolbox_1-1/scicos_blocks/src/c\convert.c ****                     }
 219:C:/Users/geoma/Desktop/Scilab/toolboxes/STM32_toolbox_1-1/scicos_blocks/src/c\convert.c ****                     y[i] = (SCSINT16_COP)w;
 1058              		.loc 1 219 0 discriminator 2
 1059 06dc 2046     		mov	r0, r4
 1060 06de 2946     		mov	r1, r5
 1061 06e0 FFF7FEFF 		bl	__aeabi_d2iz
 1062              	.LVL187:
 1063 06e4 29F81700 		strh	r0, [r9, r7, lsl #1]	@ movhi
 204:C:/Users/geoma/Desktop/Scilab/toolboxes/STM32_toolbox_1-1/scicos_blocks/src/c\convert.c ****                 {
 1064              		.loc 1 204 0 discriminator 2
 1065 06e8 0136     		adds	r6, r6, #1
 1066              	.LVL188:
 1067              	.L126:
 204:C:/Users/geoma/Desktop/Scilab/toolboxes/STM32_toolbox_1-1/scicos_blocks/src/c\convert.c ****                 {
 1068              		.loc 1 204 0 is_stmt 0 discriminator 1
 1069 06ea 0AFB0BF3 		mul	r3, r10, fp
 1070 06ee B342     		cmp	r3, r6
 1071 06f0 81DC     		bgt	.L131
 1072 06f2 01F0B1BB 		b	.L1
 1073              	.LVL189:
 1074              	.L13:
 1075              	.LBE10:
 1076              	.LBB11:
 220:C:/Users/geoma/Desktop/Scilab/toolboxes/STM32_toolbox_1-1/scicos_blocks/src/c\convert.c ****                 }
ARM GAS  C:\Users\geoma\AppData\Local\Temp\ccpZNVPJ.s 			page 24


 221:C:/Users/geoma/Desktop/Scilab/toolboxes/STM32_toolbox_1-1/scicos_blocks/src/c\convert.c ****                 break;
 222:C:/Users/geoma/Desktop/Scilab/toolboxes/STM32_toolbox_1-1/scicos_blocks/src/c\convert.c ****             }
 223:C:/Users/geoma/Desktop/Scilab/toolboxes/STM32_toolbox_1-1/scicos_blocks/src/c\convert.c ****             case 10:
 224:C:/Users/geoma/Desktop/Scilab/toolboxes/STM32_toolbox_1-1/scicos_blocks/src/c\convert.c ****             {
 225:C:/Users/geoma/Desktop/Scilab/toolboxes/STM32_toolbox_1-1/scicos_blocks/src/c\convert.c ****                 SCSINT32_COP *u = NULL;
 226:C:/Users/geoma/Desktop/Scilab/toolboxes/STM32_toolbox_1-1/scicos_blocks/src/c\convert.c ****                 SCSINT8_COP *y = NULL;
 227:C:/Users/geoma/Desktop/Scilab/toolboxes/STM32_toolbox_1-1/scicos_blocks/src/c\convert.c ****                 u = Getint32InPortPtrs(block, 1);
 1077              		.loc 1 227 0 is_stmt 1
 1078 06f6 436C     		ldr	r3, [r0, #68]
 1079 06f8 D3F80080 		ldr	r8, [r3]
 1080              	.LVL190:
 228:C:/Users/geoma/Desktop/Scilab/toolboxes/STM32_toolbox_1-1/scicos_blocks/src/c\convert.c ****                 y = Getint8OutPortPtrs(block, 1);
 1081              		.loc 1 228 0
 1082 06fc 036D     		ldr	r3, [r0, #80]
 1083 06fe D3F80090 		ldr	r9, [r3]
 1084              	.LVL191:
 229:C:/Users/geoma/Desktop/Scilab/toolboxes/STM32_toolbox_1-1/scicos_blocks/src/c\convert.c ****                 k = pow(2, 8);
 230:C:/Users/geoma/Desktop/Scilab/toolboxes/STM32_toolbox_1-1/scicos_blocks/src/c\convert.c ****                 for (i = 0; i < m * n; i++)
 1085              		.loc 1 230 0
 1086 0702 0026     		movs	r6, #0
 1087 0704 79E0     		b	.L132
 1088              	.LVL192:
 1089              	.L137:
 231:C:/Users/geoma/Desktop/Scilab/toolboxes/STM32_toolbox_1-1/scicos_blocks/src/c\convert.c ****                 {
 232:C:/Users/geoma/Desktop/Scilab/toolboxes/STM32_toolbox_1-1/scicos_blocks/src/c\convert.c ****                     v = (double)u[i];
 1090              		.loc 1 232 0
 1091 0706 3746     		mov	r7, r6
 1092 0708 58F82600 		ldr	r0, [r8, r6, lsl #2]
 1093 070c FFF7FEFF 		bl	__aeabi_i2d
 1094              	.LVL193:
 1095 0710 0446     		mov	r4, r0
 1096 0712 0D46     		mov	r5, r1
 1097              	.LVL194:
 233:C:/Users/geoma/Desktop/Scilab/toolboxes/STM32_toolbox_1-1/scicos_blocks/src/c\convert.c ****                     w = v - (double)((int)(v / k)) * k;
 1098              		.loc 1 233 0
 1099 0714 0022     		movs	r2, #0
 1100 0716 444B     		ldr	r3, .L530+32
 1101 0718 FFF7FEFF 		bl	__aeabi_dmul
 1102              	.LVL195:
 1103 071c FFF7FEFF 		bl	__aeabi_d2iz
 1104              	.LVL196:
 1105 0720 FFF7FEFF 		bl	__aeabi_i2d
 1106              	.LVL197:
 1107 0724 0022     		movs	r2, #0
 1108 0726 414B     		ldr	r3, .L530+36
 1109 0728 FFF7FEFF 		bl	__aeabi_dmul
 1110              	.LVL198:
 1111 072c 0246     		mov	r2, r0
 1112 072e 0B46     		mov	r3, r1
 1113 0730 2046     		mov	r0, r4
 1114 0732 2946     		mov	r1, r5
 1115 0734 FFF7FEFF 		bl	__aeabi_dsub
 1116              	.LVL199:
 1117 0738 0446     		mov	r4, r0
 1118              	.LVL200:
 1119 073a 0D46     		mov	r5, r1
 1120              	.LVL201:
ARM GAS  C:\Users\geoma\AppData\Local\Temp\ccpZNVPJ.s 			page 25


 234:C:/Users/geoma/Desktop/Scilab/toolboxes/STM32_toolbox_1-1/scicos_blocks/src/c\convert.c ****                     if (fabs(w) > k / 2 - 1)
 1121              		.loc 1 234 0
 1122 073c 0890     		str	r0, [sp, #32]
 1123 073e 21F00043 		bic	r3, r1, #-2147483648
 1124 0742 0993     		str	r3, [sp, #36]
 1125 0744 DDE90801 		ldrd	r0, [sp, #32]
 1126 0748 31A3     		adr	r3, .L530+8
 1127 074a D3E90023 		ldrd	r2, [r3]
 1128 074e FFF7FEFF 		bl	__aeabi_dcmpgt
 1129              	.LVL202:
 1130 0752 0028     		cmp	r0, #0
 1131 0754 4AD0     		beq	.L133
 235:C:/Users/geoma/Desktop/Scilab/toolboxes/STM32_toolbox_1-1/scicos_blocks/src/c\convert.c ****                     {
 236:C:/Users/geoma/Desktop/Scilab/toolboxes/STM32_toolbox_1-1/scicos_blocks/src/c\convert.c ****                         if (w >= 0)
 1132              		.loc 1 236 0
 1133 0756 2046     		mov	r0, r4
 1134 0758 2946     		mov	r1, r5
 1135 075a 0022     		movs	r2, #0
 1136 075c 0023     		movs	r3, #0
 1137 075e FFF7FEFF 		bl	__aeabi_dcmpge
 1138              	.LVL203:
 1139 0762 08B3     		cbz	r0, .L504
 237:C:/Users/geoma/Desktop/Scilab/toolboxes/STM32_toolbox_1-1/scicos_blocks/src/c\convert.c ****                         {
 238:C:/Users/geoma/Desktop/Scilab/toolboxes/STM32_toolbox_1-1/scicos_blocks/src/c\convert.c ****                             w = (-k / 2 + fabs(w - (double)((int)(w / (k / 2))) * (k / 2)));
 1140              		.loc 1 238 0
 1141 0764 2046     		mov	r0, r4
 1142 0766 2946     		mov	r1, r5
 1143 0768 0022     		movs	r2, #0
 1144 076a 4FF07E53 		mov	r3, #1065353216
 1145 076e FFF7FEFF 		bl	__aeabi_dmul
 1146              	.LVL204:
 1147 0772 FFF7FEFF 		bl	__aeabi_d2iz
 1148              	.LVL205:
 1149 0776 FFF7FEFF 		bl	__aeabi_i2d
 1150              	.LVL206:
 1151 077a 0022     		movs	r2, #0
 1152 077c 2D4B     		ldr	r3, .L530+44
 1153 077e FFF7FEFF 		bl	__aeabi_dmul
 1154              	.LVL207:
 1155 0782 0246     		mov	r2, r0
 1156 0784 0B46     		mov	r3, r1
 1157 0786 2046     		mov	r0, r4
 1158 0788 2946     		mov	r1, r5
 1159 078a FFF7FEFF 		bl	__aeabi_dsub
 1160              	.LVL208:
 1161 078e 1A90     		str	r0, [sp, #104]
 1162 0790 21F00043 		bic	r3, r1, #-2147483648
 1163 0794 1B93     		str	r3, [sp, #108]
 1164 0796 DDE91A01 		ldrd	r0, [sp, #104]
 1165 079a 0022     		movs	r2, #0
 1166 079c 254B     		ldr	r3, .L530+44
 1167 079e FFF7FEFF 		bl	__aeabi_dsub
 1168              	.LVL209:
 1169 07a2 0446     		mov	r4, r0
 1170              	.LVL210:
 1171 07a4 0D46     		mov	r5, r1
 1172              	.LVL211:
ARM GAS  C:\Users\geoma\AppData\Local\Temp\ccpZNVPJ.s 			page 26


 1173 07a6 21E0     		b	.L133
 1174              	.L504:
 239:C:/Users/geoma/Desktop/Scilab/toolboxes/STM32_toolbox_1-1/scicos_blocks/src/c\convert.c ****                         }
 240:C:/Users/geoma/Desktop/Scilab/toolboxes/STM32_toolbox_1-1/scicos_blocks/src/c\convert.c ****                         else
 241:C:/Users/geoma/Desktop/Scilab/toolboxes/STM32_toolbox_1-1/scicos_blocks/src/c\convert.c ****                         {
 242:C:/Users/geoma/Desktop/Scilab/toolboxes/STM32_toolbox_1-1/scicos_blocks/src/c\convert.c ****                             w = -(-(k / 2) + fabs(w - (double)((int)(w / (k / 2))) * (k / 2)));
 1175              		.loc 1 242 0
 1176 07a8 2046     		mov	r0, r4
 1177 07aa 2946     		mov	r1, r5
 1178 07ac 0022     		movs	r2, #0
 1179 07ae 4FF07E53 		mov	r3, #1065353216
 1180 07b2 FFF7FEFF 		bl	__aeabi_dmul
 1181              	.LVL212:
 1182 07b6 FFF7FEFF 		bl	__aeabi_d2iz
 1183              	.LVL213:
 1184 07ba FFF7FEFF 		bl	__aeabi_i2d
 1185              	.LVL214:
 1186 07be 0022     		movs	r2, #0
 1187 07c0 1C4B     		ldr	r3, .L530+44
 1188 07c2 FFF7FEFF 		bl	__aeabi_dmul
 1189              	.LVL215:
 1190 07c6 0246     		mov	r2, r0
 1191 07c8 0B46     		mov	r3, r1
 1192 07ca 2046     		mov	r0, r4
 1193 07cc 2946     		mov	r1, r5
 1194 07ce FFF7FEFF 		bl	__aeabi_dsub
 1195              	.LVL216:
 1196 07d2 2690     		str	r0, [sp, #152]
 1197 07d4 21F00043 		bic	r3, r1, #-2147483648
 1198 07d8 2793     		str	r3, [sp, #156]
 1199 07da DDE92601 		ldrd	r0, [sp, #152]
 1200 07de 0022     		movs	r2, #0
 1201 07e0 144B     		ldr	r3, .L530+44
 1202 07e2 FFF7FEFF 		bl	__aeabi_dsub
 1203              	.LVL217:
 1204 07e6 0446     		mov	r4, r0
 1205              	.LVL218:
 1206 07e8 01F10045 		add	r5, r1, #-2147483648
 1207              	.LVL219:
 1208              	.L133:
 243:C:/Users/geoma/Desktop/Scilab/toolboxes/STM32_toolbox_1-1/scicos_blocks/src/c\convert.c ****                         }
 244:C:/Users/geoma/Desktop/Scilab/toolboxes/STM32_toolbox_1-1/scicos_blocks/src/c\convert.c ****                     }
 245:C:/Users/geoma/Desktop/Scilab/toolboxes/STM32_toolbox_1-1/scicos_blocks/src/c\convert.c ****                     y[i] = (SCSINT8_COP)w;
 1209              		.loc 1 245 0 discriminator 2
 1210 07ec 2046     		mov	r0, r4
 1211 07ee 2946     		mov	r1, r5
 1212 07f0 FFF7FEFF 		bl	__aeabi_d2uiz
 1213              	.LVL220:
 1214 07f4 09F80700 		strb	r0, [r9, r7]
 230:C:/Users/geoma/Desktop/Scilab/toolboxes/STM32_toolbox_1-1/scicos_blocks/src/c\convert.c ****                 {
 1215              		.loc 1 230 0 discriminator 2
 1216 07f8 0136     		adds	r6, r6, #1
 1217              	.LVL221:
 1218              	.L132:
 230:C:/Users/geoma/Desktop/Scilab/toolboxes/STM32_toolbox_1-1/scicos_blocks/src/c\convert.c ****                 {
 1219              		.loc 1 230 0 is_stmt 0 discriminator 1
 1220 07fa 0AFB0BF3 		mul	r3, r10, fp
ARM GAS  C:\Users\geoma\AppData\Local\Temp\ccpZNVPJ.s 			page 27


 1221 07fe B342     		cmp	r3, r6
 1222 0800 81DC     		bgt	.L137
 1223 0802 01F029BB 		b	.L1
 1224              	.L531:
 1225 0806 00BF     		.align	3
 1226              	.L530:
 1227 0808 00000000 		.word	0
 1228 080c C0FFDF40 		.word	1088421824
 1229 0810 00000000 		.word	0
 1230 0814 00C05F40 		.word	1080016896
 1231 0818 0000F03D 		.word	1039138816
 1232 081c 0000F041 		.word	1106247680
 1233 0820 0000F03E 		.word	1055916032
 1234 0824 0000F040 		.word	1089470464
 1235 0828 0000703F 		.word	1064304640
 1236 082c 00007040 		.word	1081081856
 1237 0830 0000E040 		.word	1088421888
 1238 0834 00006040 		.word	1080033280
 1239              	.LVL222:
 1240              	.L14:
 1241              	.LBE11:
 1242              	.LBB12:
 246:C:/Users/geoma/Desktop/Scilab/toolboxes/STM32_toolbox_1-1/scicos_blocks/src/c\convert.c ****                 }
 247:C:/Users/geoma/Desktop/Scilab/toolboxes/STM32_toolbox_1-1/scicos_blocks/src/c\convert.c ****                 break;
 248:C:/Users/geoma/Desktop/Scilab/toolboxes/STM32_toolbox_1-1/scicos_blocks/src/c\convert.c ****             }
 249:C:/Users/geoma/Desktop/Scilab/toolboxes/STM32_toolbox_1-1/scicos_blocks/src/c\convert.c ****             case 11:
 250:C:/Users/geoma/Desktop/Scilab/toolboxes/STM32_toolbox_1-1/scicos_blocks/src/c\convert.c ****             {
 251:C:/Users/geoma/Desktop/Scilab/toolboxes/STM32_toolbox_1-1/scicos_blocks/src/c\convert.c ****                 SCSINT32_COP *u = NULL;
 252:C:/Users/geoma/Desktop/Scilab/toolboxes/STM32_toolbox_1-1/scicos_blocks/src/c\convert.c ****                 SCSUINT16_COP *y = NULL;
 253:C:/Users/geoma/Desktop/Scilab/toolboxes/STM32_toolbox_1-1/scicos_blocks/src/c\convert.c ****                 u = Getint32InPortPtrs(block, 1);
 1243              		.loc 1 253 0 is_stmt 1
 1244 0838 436C     		ldr	r3, [r0, #68]
 1245 083a 1F68     		ldr	r7, [r3]
 1246              	.LVL223:
 254:C:/Users/geoma/Desktop/Scilab/toolboxes/STM32_toolbox_1-1/scicos_blocks/src/c\convert.c ****                 y = Getuint16OutPortPtrs(block, 1);
 1247              		.loc 1 254 0
 1248 083c 036D     		ldr	r3, [r0, #80]
 1249 083e D3F80080 		ldr	r8, [r3]
 1250              	.LVL224:
 255:C:/Users/geoma/Desktop/Scilab/toolboxes/STM32_toolbox_1-1/scicos_blocks/src/c\convert.c ****                 k = pow(2, 16);
 256:C:/Users/geoma/Desktop/Scilab/toolboxes/STM32_toolbox_1-1/scicos_blocks/src/c\convert.c ****                 for (i = 0; i < m * n; i++)
 1251              		.loc 1 256 0
 1252 0842 0026     		movs	r6, #0
 1253 0844 1CE0     		b	.L138
 1254              	.LVL225:
 1255              	.L139:
 257:C:/Users/geoma/Desktop/Scilab/toolboxes/STM32_toolbox_1-1/scicos_blocks/src/c\convert.c ****                 {
 258:C:/Users/geoma/Desktop/Scilab/toolboxes/STM32_toolbox_1-1/scicos_blocks/src/c\convert.c ****                     v = (double)u[i];
 1256              		.loc 1 258 0 discriminator 3
 1257 0846 57F82600 		ldr	r0, [r7, r6, lsl #2]
 1258 084a FFF7FEFF 		bl	__aeabi_i2d
 1259              	.LVL226:
 1260 084e 0446     		mov	r4, r0
 1261 0850 0D46     		mov	r5, r1
 1262              	.LVL227:
 259:C:/Users/geoma/Desktop/Scilab/toolboxes/STM32_toolbox_1-1/scicos_blocks/src/c\convert.c ****                     w = v - (double)((int)(v / k)) * k;
 1263              		.loc 1 259 0 discriminator 3
ARM GAS  C:\Users\geoma\AppData\Local\Temp\ccpZNVPJ.s 			page 28


 1264 0852 0022     		movs	r2, #0
 1265 0854 C64B     		ldr	r3, .L532+8
 1266 0856 FFF7FEFF 		bl	__aeabi_dmul
 1267              	.LVL228:
 1268 085a FFF7FEFF 		bl	__aeabi_d2iz
 1269              	.LVL229:
 1270 085e FFF7FEFF 		bl	__aeabi_i2d
 1271              	.LVL230:
 1272 0862 0022     		movs	r2, #0
 1273 0864 C34B     		ldr	r3, .L532+12
 1274 0866 FFF7FEFF 		bl	__aeabi_dmul
 1275              	.LVL231:
 1276 086a 0246     		mov	r2, r0
 1277 086c 0B46     		mov	r3, r1
 1278 086e 2046     		mov	r0, r4
 1279 0870 2946     		mov	r1, r5
 1280 0872 FFF7FEFF 		bl	__aeabi_dsub
 1281              	.LVL232:
 260:C:/Users/geoma/Desktop/Scilab/toolboxes/STM32_toolbox_1-1/scicos_blocks/src/c\convert.c ****                     y[i] = (SCSUINT16_COP)w;
 1282              		.loc 1 260 0 discriminator 3
 1283 0876 FFF7FEFF 		bl	__aeabi_d2uiz
 1284              	.LVL233:
 1285 087a 28F81600 		strh	r0, [r8, r6, lsl #1]	@ movhi
 256:C:/Users/geoma/Desktop/Scilab/toolboxes/STM32_toolbox_1-1/scicos_blocks/src/c\convert.c ****                 {
 1286              		.loc 1 256 0 discriminator 3
 1287 087e 0136     		adds	r6, r6, #1
 1288              	.LVL234:
 1289              	.L138:
 256:C:/Users/geoma/Desktop/Scilab/toolboxes/STM32_toolbox_1-1/scicos_blocks/src/c\convert.c ****                 {
 1290              		.loc 1 256 0 is_stmt 0 discriminator 1
 1291 0880 0AFB0BF3 		mul	r3, r10, fp
 1292 0884 B342     		cmp	r3, r6
 1293 0886 DEDC     		bgt	.L139
 1294 0888 01F0E6BA 		b	.L1
 1295              	.LVL235:
 1296              	.L15:
 1297              	.LBE12:
 1298              	.LBB13:
 261:C:/Users/geoma/Desktop/Scilab/toolboxes/STM32_toolbox_1-1/scicos_blocks/src/c\convert.c ****                 }
 262:C:/Users/geoma/Desktop/Scilab/toolboxes/STM32_toolbox_1-1/scicos_blocks/src/c\convert.c ****                 break;
 263:C:/Users/geoma/Desktop/Scilab/toolboxes/STM32_toolbox_1-1/scicos_blocks/src/c\convert.c ****             }
 264:C:/Users/geoma/Desktop/Scilab/toolboxes/STM32_toolbox_1-1/scicos_blocks/src/c\convert.c ****             case 12:
 265:C:/Users/geoma/Desktop/Scilab/toolboxes/STM32_toolbox_1-1/scicos_blocks/src/c\convert.c ****             {
 266:C:/Users/geoma/Desktop/Scilab/toolboxes/STM32_toolbox_1-1/scicos_blocks/src/c\convert.c ****                 SCSINT32_COP *u = NULL;
 267:C:/Users/geoma/Desktop/Scilab/toolboxes/STM32_toolbox_1-1/scicos_blocks/src/c\convert.c ****                 SCSUINT8_COP *y = NULL;
 268:C:/Users/geoma/Desktop/Scilab/toolboxes/STM32_toolbox_1-1/scicos_blocks/src/c\convert.c ****                 u = Getint32InPortPtrs(block, 1);
 1299              		.loc 1 268 0 is_stmt 1
 1300 088c 436C     		ldr	r3, [r0, #68]
 1301 088e 1F68     		ldr	r7, [r3]
 1302              	.LVL236:
 269:C:/Users/geoma/Desktop/Scilab/toolboxes/STM32_toolbox_1-1/scicos_blocks/src/c\convert.c ****                 y = Getuint8OutPortPtrs(block, 1);
 1303              		.loc 1 269 0
 1304 0890 036D     		ldr	r3, [r0, #80]
 1305 0892 D3F80080 		ldr	r8, [r3]
 1306              	.LVL237:
 270:C:/Users/geoma/Desktop/Scilab/toolboxes/STM32_toolbox_1-1/scicos_blocks/src/c\convert.c ****                 k = pow(2, 8);
 271:C:/Users/geoma/Desktop/Scilab/toolboxes/STM32_toolbox_1-1/scicos_blocks/src/c\convert.c ****                 for (i = 0; i < m * n; i++)
ARM GAS  C:\Users\geoma\AppData\Local\Temp\ccpZNVPJ.s 			page 29


 1307              		.loc 1 271 0
 1308 0896 0026     		movs	r6, #0
 1309 0898 1CE0     		b	.L140
 1310              	.LVL238:
 1311              	.L141:
 272:C:/Users/geoma/Desktop/Scilab/toolboxes/STM32_toolbox_1-1/scicos_blocks/src/c\convert.c ****                 {
 273:C:/Users/geoma/Desktop/Scilab/toolboxes/STM32_toolbox_1-1/scicos_blocks/src/c\convert.c ****                     v = (double)u[i];
 1312              		.loc 1 273 0 discriminator 3
 1313 089a 57F82600 		ldr	r0, [r7, r6, lsl #2]
 1314 089e FFF7FEFF 		bl	__aeabi_i2d
 1315              	.LVL239:
 1316 08a2 0446     		mov	r4, r0
 1317 08a4 0D46     		mov	r5, r1
 1318              	.LVL240:
 274:C:/Users/geoma/Desktop/Scilab/toolboxes/STM32_toolbox_1-1/scicos_blocks/src/c\convert.c ****                     w = v - (double)((int)(v / k)) * k;
 1319              		.loc 1 274 0 discriminator 3
 1320 08a6 0022     		movs	r2, #0
 1321 08a8 B34B     		ldr	r3, .L532+16
 1322 08aa FFF7FEFF 		bl	__aeabi_dmul
 1323              	.LVL241:
 1324 08ae FFF7FEFF 		bl	__aeabi_d2iz
 1325              	.LVL242:
 1326 08b2 FFF7FEFF 		bl	__aeabi_i2d
 1327              	.LVL243:
 1328 08b6 0022     		movs	r2, #0
 1329 08b8 B04B     		ldr	r3, .L532+20
 1330 08ba FFF7FEFF 		bl	__aeabi_dmul
 1331              	.LVL244:
 1332 08be 0246     		mov	r2, r0
 1333 08c0 0B46     		mov	r3, r1
 1334 08c2 2046     		mov	r0, r4
 1335 08c4 2946     		mov	r1, r5
 1336 08c6 FFF7FEFF 		bl	__aeabi_dsub
 1337              	.LVL245:
 275:C:/Users/geoma/Desktop/Scilab/toolboxes/STM32_toolbox_1-1/scicos_blocks/src/c\convert.c ****                     y[i] = (SCSUINT8_COP)w;
 1338              		.loc 1 275 0 discriminator 3
 1339 08ca FFF7FEFF 		bl	__aeabi_d2uiz
 1340              	.LVL246:
 1341 08ce 08F80600 		strb	r0, [r8, r6]
 271:C:/Users/geoma/Desktop/Scilab/toolboxes/STM32_toolbox_1-1/scicos_blocks/src/c\convert.c ****                 {
 1342              		.loc 1 271 0 discriminator 3
 1343 08d2 0136     		adds	r6, r6, #1
 1344              	.LVL247:
 1345              	.L140:
 271:C:/Users/geoma/Desktop/Scilab/toolboxes/STM32_toolbox_1-1/scicos_blocks/src/c\convert.c ****                 {
 1346              		.loc 1 271 0 is_stmt 0 discriminator 1
 1347 08d4 0AFB0BF3 		mul	r3, r10, fp
 1348 08d8 B342     		cmp	r3, r6
 1349 08da DEDC     		bgt	.L141
 1350 08dc 01F0BCBA 		b	.L1
 1351              	.LVL248:
 1352              	.L16:
 1353              	.LBE13:
 1354              	.LBB14:
 276:C:/Users/geoma/Desktop/Scilab/toolboxes/STM32_toolbox_1-1/scicos_blocks/src/c\convert.c ****                 }
 277:C:/Users/geoma/Desktop/Scilab/toolboxes/STM32_toolbox_1-1/scicos_blocks/src/c\convert.c ****                 break;
 278:C:/Users/geoma/Desktop/Scilab/toolboxes/STM32_toolbox_1-1/scicos_blocks/src/c\convert.c ****             }
ARM GAS  C:\Users\geoma\AppData\Local\Temp\ccpZNVPJ.s 			page 30


 279:C:/Users/geoma/Desktop/Scilab/toolboxes/STM32_toolbox_1-1/scicos_blocks/src/c\convert.c ****             case 13:
 280:C:/Users/geoma/Desktop/Scilab/toolboxes/STM32_toolbox_1-1/scicos_blocks/src/c\convert.c ****             {
 281:C:/Users/geoma/Desktop/Scilab/toolboxes/STM32_toolbox_1-1/scicos_blocks/src/c\convert.c ****                 SCSINT16_COP *u = NULL;
 282:C:/Users/geoma/Desktop/Scilab/toolboxes/STM32_toolbox_1-1/scicos_blocks/src/c\convert.c ****                 double *y = NULL;
 283:C:/Users/geoma/Desktop/Scilab/toolboxes/STM32_toolbox_1-1/scicos_blocks/src/c\convert.c ****                 u = Getint16InPortPtrs(block, 1);
 1355              		.loc 1 283 0 is_stmt 1
 1356 08e0 436C     		ldr	r3, [r0, #68]
 1357 08e2 1F68     		ldr	r7, [r3]
 1358              	.LVL249:
 284:C:/Users/geoma/Desktop/Scilab/toolboxes/STM32_toolbox_1-1/scicos_blocks/src/c\convert.c ****                 y = GetRealOutPortPtrs(block, 1);
 1359              		.loc 1 284 0
 1360 08e4 036D     		ldr	r3, [r0, #80]
 1361 08e6 1E68     		ldr	r6, [r3]
 1362              	.LVL250:
 285:C:/Users/geoma/Desktop/Scilab/toolboxes/STM32_toolbox_1-1/scicos_blocks/src/c\convert.c ****                 for (i = 0; i < m * n; i++)
 1363              		.loc 1 285 0
 1364 08e8 0024     		movs	r4, #0
 1365              	.LVL251:
 1366 08ea 08E0     		b	.L142
 1367              	.LVL252:
 1368              	.L143:
 286:C:/Users/geoma/Desktop/Scilab/toolboxes/STM32_toolbox_1-1/scicos_blocks/src/c\convert.c ****                 {
 287:C:/Users/geoma/Desktop/Scilab/toolboxes/STM32_toolbox_1-1/scicos_blocks/src/c\convert.c ****                     y[i] = (double) u[i];
 1369              		.loc 1 287 0 discriminator 3
 1370 08ec 06EBC405 		add	r5, r6, r4, lsl #3
 1371 08f0 37F91400 		ldrsh	r0, [r7, r4, lsl #1]
 1372 08f4 FFF7FEFF 		bl	__aeabi_i2d
 1373              	.LVL253:
 1374 08f8 C5E90001 		strd	r0, [r5]
 285:C:/Users/geoma/Desktop/Scilab/toolboxes/STM32_toolbox_1-1/scicos_blocks/src/c\convert.c ****                 for (i = 0; i < m * n; i++)
 1375              		.loc 1 285 0 discriminator 3
 1376 08fc 0134     		adds	r4, r4, #1
 1377              	.LVL254:
 1378              	.L142:
 285:C:/Users/geoma/Desktop/Scilab/toolboxes/STM32_toolbox_1-1/scicos_blocks/src/c\convert.c ****                 for (i = 0; i < m * n; i++)
 1379              		.loc 1 285 0 is_stmt 0 discriminator 1
 1380 08fe 0AFB0BF3 		mul	r3, r10, fp
 1381 0902 A342     		cmp	r3, r4
 1382 0904 F2DC     		bgt	.L143
 1383 0906 01F0A7BA 		b	.L1
 1384              	.LVL255:
 1385              	.L17:
 1386              	.LBE14:
 1387              	.LBB15:
 288:C:/Users/geoma/Desktop/Scilab/toolboxes/STM32_toolbox_1-1/scicos_blocks/src/c\convert.c ****                 }
 289:C:/Users/geoma/Desktop/Scilab/toolboxes/STM32_toolbox_1-1/scicos_blocks/src/c\convert.c ****                 break;
 290:C:/Users/geoma/Desktop/Scilab/toolboxes/STM32_toolbox_1-1/scicos_blocks/src/c\convert.c ****             }
 291:C:/Users/geoma/Desktop/Scilab/toolboxes/STM32_toolbox_1-1/scicos_blocks/src/c\convert.c ****             case 14:
 292:C:/Users/geoma/Desktop/Scilab/toolboxes/STM32_toolbox_1-1/scicos_blocks/src/c\convert.c ****             {
 293:C:/Users/geoma/Desktop/Scilab/toolboxes/STM32_toolbox_1-1/scicos_blocks/src/c\convert.c ****                 SCSINT16_COP *u = NULL;
 294:C:/Users/geoma/Desktop/Scilab/toolboxes/STM32_toolbox_1-1/scicos_blocks/src/c\convert.c ****                 SCSINT32_COP *y = NULL;
 295:C:/Users/geoma/Desktop/Scilab/toolboxes/STM32_toolbox_1-1/scicos_blocks/src/c\convert.c ****                 u = Getint16InPortPtrs(block, 1);
 1388              		.loc 1 295 0 is_stmt 1
 1389 090a 436C     		ldr	r3, [r0, #68]
 1390 090c 1C68     		ldr	r4, [r3]
 1391              	.LVL256:
 296:C:/Users/geoma/Desktop/Scilab/toolboxes/STM32_toolbox_1-1/scicos_blocks/src/c\convert.c ****                 y = Getint32OutPortPtrs(block, 1);
ARM GAS  C:\Users\geoma\AppData\Local\Temp\ccpZNVPJ.s 			page 31


 1392              		.loc 1 296 0
 1393 090e 036D     		ldr	r3, [r0, #80]
 1394 0910 1968     		ldr	r1, [r3]
 1395              	.LVL257:
 297:C:/Users/geoma/Desktop/Scilab/toolboxes/STM32_toolbox_1-1/scicos_blocks/src/c\convert.c ****                 for (i = 0; i < m * n; i++)
 1396              		.loc 1 297 0
 1397 0912 0023     		movs	r3, #0
 1398 0914 04E0     		b	.L144
 1399              	.LVL258:
 1400              	.L145:
 298:C:/Users/geoma/Desktop/Scilab/toolboxes/STM32_toolbox_1-1/scicos_blocks/src/c\convert.c ****                 {
 299:C:/Users/geoma/Desktop/Scilab/toolboxes/STM32_toolbox_1-1/scicos_blocks/src/c\convert.c ****                     y[i] = (SCSINT32_COP)u[i];
 1401              		.loc 1 299 0 discriminator 3
 1402 0916 34F91320 		ldrsh	r2, [r4, r3, lsl #1]
 1403 091a 41F82320 		str	r2, [r1, r3, lsl #2]
 297:C:/Users/geoma/Desktop/Scilab/toolboxes/STM32_toolbox_1-1/scicos_blocks/src/c\convert.c ****                 for (i = 0; i < m * n; i++)
 1404              		.loc 1 297 0 discriminator 3
 1405 091e 0133     		adds	r3, r3, #1
 1406              	.LVL259:
 1407              	.L144:
 297:C:/Users/geoma/Desktop/Scilab/toolboxes/STM32_toolbox_1-1/scicos_blocks/src/c\convert.c ****                 for (i = 0; i < m * n; i++)
 1408              		.loc 1 297 0 is_stmt 0 discriminator 1
 1409 0920 0AFB0BF2 		mul	r2, r10, fp
 1410 0924 9A42     		cmp	r2, r3
 1411 0926 F6DC     		bgt	.L145
 1412 0928 01F096BA 		b	.L1
 1413              	.LVL260:
 1414              	.L18:
 1415              	.LBE15:
 1416              	.LBB16:
 300:C:/Users/geoma/Desktop/Scilab/toolboxes/STM32_toolbox_1-1/scicos_blocks/src/c\convert.c ****                 }
 301:C:/Users/geoma/Desktop/Scilab/toolboxes/STM32_toolbox_1-1/scicos_blocks/src/c\convert.c ****                 break;
 302:C:/Users/geoma/Desktop/Scilab/toolboxes/STM32_toolbox_1-1/scicos_blocks/src/c\convert.c ****             }
 303:C:/Users/geoma/Desktop/Scilab/toolboxes/STM32_toolbox_1-1/scicos_blocks/src/c\convert.c ****             case 15:
 304:C:/Users/geoma/Desktop/Scilab/toolboxes/STM32_toolbox_1-1/scicos_blocks/src/c\convert.c ****             {
 305:C:/Users/geoma/Desktop/Scilab/toolboxes/STM32_toolbox_1-1/scicos_blocks/src/c\convert.c ****                 SCSINT16_COP *u = NULL;
 306:C:/Users/geoma/Desktop/Scilab/toolboxes/STM32_toolbox_1-1/scicos_blocks/src/c\convert.c ****                 SCSINT8_COP *y = NULL;
 307:C:/Users/geoma/Desktop/Scilab/toolboxes/STM32_toolbox_1-1/scicos_blocks/src/c\convert.c ****                 u = Getint16InPortPtrs(block, 1);
 1417              		.loc 1 307 0 is_stmt 1
 1418 092c 436C     		ldr	r3, [r0, #68]
 1419 092e D3F80080 		ldr	r8, [r3]
 1420              	.LVL261:
 308:C:/Users/geoma/Desktop/Scilab/toolboxes/STM32_toolbox_1-1/scicos_blocks/src/c\convert.c ****                 y = Getint8OutPortPtrs(block, 1);
 1421              		.loc 1 308 0
 1422 0932 036D     		ldr	r3, [r0, #80]
 1423 0934 D3F80090 		ldr	r9, [r3]
 1424              	.LVL262:
 309:C:/Users/geoma/Desktop/Scilab/toolboxes/STM32_toolbox_1-1/scicos_blocks/src/c\convert.c ****                 k = pow(2, 8);
 310:C:/Users/geoma/Desktop/Scilab/toolboxes/STM32_toolbox_1-1/scicos_blocks/src/c\convert.c ****                 for (i = 0; i < m * n; i++)
 1425              		.loc 1 310 0
 1426 0938 0026     		movs	r6, #0
 1427 093a 79E0     		b	.L146
 1428              	.LVL263:
 1429              	.L151:
 311:C:/Users/geoma/Desktop/Scilab/toolboxes/STM32_toolbox_1-1/scicos_blocks/src/c\convert.c ****                 {
 312:C:/Users/geoma/Desktop/Scilab/toolboxes/STM32_toolbox_1-1/scicos_blocks/src/c\convert.c ****                     v = (double)u[i];
 1430              		.loc 1 312 0
ARM GAS  C:\Users\geoma\AppData\Local\Temp\ccpZNVPJ.s 			page 32


 1431 093c 3746     		mov	r7, r6
 1432 093e 38F91600 		ldrsh	r0, [r8, r6, lsl #1]
 1433 0942 FFF7FEFF 		bl	__aeabi_i2d
 1434              	.LVL264:
 1435 0946 0446     		mov	r4, r0
 1436 0948 0D46     		mov	r5, r1
 1437              	.LVL265:
 313:C:/Users/geoma/Desktop/Scilab/toolboxes/STM32_toolbox_1-1/scicos_blocks/src/c\convert.c ****                     w = v - (double)((int)(v / k)) * k;
 1438              		.loc 1 313 0
 1439 094a 0022     		movs	r2, #0
 1440 094c 8A4B     		ldr	r3, .L532+16
 1441 094e FFF7FEFF 		bl	__aeabi_dmul
 1442              	.LVL266:
 1443 0952 FFF7FEFF 		bl	__aeabi_d2iz
 1444              	.LVL267:
 1445 0956 FFF7FEFF 		bl	__aeabi_i2d
 1446              	.LVL268:
 1447 095a 0022     		movs	r2, #0
 1448 095c 874B     		ldr	r3, .L532+20
 1449 095e FFF7FEFF 		bl	__aeabi_dmul
 1450              	.LVL269:
 1451 0962 0246     		mov	r2, r0
 1452 0964 0B46     		mov	r3, r1
 1453 0966 2046     		mov	r0, r4
 1454 0968 2946     		mov	r1, r5
 1455 096a FFF7FEFF 		bl	__aeabi_dsub
 1456              	.LVL270:
 1457 096e 0446     		mov	r4, r0
 1458              	.LVL271:
 1459 0970 0D46     		mov	r5, r1
 1460              	.LVL272:
 314:C:/Users/geoma/Desktop/Scilab/toolboxes/STM32_toolbox_1-1/scicos_blocks/src/c\convert.c ****                     if (fabs(w) > k / 2 - 1)
 1461              		.loc 1 314 0
 1462 0972 0A90     		str	r0, [sp, #40]
 1463 0974 21F00043 		bic	r3, r1, #-2147483648
 1464 0978 0B93     		str	r3, [sp, #44]
 1465 097a DDE90A01 		ldrd	r0, [sp, #40]
 1466 097e 7AA3     		adr	r3, .L532
 1467 0980 D3E90023 		ldrd	r2, [r3]
 1468 0984 FFF7FEFF 		bl	__aeabi_dcmpgt
 1469              	.LVL273:
 1470 0988 0028     		cmp	r0, #0
 1471 098a 4AD0     		beq	.L147
 315:C:/Users/geoma/Desktop/Scilab/toolboxes/STM32_toolbox_1-1/scicos_blocks/src/c\convert.c ****                     {
 316:C:/Users/geoma/Desktop/Scilab/toolboxes/STM32_toolbox_1-1/scicos_blocks/src/c\convert.c ****                         if (w >= 0)
 1472              		.loc 1 316 0
 1473 098c 2046     		mov	r0, r4
 1474 098e 2946     		mov	r1, r5
 1475 0990 0022     		movs	r2, #0
 1476 0992 0023     		movs	r3, #0
 1477 0994 FFF7FEFF 		bl	__aeabi_dcmpge
 1478              	.LVL274:
 1479 0998 08B3     		cbz	r0, .L505
 317:C:/Users/geoma/Desktop/Scilab/toolboxes/STM32_toolbox_1-1/scicos_blocks/src/c\convert.c ****                         {
 318:C:/Users/geoma/Desktop/Scilab/toolboxes/STM32_toolbox_1-1/scicos_blocks/src/c\convert.c ****                             w = (-k / 2 + fabs(w - (double)((int)(w / (k / 2))) * (k / 2)));
 1480              		.loc 1 318 0
 1481 099a 2046     		mov	r0, r4
ARM GAS  C:\Users\geoma\AppData\Local\Temp\ccpZNVPJ.s 			page 33


 1482 099c 2946     		mov	r1, r5
 1483 099e 0022     		movs	r2, #0
 1484 09a0 4FF07E53 		mov	r3, #1065353216
 1485 09a4 FFF7FEFF 		bl	__aeabi_dmul
 1486              	.LVL275:
 1487 09a8 FFF7FEFF 		bl	__aeabi_d2iz
 1488              	.LVL276:
 1489 09ac FFF7FEFF 		bl	__aeabi_i2d
 1490              	.LVL277:
 1491 09b0 0022     		movs	r2, #0
 1492 09b2 734B     		ldr	r3, .L532+24
 1493 09b4 FFF7FEFF 		bl	__aeabi_dmul
 1494              	.LVL278:
 1495 09b8 0246     		mov	r2, r0
 1496 09ba 0B46     		mov	r3, r1
 1497 09bc 2046     		mov	r0, r4
 1498 09be 2946     		mov	r1, r5
 1499 09c0 FFF7FEFF 		bl	__aeabi_dsub
 1500              	.LVL279:
 1501 09c4 1C90     		str	r0, [sp, #112]
 1502 09c6 21F00043 		bic	r3, r1, #-2147483648
 1503 09ca 1D93     		str	r3, [sp, #116]
 1504 09cc DDE91C01 		ldrd	r0, [sp, #112]
 1505 09d0 0022     		movs	r2, #0
 1506 09d2 6B4B     		ldr	r3, .L532+24
 1507 09d4 FFF7FEFF 		bl	__aeabi_dsub
 1508              	.LVL280:
 1509 09d8 0446     		mov	r4, r0
 1510              	.LVL281:
 1511 09da 0D46     		mov	r5, r1
 1512              	.LVL282:
 1513 09dc 21E0     		b	.L147
 1514              	.L505:
 319:C:/Users/geoma/Desktop/Scilab/toolboxes/STM32_toolbox_1-1/scicos_blocks/src/c\convert.c ****                         }
 320:C:/Users/geoma/Desktop/Scilab/toolboxes/STM32_toolbox_1-1/scicos_blocks/src/c\convert.c ****                         else
 321:C:/Users/geoma/Desktop/Scilab/toolboxes/STM32_toolbox_1-1/scicos_blocks/src/c\convert.c ****                         {
 322:C:/Users/geoma/Desktop/Scilab/toolboxes/STM32_toolbox_1-1/scicos_blocks/src/c\convert.c ****                             w = -(-(k / 2) + fabs(w - (double)((int)(w / (k / 2))) * (k / 2)));
 1515              		.loc 1 322 0
 1516 09de 2046     		mov	r0, r4
 1517 09e0 2946     		mov	r1, r5
 1518 09e2 0022     		movs	r2, #0
 1519 09e4 4FF07E53 		mov	r3, #1065353216
 1520 09e8 FFF7FEFF 		bl	__aeabi_dmul
 1521              	.LVL283:
 1522 09ec FFF7FEFF 		bl	__aeabi_d2iz
 1523              	.LVL284:
 1524 09f0 FFF7FEFF 		bl	__aeabi_i2d
 1525              	.LVL285:
 1526 09f4 0022     		movs	r2, #0
 1527 09f6 624B     		ldr	r3, .L532+24
 1528 09f8 FFF7FEFF 		bl	__aeabi_dmul
 1529              	.LVL286:
 1530 09fc 0246     		mov	r2, r0
 1531 09fe 0B46     		mov	r3, r1
 1532 0a00 2046     		mov	r0, r4
 1533 0a02 2946     		mov	r1, r5
 1534 0a04 FFF7FEFF 		bl	__aeabi_dsub
ARM GAS  C:\Users\geoma\AppData\Local\Temp\ccpZNVPJ.s 			page 34


 1535              	.LVL287:
 1536 0a08 2890     		str	r0, [sp, #160]
 1537 0a0a 21F00043 		bic	r3, r1, #-2147483648
 1538 0a0e 2993     		str	r3, [sp, #164]
 1539 0a10 DDE92801 		ldrd	r0, [sp, #160]
 1540 0a14 0022     		movs	r2, #0
 1541 0a16 5A4B     		ldr	r3, .L532+24
 1542 0a18 FFF7FEFF 		bl	__aeabi_dsub
 1543              	.LVL288:
 1544 0a1c 0446     		mov	r4, r0
 1545              	.LVL289:
 1546 0a1e 01F10045 		add	r5, r1, #-2147483648
 1547              	.LVL290:
 1548              	.L147:
 323:C:/Users/geoma/Desktop/Scilab/toolboxes/STM32_toolbox_1-1/scicos_blocks/src/c\convert.c ****                         }
 324:C:/Users/geoma/Desktop/Scilab/toolboxes/STM32_toolbox_1-1/scicos_blocks/src/c\convert.c ****                     }
 325:C:/Users/geoma/Desktop/Scilab/toolboxes/STM32_toolbox_1-1/scicos_blocks/src/c\convert.c ****                     y[i] = (SCSINT8_COP)w;
 1549              		.loc 1 325 0 discriminator 2
 1550 0a22 2046     		mov	r0, r4
 1551 0a24 2946     		mov	r1, r5
 1552 0a26 FFF7FEFF 		bl	__aeabi_d2uiz
 1553              	.LVL291:
 1554 0a2a 09F80700 		strb	r0, [r9, r7]
 310:C:/Users/geoma/Desktop/Scilab/toolboxes/STM32_toolbox_1-1/scicos_blocks/src/c\convert.c ****                 {
 1555              		.loc 1 310 0 discriminator 2
 1556 0a2e 0136     		adds	r6, r6, #1
 1557              	.LVL292:
 1558              	.L146:
 310:C:/Users/geoma/Desktop/Scilab/toolboxes/STM32_toolbox_1-1/scicos_blocks/src/c\convert.c ****                 {
 1559              		.loc 1 310 0 is_stmt 0 discriminator 1
 1560 0a30 0AFB0BF3 		mul	r3, r10, fp
 1561 0a34 B342     		cmp	r3, r6
 1562 0a36 81DC     		bgt	.L151
 1563 0a38 01F00EBA 		b	.L1
 1564              	.LVL293:
 1565              	.L19:
 1566              	.LBE16:
 1567              	.LBB17:
 326:C:/Users/geoma/Desktop/Scilab/toolboxes/STM32_toolbox_1-1/scicos_blocks/src/c\convert.c ****                 }
 327:C:/Users/geoma/Desktop/Scilab/toolboxes/STM32_toolbox_1-1/scicos_blocks/src/c\convert.c ****                 break;
 328:C:/Users/geoma/Desktop/Scilab/toolboxes/STM32_toolbox_1-1/scicos_blocks/src/c\convert.c ****             }
 329:C:/Users/geoma/Desktop/Scilab/toolboxes/STM32_toolbox_1-1/scicos_blocks/src/c\convert.c ****             case 16:
 330:C:/Users/geoma/Desktop/Scilab/toolboxes/STM32_toolbox_1-1/scicos_blocks/src/c\convert.c ****             {
 331:C:/Users/geoma/Desktop/Scilab/toolboxes/STM32_toolbox_1-1/scicos_blocks/src/c\convert.c ****                 SCSINT16_COP *u = NULL;
 332:C:/Users/geoma/Desktop/Scilab/toolboxes/STM32_toolbox_1-1/scicos_blocks/src/c\convert.c ****                 SCSUINT32_COP *y = NULL;
 333:C:/Users/geoma/Desktop/Scilab/toolboxes/STM32_toolbox_1-1/scicos_blocks/src/c\convert.c ****                 u = Getint16InPortPtrs(block, 1);
 1568              		.loc 1 333 0 is_stmt 1
 1569 0a3c 436C     		ldr	r3, [r0, #68]
 1570 0a3e 1C68     		ldr	r4, [r3]
 1571              	.LVL294:
 334:C:/Users/geoma/Desktop/Scilab/toolboxes/STM32_toolbox_1-1/scicos_blocks/src/c\convert.c ****                 y = Getuint32OutPortPtrs(block, 1);
 1572              		.loc 1 334 0
 1573 0a40 036D     		ldr	r3, [r0, #80]
 1574 0a42 1968     		ldr	r1, [r3]
 1575              	.LVL295:
 335:C:/Users/geoma/Desktop/Scilab/toolboxes/STM32_toolbox_1-1/scicos_blocks/src/c\convert.c ****                 for (i = 0; i < m * n; i++)
 1576              		.loc 1 335 0
ARM GAS  C:\Users\geoma\AppData\Local\Temp\ccpZNVPJ.s 			page 35


 1577 0a44 0023     		movs	r3, #0
 1578 0a46 04E0     		b	.L152
 1579              	.LVL296:
 1580              	.L153:
 336:C:/Users/geoma/Desktop/Scilab/toolboxes/STM32_toolbox_1-1/scicos_blocks/src/c\convert.c ****                 {
 337:C:/Users/geoma/Desktop/Scilab/toolboxes/STM32_toolbox_1-1/scicos_blocks/src/c\convert.c ****                     y[i] = (SCSUINT32_COP)u[i];
 1581              		.loc 1 337 0 discriminator 3
 1582 0a48 34F91320 		ldrsh	r2, [r4, r3, lsl #1]
 1583 0a4c 41F82320 		str	r2, [r1, r3, lsl #2]
 335:C:/Users/geoma/Desktop/Scilab/toolboxes/STM32_toolbox_1-1/scicos_blocks/src/c\convert.c ****                 for (i = 0; i < m * n; i++)
 1584              		.loc 1 335 0 discriminator 3
 1585 0a50 0133     		adds	r3, r3, #1
 1586              	.LVL297:
 1587              	.L152:
 335:C:/Users/geoma/Desktop/Scilab/toolboxes/STM32_toolbox_1-1/scicos_blocks/src/c\convert.c ****                 for (i = 0; i < m * n; i++)
 1588              		.loc 1 335 0 is_stmt 0 discriminator 1
 1589 0a52 0AFB0BF2 		mul	r2, r10, fp
 1590 0a56 9A42     		cmp	r2, r3
 1591 0a58 F6DC     		bgt	.L153
 1592 0a5a 01F0FDB9 		b	.L1
 1593              	.LVL298:
 1594              	.L20:
 1595              	.LBE17:
 1596              	.LBB18:
 338:C:/Users/geoma/Desktop/Scilab/toolboxes/STM32_toolbox_1-1/scicos_blocks/src/c\convert.c ****                 }
 339:C:/Users/geoma/Desktop/Scilab/toolboxes/STM32_toolbox_1-1/scicos_blocks/src/c\convert.c ****                 break;
 340:C:/Users/geoma/Desktop/Scilab/toolboxes/STM32_toolbox_1-1/scicos_blocks/src/c\convert.c ****             }
 341:C:/Users/geoma/Desktop/Scilab/toolboxes/STM32_toolbox_1-1/scicos_blocks/src/c\convert.c ****             case 17:
 342:C:/Users/geoma/Desktop/Scilab/toolboxes/STM32_toolbox_1-1/scicos_blocks/src/c\convert.c ****             {
 343:C:/Users/geoma/Desktop/Scilab/toolboxes/STM32_toolbox_1-1/scicos_blocks/src/c\convert.c ****                 SCSINT16_COP *u = NULL;
 344:C:/Users/geoma/Desktop/Scilab/toolboxes/STM32_toolbox_1-1/scicos_blocks/src/c\convert.c ****                 SCSUINT8_COP *y = NULL;
 345:C:/Users/geoma/Desktop/Scilab/toolboxes/STM32_toolbox_1-1/scicos_blocks/src/c\convert.c ****                 u = Getint16InPortPtrs(block, 1);
 1597              		.loc 1 345 0 is_stmt 1
 1598 0a5e 436C     		ldr	r3, [r0, #68]
 1599 0a60 1F68     		ldr	r7, [r3]
 1600              	.LVL299:
 346:C:/Users/geoma/Desktop/Scilab/toolboxes/STM32_toolbox_1-1/scicos_blocks/src/c\convert.c ****                 y = Getuint8OutPortPtrs(block, 1);
 1601              		.loc 1 346 0
 1602 0a62 036D     		ldr	r3, [r0, #80]
 1603 0a64 D3F80080 		ldr	r8, [r3]
 1604              	.LVL300:
 347:C:/Users/geoma/Desktop/Scilab/toolboxes/STM32_toolbox_1-1/scicos_blocks/src/c\convert.c ****                 k = pow(2, 8);
 348:C:/Users/geoma/Desktop/Scilab/toolboxes/STM32_toolbox_1-1/scicos_blocks/src/c\convert.c ****                 for (i = 0; i < m * n; i++)
 1605              		.loc 1 348 0
 1606 0a68 0026     		movs	r6, #0
 1607 0a6a 1CE0     		b	.L154
 1608              	.LVL301:
 1609              	.L155:
 349:C:/Users/geoma/Desktop/Scilab/toolboxes/STM32_toolbox_1-1/scicos_blocks/src/c\convert.c ****                 {
 350:C:/Users/geoma/Desktop/Scilab/toolboxes/STM32_toolbox_1-1/scicos_blocks/src/c\convert.c ****                     v = (double)u[i];
 1610              		.loc 1 350 0 discriminator 3
 1611 0a6c 37F91600 		ldrsh	r0, [r7, r6, lsl #1]
 1612 0a70 FFF7FEFF 		bl	__aeabi_i2d
 1613              	.LVL302:
 1614 0a74 0446     		mov	r4, r0
 1615 0a76 0D46     		mov	r5, r1
 1616              	.LVL303:
ARM GAS  C:\Users\geoma\AppData\Local\Temp\ccpZNVPJ.s 			page 36


 351:C:/Users/geoma/Desktop/Scilab/toolboxes/STM32_toolbox_1-1/scicos_blocks/src/c\convert.c ****                     w = v - (double)((int)(v / k)) * k;
 1617              		.loc 1 351 0 discriminator 3
 1618 0a78 0022     		movs	r2, #0
 1619 0a7a 3F4B     		ldr	r3, .L532+16
 1620 0a7c FFF7FEFF 		bl	__aeabi_dmul
 1621              	.LVL304:
 1622 0a80 FFF7FEFF 		bl	__aeabi_d2iz
 1623              	.LVL305:
 1624 0a84 FFF7FEFF 		bl	__aeabi_i2d
 1625              	.LVL306:
 1626 0a88 0022     		movs	r2, #0
 1627 0a8a 3C4B     		ldr	r3, .L532+20
 1628 0a8c FFF7FEFF 		bl	__aeabi_dmul
 1629              	.LVL307:
 1630 0a90 0246     		mov	r2, r0
 1631 0a92 0B46     		mov	r3, r1
 1632 0a94 2046     		mov	r0, r4
 1633 0a96 2946     		mov	r1, r5
 1634 0a98 FFF7FEFF 		bl	__aeabi_dsub
 1635              	.LVL308:
 352:C:/Users/geoma/Desktop/Scilab/toolboxes/STM32_toolbox_1-1/scicos_blocks/src/c\convert.c ****                     y[i] = (SCSUINT8_COP)w;
 1636              		.loc 1 352 0 discriminator 3
 1637 0a9c FFF7FEFF 		bl	__aeabi_d2uiz
 1638              	.LVL309:
 1639 0aa0 08F80600 		strb	r0, [r8, r6]
 348:C:/Users/geoma/Desktop/Scilab/toolboxes/STM32_toolbox_1-1/scicos_blocks/src/c\convert.c ****                 {
 1640              		.loc 1 348 0 discriminator 3
 1641 0aa4 0136     		adds	r6, r6, #1
 1642              	.LVL310:
 1643              	.L154:
 348:C:/Users/geoma/Desktop/Scilab/toolboxes/STM32_toolbox_1-1/scicos_blocks/src/c\convert.c ****                 {
 1644              		.loc 1 348 0 is_stmt 0 discriminator 1
 1645 0aa6 0AFB0BF3 		mul	r3, r10, fp
 1646 0aaa B342     		cmp	r3, r6
 1647 0aac DEDC     		bgt	.L155
 1648 0aae 01F0D3B9 		b	.L1
 1649              	.LVL311:
 1650              	.L21:
 1651              	.LBE18:
 1652              	.LBB19:
 353:C:/Users/geoma/Desktop/Scilab/toolboxes/STM32_toolbox_1-1/scicos_blocks/src/c\convert.c ****                 }
 354:C:/Users/geoma/Desktop/Scilab/toolboxes/STM32_toolbox_1-1/scicos_blocks/src/c\convert.c ****                 break;
 355:C:/Users/geoma/Desktop/Scilab/toolboxes/STM32_toolbox_1-1/scicos_blocks/src/c\convert.c ****             }
 356:C:/Users/geoma/Desktop/Scilab/toolboxes/STM32_toolbox_1-1/scicos_blocks/src/c\convert.c ****             case 18:
 357:C:/Users/geoma/Desktop/Scilab/toolboxes/STM32_toolbox_1-1/scicos_blocks/src/c\convert.c ****             {
 358:C:/Users/geoma/Desktop/Scilab/toolboxes/STM32_toolbox_1-1/scicos_blocks/src/c\convert.c ****                 SCSINT8_COP *u = NULL;
 359:C:/Users/geoma/Desktop/Scilab/toolboxes/STM32_toolbox_1-1/scicos_blocks/src/c\convert.c ****                 SCSREAL_COP *y = NULL;
 360:C:/Users/geoma/Desktop/Scilab/toolboxes/STM32_toolbox_1-1/scicos_blocks/src/c\convert.c ****                 u = Getint8InPortPtrs(block, 1);
 1653              		.loc 1 360 0 is_stmt 1
 1654 0ab2 436C     		ldr	r3, [r0, #68]
 1655 0ab4 1F68     		ldr	r7, [r3]
 1656              	.LVL312:
 361:C:/Users/geoma/Desktop/Scilab/toolboxes/STM32_toolbox_1-1/scicos_blocks/src/c\convert.c ****                 y = GetRealOutPortPtrs(block, 1);
 1657              		.loc 1 361 0
 1658 0ab6 036D     		ldr	r3, [r0, #80]
 1659 0ab8 1E68     		ldr	r6, [r3]
 1660              	.LVL313:
ARM GAS  C:\Users\geoma\AppData\Local\Temp\ccpZNVPJ.s 			page 37


 362:C:/Users/geoma/Desktop/Scilab/toolboxes/STM32_toolbox_1-1/scicos_blocks/src/c\convert.c ****                 for (i = 0; i < m * n; i++)
 1661              		.loc 1 362 0
 1662 0aba 0024     		movs	r4, #0
 1663              	.LVL314:
 1664 0abc 07E0     		b	.L156
 1665              	.LVL315:
 1666              	.L157:
 363:C:/Users/geoma/Desktop/Scilab/toolboxes/STM32_toolbox_1-1/scicos_blocks/src/c\convert.c ****                 {
 364:C:/Users/geoma/Desktop/Scilab/toolboxes/STM32_toolbox_1-1/scicos_blocks/src/c\convert.c ****                     y[i] = (SCSREAL_COP) u[i];
 1667              		.loc 1 364 0 discriminator 3
 1668 0abe 06EBC405 		add	r5, r6, r4, lsl #3
 1669 0ac2 385D     		ldrb	r0, [r7, r4]	@ zero_extendqisi2
 1670 0ac4 FFF7FEFF 		bl	__aeabi_ui2d
 1671              	.LVL316:
 1672 0ac8 C5E90001 		strd	r0, [r5]
 362:C:/Users/geoma/Desktop/Scilab/toolboxes/STM32_toolbox_1-1/scicos_blocks/src/c\convert.c ****                 for (i = 0; i < m * n; i++)
 1673              		.loc 1 362 0 discriminator 3
 1674 0acc 0134     		adds	r4, r4, #1
 1675              	.LVL317:
 1676              	.L156:
 362:C:/Users/geoma/Desktop/Scilab/toolboxes/STM32_toolbox_1-1/scicos_blocks/src/c\convert.c ****                 for (i = 0; i < m * n; i++)
 1677              		.loc 1 362 0 is_stmt 0 discriminator 1
 1678 0ace 0AFB0BF3 		mul	r3, r10, fp
 1679 0ad2 A342     		cmp	r3, r4
 1680 0ad4 F3DC     		bgt	.L157
 1681 0ad6 01F0BFB9 		b	.L1
 1682              	.LVL318:
 1683              	.L22:
 1684              	.LBE19:
 1685              	.LBB20:
 365:C:/Users/geoma/Desktop/Scilab/toolboxes/STM32_toolbox_1-1/scicos_blocks/src/c\convert.c ****                 }
 366:C:/Users/geoma/Desktop/Scilab/toolboxes/STM32_toolbox_1-1/scicos_blocks/src/c\convert.c ****                 break;
 367:C:/Users/geoma/Desktop/Scilab/toolboxes/STM32_toolbox_1-1/scicos_blocks/src/c\convert.c ****             }
 368:C:/Users/geoma/Desktop/Scilab/toolboxes/STM32_toolbox_1-1/scicos_blocks/src/c\convert.c ****             case 19:
 369:C:/Users/geoma/Desktop/Scilab/toolboxes/STM32_toolbox_1-1/scicos_blocks/src/c\convert.c ****             {
 370:C:/Users/geoma/Desktop/Scilab/toolboxes/STM32_toolbox_1-1/scicos_blocks/src/c\convert.c ****                 SCSINT8_COP *u = NULL;
 371:C:/Users/geoma/Desktop/Scilab/toolboxes/STM32_toolbox_1-1/scicos_blocks/src/c\convert.c ****                 SCSINT32_COP *y = NULL;
 372:C:/Users/geoma/Desktop/Scilab/toolboxes/STM32_toolbox_1-1/scicos_blocks/src/c\convert.c ****                 u = Getint8InPortPtrs(block, 1);
 1686              		.loc 1 372 0 is_stmt 1
 1687 0ada 436C     		ldr	r3, [r0, #68]
 1688 0adc 1C68     		ldr	r4, [r3]
 1689              	.LVL319:
 373:C:/Users/geoma/Desktop/Scilab/toolboxes/STM32_toolbox_1-1/scicos_blocks/src/c\convert.c ****                 y = Getint32OutPortPtrs(block, 1);
 1690              		.loc 1 373 0
 1691 0ade 036D     		ldr	r3, [r0, #80]
 1692 0ae0 1968     		ldr	r1, [r3]
 1693              	.LVL320:
 374:C:/Users/geoma/Desktop/Scilab/toolboxes/STM32_toolbox_1-1/scicos_blocks/src/c\convert.c ****                 for (i = 0; i < m * n; i++)
 1694              		.loc 1 374 0
 1695 0ae2 0023     		movs	r3, #0
 1696 0ae4 03E0     		b	.L158
 1697              	.LVL321:
 1698              	.L159:
 375:C:/Users/geoma/Desktop/Scilab/toolboxes/STM32_toolbox_1-1/scicos_blocks/src/c\convert.c ****                 {
 376:C:/Users/geoma/Desktop/Scilab/toolboxes/STM32_toolbox_1-1/scicos_blocks/src/c\convert.c ****                     y[i] = (SCSINT32_COP)u[i];
 1699              		.loc 1 376 0 discriminator 3
 1700 0ae6 E25C     		ldrb	r2, [r4, r3]	@ zero_extendqisi2
ARM GAS  C:\Users\geoma\AppData\Local\Temp\ccpZNVPJ.s 			page 38


 1701 0ae8 41F82320 		str	r2, [r1, r3, lsl #2]
 374:C:/Users/geoma/Desktop/Scilab/toolboxes/STM32_toolbox_1-1/scicos_blocks/src/c\convert.c ****                 for (i = 0; i < m * n; i++)
 1702              		.loc 1 374 0 discriminator 3
 1703 0aec 0133     		adds	r3, r3, #1
 1704              	.LVL322:
 1705              	.L158:
 374:C:/Users/geoma/Desktop/Scilab/toolboxes/STM32_toolbox_1-1/scicos_blocks/src/c\convert.c ****                 for (i = 0; i < m * n; i++)
 1706              		.loc 1 374 0 is_stmt 0 discriminator 1
 1707 0aee 0AFB0BF2 		mul	r2, r10, fp
 1708 0af2 9A42     		cmp	r2, r3
 1709 0af4 F7DC     		bgt	.L159
 1710 0af6 01F0AFB9 		b	.L1
 1711              	.LVL323:
 1712              	.L23:
 1713              	.LBE20:
 1714              	.LBB21:
 377:C:/Users/geoma/Desktop/Scilab/toolboxes/STM32_toolbox_1-1/scicos_blocks/src/c\convert.c ****                 }
 378:C:/Users/geoma/Desktop/Scilab/toolboxes/STM32_toolbox_1-1/scicos_blocks/src/c\convert.c ****                 break;
 379:C:/Users/geoma/Desktop/Scilab/toolboxes/STM32_toolbox_1-1/scicos_blocks/src/c\convert.c ****             }
 380:C:/Users/geoma/Desktop/Scilab/toolboxes/STM32_toolbox_1-1/scicos_blocks/src/c\convert.c ****             case 20:
 381:C:/Users/geoma/Desktop/Scilab/toolboxes/STM32_toolbox_1-1/scicos_blocks/src/c\convert.c ****             {
 382:C:/Users/geoma/Desktop/Scilab/toolboxes/STM32_toolbox_1-1/scicos_blocks/src/c\convert.c ****                 SCSINT8_COP *u = NULL;
 383:C:/Users/geoma/Desktop/Scilab/toolboxes/STM32_toolbox_1-1/scicos_blocks/src/c\convert.c ****                 SCSINT16_COP *y = NULL;
 384:C:/Users/geoma/Desktop/Scilab/toolboxes/STM32_toolbox_1-1/scicos_blocks/src/c\convert.c ****                 u = Getint8InPortPtrs(block, 1);
 1715              		.loc 1 384 0 is_stmt 1
 1716 0afa 436C     		ldr	r3, [r0, #68]
 1717 0afc 1C68     		ldr	r4, [r3]
 1718              	.LVL324:
 385:C:/Users/geoma/Desktop/Scilab/toolboxes/STM32_toolbox_1-1/scicos_blocks/src/c\convert.c ****                 y = Getint16OutPortPtrs(block, 1);
 1719              		.loc 1 385 0
 1720 0afe 036D     		ldr	r3, [r0, #80]
 1721 0b00 1968     		ldr	r1, [r3]
 1722              	.LVL325:
 386:C:/Users/geoma/Desktop/Scilab/toolboxes/STM32_toolbox_1-1/scicos_blocks/src/c\convert.c ****                 for (i = 0; i < m * n; i++)
 1723              		.loc 1 386 0
 1724 0b02 0023     		movs	r3, #0
 1725 0b04 03E0     		b	.L160
 1726              	.LVL326:
 1727              	.L161:
 387:C:/Users/geoma/Desktop/Scilab/toolboxes/STM32_toolbox_1-1/scicos_blocks/src/c\convert.c ****                 {
 388:C:/Users/geoma/Desktop/Scilab/toolboxes/STM32_toolbox_1-1/scicos_blocks/src/c\convert.c ****                     y[i] = (SCSINT16_COP)u[i];
 1728              		.loc 1 388 0 discriminator 3
 1729 0b06 E25C     		ldrb	r2, [r4, r3]	@ zero_extendqisi2
 1730 0b08 21F81320 		strh	r2, [r1, r3, lsl #1]	@ movhi
 386:C:/Users/geoma/Desktop/Scilab/toolboxes/STM32_toolbox_1-1/scicos_blocks/src/c\convert.c ****                 for (i = 0; i < m * n; i++)
 1731              		.loc 1 386 0 discriminator 3
 1732 0b0c 0133     		adds	r3, r3, #1
 1733              	.LVL327:
 1734              	.L160:
 386:C:/Users/geoma/Desktop/Scilab/toolboxes/STM32_toolbox_1-1/scicos_blocks/src/c\convert.c ****                 for (i = 0; i < m * n; i++)
 1735              		.loc 1 386 0 is_stmt 0 discriminator 1
 1736 0b0e 0AFB0BF2 		mul	r2, r10, fp
 1737 0b12 9A42     		cmp	r2, r3
 1738 0b14 F7DC     		bgt	.L161
 1739 0b16 01F09FB9 		b	.L1
 1740              	.LVL328:
 1741              	.L24:
ARM GAS  C:\Users\geoma\AppData\Local\Temp\ccpZNVPJ.s 			page 39


 1742              	.LBE21:
 1743              	.LBB22:
 389:C:/Users/geoma/Desktop/Scilab/toolboxes/STM32_toolbox_1-1/scicos_blocks/src/c\convert.c ****                 }
 390:C:/Users/geoma/Desktop/Scilab/toolboxes/STM32_toolbox_1-1/scicos_blocks/src/c\convert.c ****                 break;
 391:C:/Users/geoma/Desktop/Scilab/toolboxes/STM32_toolbox_1-1/scicos_blocks/src/c\convert.c ****             }
 392:C:/Users/geoma/Desktop/Scilab/toolboxes/STM32_toolbox_1-1/scicos_blocks/src/c\convert.c ****             case 21:
 393:C:/Users/geoma/Desktop/Scilab/toolboxes/STM32_toolbox_1-1/scicos_blocks/src/c\convert.c ****             {
 394:C:/Users/geoma/Desktop/Scilab/toolboxes/STM32_toolbox_1-1/scicos_blocks/src/c\convert.c ****                 SCSINT8_COP *u = NULL;
 395:C:/Users/geoma/Desktop/Scilab/toolboxes/STM32_toolbox_1-1/scicos_blocks/src/c\convert.c ****                 SCSUINT32_COP *y = NULL;
 396:C:/Users/geoma/Desktop/Scilab/toolboxes/STM32_toolbox_1-1/scicos_blocks/src/c\convert.c ****                 u = Getint8InPortPtrs(block, 1);
 1744              		.loc 1 396 0 is_stmt 1
 1745 0b1a 436C     		ldr	r3, [r0, #68]
 1746 0b1c 1C68     		ldr	r4, [r3]
 1747              	.LVL329:
 397:C:/Users/geoma/Desktop/Scilab/toolboxes/STM32_toolbox_1-1/scicos_blocks/src/c\convert.c ****                 y = Getuint32OutPortPtrs(block, 1);
 1748              		.loc 1 397 0
 1749 0b1e 036D     		ldr	r3, [r0, #80]
 1750 0b20 1968     		ldr	r1, [r3]
 1751              	.LVL330:
 398:C:/Users/geoma/Desktop/Scilab/toolboxes/STM32_toolbox_1-1/scicos_blocks/src/c\convert.c ****                 for (i = 0; i < m * n; i++)
 1752              		.loc 1 398 0
 1753 0b22 0023     		movs	r3, #0
 1754 0b24 03E0     		b	.L162
 1755              	.LVL331:
 1756              	.L163:
 399:C:/Users/geoma/Desktop/Scilab/toolboxes/STM32_toolbox_1-1/scicos_blocks/src/c\convert.c ****                 {
 400:C:/Users/geoma/Desktop/Scilab/toolboxes/STM32_toolbox_1-1/scicos_blocks/src/c\convert.c ****                     y[i] = (SCSUINT32_COP)u[i];
 1757              		.loc 1 400 0 discriminator 3
 1758 0b26 E25C     		ldrb	r2, [r4, r3]	@ zero_extendqisi2
 1759 0b28 41F82320 		str	r2, [r1, r3, lsl #2]
 398:C:/Users/geoma/Desktop/Scilab/toolboxes/STM32_toolbox_1-1/scicos_blocks/src/c\convert.c ****                 for (i = 0; i < m * n; i++)
 1760              		.loc 1 398 0 discriminator 3
 1761 0b2c 0133     		adds	r3, r3, #1
 1762              	.LVL332:
 1763              	.L162:
 398:C:/Users/geoma/Desktop/Scilab/toolboxes/STM32_toolbox_1-1/scicos_blocks/src/c\convert.c ****                 for (i = 0; i < m * n; i++)
 1764              		.loc 1 398 0 is_stmt 0 discriminator 1
 1765 0b2e 0AFB0BF2 		mul	r2, r10, fp
 1766 0b32 9A42     		cmp	r2, r3
 1767 0b34 F7DC     		bgt	.L163
 1768 0b36 01F08FB9 		b	.L1
 1769              	.LVL333:
 1770              	.L25:
 1771              	.LBE22:
 1772              	.LBB23:
 401:C:/Users/geoma/Desktop/Scilab/toolboxes/STM32_toolbox_1-1/scicos_blocks/src/c\convert.c ****                 }
 402:C:/Users/geoma/Desktop/Scilab/toolboxes/STM32_toolbox_1-1/scicos_blocks/src/c\convert.c ****                 break;
 403:C:/Users/geoma/Desktop/Scilab/toolboxes/STM32_toolbox_1-1/scicos_blocks/src/c\convert.c ****             }
 404:C:/Users/geoma/Desktop/Scilab/toolboxes/STM32_toolbox_1-1/scicos_blocks/src/c\convert.c ****             case 22:
 405:C:/Users/geoma/Desktop/Scilab/toolboxes/STM32_toolbox_1-1/scicos_blocks/src/c\convert.c ****             {
 406:C:/Users/geoma/Desktop/Scilab/toolboxes/STM32_toolbox_1-1/scicos_blocks/src/c\convert.c ****                 SCSINT8_COP *u = NULL;
 407:C:/Users/geoma/Desktop/Scilab/toolboxes/STM32_toolbox_1-1/scicos_blocks/src/c\convert.c ****                 SCSUINT16_COP *y = NULL;
 408:C:/Users/geoma/Desktop/Scilab/toolboxes/STM32_toolbox_1-1/scicos_blocks/src/c\convert.c ****                 u = Getint8InPortPtrs(block, 1);
 1773              		.loc 1 408 0 is_stmt 1
 1774 0b3a 436C     		ldr	r3, [r0, #68]
 1775 0b3c 1C68     		ldr	r4, [r3]
 1776              	.LVL334:
ARM GAS  C:\Users\geoma\AppData\Local\Temp\ccpZNVPJ.s 			page 40


 409:C:/Users/geoma/Desktop/Scilab/toolboxes/STM32_toolbox_1-1/scicos_blocks/src/c\convert.c ****                 y = Getuint16OutPortPtrs(block, 1);
 1777              		.loc 1 409 0
 1778 0b3e 036D     		ldr	r3, [r0, #80]
 1779 0b40 1968     		ldr	r1, [r3]
 1780              	.LVL335:
 410:C:/Users/geoma/Desktop/Scilab/toolboxes/STM32_toolbox_1-1/scicos_blocks/src/c\convert.c ****                 for (i = 0; i < m * n; i++)
 1781              		.loc 1 410 0
 1782 0b42 0023     		movs	r3, #0
 1783 0b44 03E0     		b	.L164
 1784              	.LVL336:
 1785              	.L165:
 411:C:/Users/geoma/Desktop/Scilab/toolboxes/STM32_toolbox_1-1/scicos_blocks/src/c\convert.c ****                 {
 412:C:/Users/geoma/Desktop/Scilab/toolboxes/STM32_toolbox_1-1/scicos_blocks/src/c\convert.c ****                     y[i] = (SCSUINT16_COP)u[i];
 1786              		.loc 1 412 0 discriminator 3
 1787 0b46 E25C     		ldrb	r2, [r4, r3]	@ zero_extendqisi2
 1788 0b48 21F81320 		strh	r2, [r1, r3, lsl #1]	@ movhi
 410:C:/Users/geoma/Desktop/Scilab/toolboxes/STM32_toolbox_1-1/scicos_blocks/src/c\convert.c ****                 for (i = 0; i < m * n; i++)
 1789              		.loc 1 410 0 discriminator 3
 1790 0b4c 0133     		adds	r3, r3, #1
 1791              	.LVL337:
 1792              	.L164:
 410:C:/Users/geoma/Desktop/Scilab/toolboxes/STM32_toolbox_1-1/scicos_blocks/src/c\convert.c ****                 for (i = 0; i < m * n; i++)
 1793              		.loc 1 410 0 is_stmt 0 discriminator 1
 1794 0b4e 0AFB0BF2 		mul	r2, r10, fp
 1795 0b52 9A42     		cmp	r2, r3
 1796 0b54 F7DC     		bgt	.L165
 1797 0b56 01F07FB9 		b	.L1
 1798              	.LVL338:
 1799              	.L26:
 1800              	.LBE23:
 1801              	.LBB24:
 413:C:/Users/geoma/Desktop/Scilab/toolboxes/STM32_toolbox_1-1/scicos_blocks/src/c\convert.c ****                 }
 414:C:/Users/geoma/Desktop/Scilab/toolboxes/STM32_toolbox_1-1/scicos_blocks/src/c\convert.c ****                 break;
 415:C:/Users/geoma/Desktop/Scilab/toolboxes/STM32_toolbox_1-1/scicos_blocks/src/c\convert.c ****             }
 416:C:/Users/geoma/Desktop/Scilab/toolboxes/STM32_toolbox_1-1/scicos_blocks/src/c\convert.c ****             case 23:
 417:C:/Users/geoma/Desktop/Scilab/toolboxes/STM32_toolbox_1-1/scicos_blocks/src/c\convert.c ****             {
 418:C:/Users/geoma/Desktop/Scilab/toolboxes/STM32_toolbox_1-1/scicos_blocks/src/c\convert.c ****                 SCSUINT32_COP *u = NULL;
 419:C:/Users/geoma/Desktop/Scilab/toolboxes/STM32_toolbox_1-1/scicos_blocks/src/c\convert.c ****                 SCSREAL_COP *y = NULL;
 420:C:/Users/geoma/Desktop/Scilab/toolboxes/STM32_toolbox_1-1/scicos_blocks/src/c\convert.c ****                 u = Getuint32InPortPtrs(block, 1);
 1802              		.loc 1 420 0 is_stmt 1
 1803 0b5a 436C     		ldr	r3, [r0, #68]
 1804 0b5c 1F68     		ldr	r7, [r3]
 1805              	.LVL339:
 421:C:/Users/geoma/Desktop/Scilab/toolboxes/STM32_toolbox_1-1/scicos_blocks/src/c\convert.c ****                 y = GetRealOutPortPtrs(block, 1);
 1806              		.loc 1 421 0
 1807 0b5e 036D     		ldr	r3, [r0, #80]
 1808 0b60 1E68     		ldr	r6, [r3]
 1809              	.LVL340:
 422:C:/Users/geoma/Desktop/Scilab/toolboxes/STM32_toolbox_1-1/scicos_blocks/src/c\convert.c ****                 for (i = 0; i < m * n; i++)
 1810              		.loc 1 422 0
 1811 0b62 0024     		movs	r4, #0
 1812              	.LVL341:
 1813 0b64 17E0     		b	.L166
 1814              	.L533:
 1815 0b66 00BF     		.align	3
 1816              	.L532:
 1817 0b68 00000000 		.word	0
ARM GAS  C:\Users\geoma\AppData\Local\Temp\ccpZNVPJ.s 			page 41


 1818 0b6c 00C05F40 		.word	1080016896
 1819 0b70 0000F03E 		.word	1055916032
 1820 0b74 0000F040 		.word	1089470464
 1821 0b78 0000703F 		.word	1064304640
 1822 0b7c 00007040 		.word	1081081856
 1823 0b80 00006040 		.word	1080033280
 1824              	.LVL342:
 1825              	.L167:
 423:C:/Users/geoma/Desktop/Scilab/toolboxes/STM32_toolbox_1-1/scicos_blocks/src/c\convert.c ****                 {
 424:C:/Users/geoma/Desktop/Scilab/toolboxes/STM32_toolbox_1-1/scicos_blocks/src/c\convert.c ****                     y[i] = (SCSREAL_COP) u[i];
 1826              		.loc 1 424 0 discriminator 3
 1827 0b84 06EBC405 		add	r5, r6, r4, lsl #3
 1828 0b88 57F82400 		ldr	r0, [r7, r4, lsl #2]
 1829 0b8c FFF7FEFF 		bl	__aeabi_ui2d
 1830              	.LVL343:
 1831 0b90 C5E90001 		strd	r0, [r5]
 422:C:/Users/geoma/Desktop/Scilab/toolboxes/STM32_toolbox_1-1/scicos_blocks/src/c\convert.c ****                 for (i = 0; i < m * n; i++)
 1832              		.loc 1 422 0 discriminator 3
 1833 0b94 0134     		adds	r4, r4, #1
 1834              	.LVL344:
 1835              	.L166:
 422:C:/Users/geoma/Desktop/Scilab/toolboxes/STM32_toolbox_1-1/scicos_blocks/src/c\convert.c ****                 for (i = 0; i < m * n; i++)
 1836              		.loc 1 422 0 is_stmt 0 discriminator 1
 1837 0b96 0AFB0BF3 		mul	r3, r10, fp
 1838 0b9a A342     		cmp	r3, r4
 1839 0b9c F2DC     		bgt	.L167
 1840 0b9e 01F05BB9 		b	.L1
 1841              	.LVL345:
 1842              	.L27:
 1843              	.LBE24:
 1844              	.LBB25:
 425:C:/Users/geoma/Desktop/Scilab/toolboxes/STM32_toolbox_1-1/scicos_blocks/src/c\convert.c ****                 }
 426:C:/Users/geoma/Desktop/Scilab/toolboxes/STM32_toolbox_1-1/scicos_blocks/src/c\convert.c ****                 break;
 427:C:/Users/geoma/Desktop/Scilab/toolboxes/STM32_toolbox_1-1/scicos_blocks/src/c\convert.c ****             }
 428:C:/Users/geoma/Desktop/Scilab/toolboxes/STM32_toolbox_1-1/scicos_blocks/src/c\convert.c ****             case 24:
 429:C:/Users/geoma/Desktop/Scilab/toolboxes/STM32_toolbox_1-1/scicos_blocks/src/c\convert.c ****             {
 430:C:/Users/geoma/Desktop/Scilab/toolboxes/STM32_toolbox_1-1/scicos_blocks/src/c\convert.c ****                 SCSUINT32_COP *u = NULL;
 431:C:/Users/geoma/Desktop/Scilab/toolboxes/STM32_toolbox_1-1/scicos_blocks/src/c\convert.c ****                 SCSINT16_COP *y = NULL;
 432:C:/Users/geoma/Desktop/Scilab/toolboxes/STM32_toolbox_1-1/scicos_blocks/src/c\convert.c ****                 u = Getuint32InPortPtrs(block, 1);
 1845              		.loc 1 432 0 is_stmt 1
 1846 0ba2 436C     		ldr	r3, [r0, #68]
 1847 0ba4 D3F80080 		ldr	r8, [r3]
 1848              	.LVL346:
 433:C:/Users/geoma/Desktop/Scilab/toolboxes/STM32_toolbox_1-1/scicos_blocks/src/c\convert.c ****                 y = Getint16OutPortPtrs(block, 1);
 1849              		.loc 1 433 0
 1850 0ba8 036D     		ldr	r3, [r0, #80]
 1851 0baa D3F80090 		ldr	r9, [r3]
 1852              	.LVL347:
 434:C:/Users/geoma/Desktop/Scilab/toolboxes/STM32_toolbox_1-1/scicos_blocks/src/c\convert.c ****                 k = pow(2, 16);
 435:C:/Users/geoma/Desktop/Scilab/toolboxes/STM32_toolbox_1-1/scicos_blocks/src/c\convert.c ****                 for (i = 0; i < m * n; i++)
 1853              		.loc 1 435 0
 1854 0bae 0026     		movs	r6, #0
 1855 0bb0 48E0     		b	.L168
 1856              	.LVL348:
 1857              	.L171:
 436:C:/Users/geoma/Desktop/Scilab/toolboxes/STM32_toolbox_1-1/scicos_blocks/src/c\convert.c ****                 {
 437:C:/Users/geoma/Desktop/Scilab/toolboxes/STM32_toolbox_1-1/scicos_blocks/src/c\convert.c ****                     v = (double)u[i];
ARM GAS  C:\Users\geoma\AppData\Local\Temp\ccpZNVPJ.s 			page 42


 1858              		.loc 1 437 0
 1859 0bb2 3746     		mov	r7, r6
 1860 0bb4 58F82600 		ldr	r0, [r8, r6, lsl #2]
 1861 0bb8 FFF7FEFF 		bl	__aeabi_ui2d
 1862              	.LVL349:
 1863 0bbc 0446     		mov	r4, r0
 1864 0bbe 0D46     		mov	r5, r1
 1865              	.LVL350:
 438:C:/Users/geoma/Desktop/Scilab/toolboxes/STM32_toolbox_1-1/scicos_blocks/src/c\convert.c ****                     w = v - (double)((int)(v / k)) * k;
 1866              		.loc 1 438 0
 1867 0bc0 0022     		movs	r2, #0
 1868 0bc2 C74B     		ldr	r3, .L534+16
 1869 0bc4 FFF7FEFF 		bl	__aeabi_dmul
 1870              	.LVL351:
 1871 0bc8 FFF7FEFF 		bl	__aeabi_d2iz
 1872              	.LVL352:
 1873 0bcc FFF7FEFF 		bl	__aeabi_i2d
 1874              	.LVL353:
 1875 0bd0 0022     		movs	r2, #0
 1876 0bd2 C44B     		ldr	r3, .L534+20
 1877 0bd4 FFF7FEFF 		bl	__aeabi_dmul
 1878              	.LVL354:
 1879 0bd8 0246     		mov	r2, r0
 1880 0bda 0B46     		mov	r3, r1
 1881 0bdc 2046     		mov	r0, r4
 1882 0bde 2946     		mov	r1, r5
 1883 0be0 FFF7FEFF 		bl	__aeabi_dsub
 1884              	.LVL355:
 1885 0be4 0446     		mov	r4, r0
 1886              	.LVL356:
 1887 0be6 0D46     		mov	r5, r1
 1888              	.LVL357:
 439:C:/Users/geoma/Desktop/Scilab/toolboxes/STM32_toolbox_1-1/scicos_blocks/src/c\convert.c ****                     if ((w) > k / 2 - 1)
 1889              		.loc 1 439 0
 1890 0be8 B9A3     		adr	r3, .L534
 1891 0bea D3E90023 		ldrd	r2, [r3]
 1892 0bee FFF7FEFF 		bl	__aeabi_dcmpgt
 1893              	.LVL358:
 1894 0bf2 00B3     		cbz	r0, .L169
 440:C:/Users/geoma/Desktop/Scilab/toolboxes/STM32_toolbox_1-1/scicos_blocks/src/c\convert.c ****                     {
 441:C:/Users/geoma/Desktop/Scilab/toolboxes/STM32_toolbox_1-1/scicos_blocks/src/c\convert.c ****                         w = (-k / 2 + fabs(w - (double)((int)(w / (k / 2))) * (k / 2)));
 1895              		.loc 1 441 0
 1896 0bf4 2046     		mov	r0, r4
 1897 0bf6 2946     		mov	r1, r5
 1898 0bf8 0022     		movs	r2, #0
 1899 0bfa 4FF07C53 		mov	r3, #1056964608
 1900 0bfe FFF7FEFF 		bl	__aeabi_dmul
 1901              	.LVL359:
 1902 0c02 FFF7FEFF 		bl	__aeabi_d2iz
 1903              	.LVL360:
 1904 0c06 FFF7FEFF 		bl	__aeabi_i2d
 1905              	.LVL361:
 1906 0c0a 0022     		movs	r2, #0
 1907 0c0c B64B     		ldr	r3, .L534+24
 1908 0c0e FFF7FEFF 		bl	__aeabi_dmul
 1909              	.LVL362:
 1910 0c12 0246     		mov	r2, r0
ARM GAS  C:\Users\geoma\AppData\Local\Temp\ccpZNVPJ.s 			page 43


 1911 0c14 0B46     		mov	r3, r1
 1912 0c16 2046     		mov	r0, r4
 1913 0c18 2946     		mov	r1, r5
 1914 0c1a FFF7FEFF 		bl	__aeabi_dsub
 1915              	.LVL363:
 1916 0c1e 0C90     		str	r0, [sp, #48]
 1917 0c20 21F00043 		bic	r3, r1, #-2147483648
 1918 0c24 0D93     		str	r3, [sp, #52]
 1919 0c26 DDE90C01 		ldrd	r0, [sp, #48]
 1920 0c2a 0022     		movs	r2, #0
 1921 0c2c AE4B     		ldr	r3, .L534+24
 1922 0c2e FFF7FEFF 		bl	__aeabi_dsub
 1923              	.LVL364:
 1924 0c32 0446     		mov	r4, r0
 1925              	.LVL365:
 1926 0c34 0D46     		mov	r5, r1
 1927              	.LVL366:
 1928              	.L169:
 442:C:/Users/geoma/Desktop/Scilab/toolboxes/STM32_toolbox_1-1/scicos_blocks/src/c\convert.c ****                     }
 443:C:/Users/geoma/Desktop/Scilab/toolboxes/STM32_toolbox_1-1/scicos_blocks/src/c\convert.c ****                     y[i] = (SCSINT16_COP)w;
 1929              		.loc 1 443 0 discriminator 2
 1930 0c36 2046     		mov	r0, r4
 1931 0c38 2946     		mov	r1, r5
 1932 0c3a FFF7FEFF 		bl	__aeabi_d2iz
 1933              	.LVL367:
 1934 0c3e 29F81700 		strh	r0, [r9, r7, lsl #1]	@ movhi
 435:C:/Users/geoma/Desktop/Scilab/toolboxes/STM32_toolbox_1-1/scicos_blocks/src/c\convert.c ****                 {
 1935              		.loc 1 435 0 discriminator 2
 1936 0c42 0136     		adds	r6, r6, #1
 1937              	.LVL368:
 1938              	.L168:
 435:C:/Users/geoma/Desktop/Scilab/toolboxes/STM32_toolbox_1-1/scicos_blocks/src/c\convert.c ****                 {
 1939              		.loc 1 435 0 is_stmt 0 discriminator 1
 1940 0c44 0AFB0BF3 		mul	r3, r10, fp
 1941 0c48 B342     		cmp	r3, r6
 1942 0c4a B2DC     		bgt	.L171
 1943 0c4c 01F004B9 		b	.L1
 1944              	.LVL369:
 1945              	.L28:
 1946              	.LBE25:
 1947              	.LBB26:
 444:C:/Users/geoma/Desktop/Scilab/toolboxes/STM32_toolbox_1-1/scicos_blocks/src/c\convert.c ****                 }
 445:C:/Users/geoma/Desktop/Scilab/toolboxes/STM32_toolbox_1-1/scicos_blocks/src/c\convert.c ****                 break;
 446:C:/Users/geoma/Desktop/Scilab/toolboxes/STM32_toolbox_1-1/scicos_blocks/src/c\convert.c ****             }
 447:C:/Users/geoma/Desktop/Scilab/toolboxes/STM32_toolbox_1-1/scicos_blocks/src/c\convert.c ****             case 25:
 448:C:/Users/geoma/Desktop/Scilab/toolboxes/STM32_toolbox_1-1/scicos_blocks/src/c\convert.c ****             {
 449:C:/Users/geoma/Desktop/Scilab/toolboxes/STM32_toolbox_1-1/scicos_blocks/src/c\convert.c ****                 SCSUINT32_COP *u = NULL;
 450:C:/Users/geoma/Desktop/Scilab/toolboxes/STM32_toolbox_1-1/scicos_blocks/src/c\convert.c ****                 SCSINT8_COP *y = NULL;
 451:C:/Users/geoma/Desktop/Scilab/toolboxes/STM32_toolbox_1-1/scicos_blocks/src/c\convert.c ****                 u = Getuint32InPortPtrs(block, 1);
 1948              		.loc 1 451 0 is_stmt 1
 1949 0c50 436C     		ldr	r3, [r0, #68]
 1950 0c52 D3F80080 		ldr	r8, [r3]
 1951              	.LVL370:
 452:C:/Users/geoma/Desktop/Scilab/toolboxes/STM32_toolbox_1-1/scicos_blocks/src/c\convert.c ****                 y = Getint8OutPortPtrs(block, 1);
 1952              		.loc 1 452 0
 1953 0c56 036D     		ldr	r3, [r0, #80]
 1954 0c58 D3F80090 		ldr	r9, [r3]
ARM GAS  C:\Users\geoma\AppData\Local\Temp\ccpZNVPJ.s 			page 44


 1955              	.LVL371:
 453:C:/Users/geoma/Desktop/Scilab/toolboxes/STM32_toolbox_1-1/scicos_blocks/src/c\convert.c ****                 k = pow(2, 8);
 454:C:/Users/geoma/Desktop/Scilab/toolboxes/STM32_toolbox_1-1/scicos_blocks/src/c\convert.c ****                 for (i = 0; i < m * n; i++)
 1956              		.loc 1 454 0
 1957 0c5c 0026     		movs	r6, #0
 1958 0c5e 48E0     		b	.L172
 1959              	.LVL372:
 1960              	.L175:
 455:C:/Users/geoma/Desktop/Scilab/toolboxes/STM32_toolbox_1-1/scicos_blocks/src/c\convert.c ****                 {
 456:C:/Users/geoma/Desktop/Scilab/toolboxes/STM32_toolbox_1-1/scicos_blocks/src/c\convert.c ****                     v = (double)u[i];
 1961              		.loc 1 456 0
 1962 0c60 3746     		mov	r7, r6
 1963 0c62 58F82600 		ldr	r0, [r8, r6, lsl #2]
 1964 0c66 FFF7FEFF 		bl	__aeabi_ui2d
 1965              	.LVL373:
 1966 0c6a 0446     		mov	r4, r0
 1967 0c6c 0D46     		mov	r5, r1
 1968              	.LVL374:
 457:C:/Users/geoma/Desktop/Scilab/toolboxes/STM32_toolbox_1-1/scicos_blocks/src/c\convert.c ****                     w = v - (double)((int)(v / k)) * k;
 1969              		.loc 1 457 0
 1970 0c6e 0022     		movs	r2, #0
 1971 0c70 9E4B     		ldr	r3, .L534+28
 1972 0c72 FFF7FEFF 		bl	__aeabi_dmul
 1973              	.LVL375:
 1974 0c76 FFF7FEFF 		bl	__aeabi_d2iz
 1975              	.LVL376:
 1976 0c7a FFF7FEFF 		bl	__aeabi_i2d
 1977              	.LVL377:
 1978 0c7e 0022     		movs	r2, #0
 1979 0c80 9B4B     		ldr	r3, .L534+32
 1980 0c82 FFF7FEFF 		bl	__aeabi_dmul
 1981              	.LVL378:
 1982 0c86 0246     		mov	r2, r0
 1983 0c88 0B46     		mov	r3, r1
 1984 0c8a 2046     		mov	r0, r4
 1985 0c8c 2946     		mov	r1, r5
 1986 0c8e FFF7FEFF 		bl	__aeabi_dsub
 1987              	.LVL379:
 1988 0c92 0446     		mov	r4, r0
 1989              	.LVL380:
 1990 0c94 0D46     		mov	r5, r1
 1991              	.LVL381:
 458:C:/Users/geoma/Desktop/Scilab/toolboxes/STM32_toolbox_1-1/scicos_blocks/src/c\convert.c ****                     if ((w) > k / 2 - 1)
 1992              		.loc 1 458 0
 1993 0c96 90A3     		adr	r3, .L534+8
 1994 0c98 D3E90023 		ldrd	r2, [r3]
 1995 0c9c FFF7FEFF 		bl	__aeabi_dcmpgt
 1996              	.LVL382:
 1997 0ca0 00B3     		cbz	r0, .L173
 459:C:/Users/geoma/Desktop/Scilab/toolboxes/STM32_toolbox_1-1/scicos_blocks/src/c\convert.c ****                     {
 460:C:/Users/geoma/Desktop/Scilab/toolboxes/STM32_toolbox_1-1/scicos_blocks/src/c\convert.c ****                         w = (-k / 2 + fabs(w - (double)((int)(w / (k / 2))) * (k / 2)));
 1998              		.loc 1 460 0
 1999 0ca2 2046     		mov	r0, r4
 2000 0ca4 2946     		mov	r1, r5
 2001 0ca6 0022     		movs	r2, #0
 2002 0ca8 4FF07E53 		mov	r3, #1065353216
 2003 0cac FFF7FEFF 		bl	__aeabi_dmul
ARM GAS  C:\Users\geoma\AppData\Local\Temp\ccpZNVPJ.s 			page 45


 2004              	.LVL383:
 2005 0cb0 FFF7FEFF 		bl	__aeabi_d2iz
 2006              	.LVL384:
 2007 0cb4 FFF7FEFF 		bl	__aeabi_i2d
 2008              	.LVL385:
 2009 0cb8 0022     		movs	r2, #0
 2010 0cba 8E4B     		ldr	r3, .L534+36
 2011 0cbc FFF7FEFF 		bl	__aeabi_dmul
 2012              	.LVL386:
 2013 0cc0 0246     		mov	r2, r0
 2014 0cc2 0B46     		mov	r3, r1
 2015 0cc4 2046     		mov	r0, r4
 2016 0cc6 2946     		mov	r1, r5
 2017 0cc8 FFF7FEFF 		bl	__aeabi_dsub
 2018              	.LVL387:
 2019 0ccc 0E90     		str	r0, [sp, #56]
 2020 0cce 21F00043 		bic	r3, r1, #-2147483648
 2021 0cd2 0F93     		str	r3, [sp, #60]
 2022 0cd4 DDE90E01 		ldrd	r0, [sp, #56]
 2023 0cd8 0022     		movs	r2, #0
 2024 0cda 864B     		ldr	r3, .L534+36
 2025 0cdc FFF7FEFF 		bl	__aeabi_dsub
 2026              	.LVL388:
 2027 0ce0 0446     		mov	r4, r0
 2028              	.LVL389:
 2029 0ce2 0D46     		mov	r5, r1
 2030              	.LVL390:
 2031              	.L173:
 461:C:/Users/geoma/Desktop/Scilab/toolboxes/STM32_toolbox_1-1/scicos_blocks/src/c\convert.c ****                     }
 462:C:/Users/geoma/Desktop/Scilab/toolboxes/STM32_toolbox_1-1/scicos_blocks/src/c\convert.c ****                     y[i] = (SCSINT8_COP)w;
 2032              		.loc 1 462 0 discriminator 2
 2033 0ce4 2046     		mov	r0, r4
 2034 0ce6 2946     		mov	r1, r5
 2035 0ce8 FFF7FEFF 		bl	__aeabi_d2uiz
 2036              	.LVL391:
 2037 0cec 09F80700 		strb	r0, [r9, r7]
 454:C:/Users/geoma/Desktop/Scilab/toolboxes/STM32_toolbox_1-1/scicos_blocks/src/c\convert.c ****                 {
 2038              		.loc 1 454 0 discriminator 2
 2039 0cf0 0136     		adds	r6, r6, #1
 2040              	.LVL392:
 2041              	.L172:
 454:C:/Users/geoma/Desktop/Scilab/toolboxes/STM32_toolbox_1-1/scicos_blocks/src/c\convert.c ****                 {
 2042              		.loc 1 454 0 is_stmt 0 discriminator 1
 2043 0cf2 0AFB0BF3 		mul	r3, r10, fp
 2044 0cf6 B342     		cmp	r3, r6
 2045 0cf8 B2DC     		bgt	.L175
 2046 0cfa 01F0ADB8 		b	.L1
 2047              	.LVL393:
 2048              	.L29:
 2049              	.LBE26:
 2050              	.LBB27:
 463:C:/Users/geoma/Desktop/Scilab/toolboxes/STM32_toolbox_1-1/scicos_blocks/src/c\convert.c ****                 }
 464:C:/Users/geoma/Desktop/Scilab/toolboxes/STM32_toolbox_1-1/scicos_blocks/src/c\convert.c ****                 break;
 465:C:/Users/geoma/Desktop/Scilab/toolboxes/STM32_toolbox_1-1/scicos_blocks/src/c\convert.c ****             }
 466:C:/Users/geoma/Desktop/Scilab/toolboxes/STM32_toolbox_1-1/scicos_blocks/src/c\convert.c ****             case 26:
 467:C:/Users/geoma/Desktop/Scilab/toolboxes/STM32_toolbox_1-1/scicos_blocks/src/c\convert.c ****             {
 468:C:/Users/geoma/Desktop/Scilab/toolboxes/STM32_toolbox_1-1/scicos_blocks/src/c\convert.c ****                 SCSUINT32_COP *u = NULL;
ARM GAS  C:\Users\geoma\AppData\Local\Temp\ccpZNVPJ.s 			page 46


 469:C:/Users/geoma/Desktop/Scilab/toolboxes/STM32_toolbox_1-1/scicos_blocks/src/c\convert.c ****                 SCSUINT16_COP *y = NULL;
 470:C:/Users/geoma/Desktop/Scilab/toolboxes/STM32_toolbox_1-1/scicos_blocks/src/c\convert.c ****                 u = Getuint32InPortPtrs(block, 1);
 2051              		.loc 1 470 0 is_stmt 1
 2052 0cfe 436C     		ldr	r3, [r0, #68]
 2053 0d00 1F68     		ldr	r7, [r3]
 2054              	.LVL394:
 471:C:/Users/geoma/Desktop/Scilab/toolboxes/STM32_toolbox_1-1/scicos_blocks/src/c\convert.c ****                 y = Getuint16OutPortPtrs(block, 1);
 2055              		.loc 1 471 0
 2056 0d02 036D     		ldr	r3, [r0, #80]
 2057 0d04 D3F80080 		ldr	r8, [r3]
 2058              	.LVL395:
 472:C:/Users/geoma/Desktop/Scilab/toolboxes/STM32_toolbox_1-1/scicos_blocks/src/c\convert.c ****                 k = pow(2, 16);
 473:C:/Users/geoma/Desktop/Scilab/toolboxes/STM32_toolbox_1-1/scicos_blocks/src/c\convert.c ****                 for (i = 0; i < m * n; i++)
 2059              		.loc 1 473 0
 2060 0d08 0026     		movs	r6, #0
 2061 0d0a 1CE0     		b	.L176
 2062              	.LVL396:
 2063              	.L177:
 474:C:/Users/geoma/Desktop/Scilab/toolboxes/STM32_toolbox_1-1/scicos_blocks/src/c\convert.c ****                 {
 475:C:/Users/geoma/Desktop/Scilab/toolboxes/STM32_toolbox_1-1/scicos_blocks/src/c\convert.c ****                     v = (double)u[i];
 2064              		.loc 1 475 0 discriminator 3
 2065 0d0c 57F82600 		ldr	r0, [r7, r6, lsl #2]
 2066 0d10 FFF7FEFF 		bl	__aeabi_ui2d
 2067              	.LVL397:
 2068 0d14 0446     		mov	r4, r0
 2069 0d16 0D46     		mov	r5, r1
 2070              	.LVL398:
 476:C:/Users/geoma/Desktop/Scilab/toolboxes/STM32_toolbox_1-1/scicos_blocks/src/c\convert.c ****                     w = v - (double)((int)(v / k)) * k;
 2071              		.loc 1 476 0 discriminator 3
 2072 0d18 0022     		movs	r2, #0
 2073 0d1a 714B     		ldr	r3, .L534+16
 2074 0d1c FFF7FEFF 		bl	__aeabi_dmul
 2075              	.LVL399:
 2076 0d20 FFF7FEFF 		bl	__aeabi_d2iz
 2077              	.LVL400:
 2078 0d24 FFF7FEFF 		bl	__aeabi_i2d
 2079              	.LVL401:
 2080 0d28 0022     		movs	r2, #0
 2081 0d2a 6E4B     		ldr	r3, .L534+20
 2082 0d2c FFF7FEFF 		bl	__aeabi_dmul
 2083              	.LVL402:
 2084 0d30 0246     		mov	r2, r0
 2085 0d32 0B46     		mov	r3, r1
 2086 0d34 2046     		mov	r0, r4
 2087 0d36 2946     		mov	r1, r5
 2088 0d38 FFF7FEFF 		bl	__aeabi_dsub
 2089              	.LVL403:
 477:C:/Users/geoma/Desktop/Scilab/toolboxes/STM32_toolbox_1-1/scicos_blocks/src/c\convert.c ****                     y[i] = (SCSUINT16_COP)w;
 2090              		.loc 1 477 0 discriminator 3
 2091 0d3c FFF7FEFF 		bl	__aeabi_d2uiz
 2092              	.LVL404:
 2093 0d40 28F81600 		strh	r0, [r8, r6, lsl #1]	@ movhi
 473:C:/Users/geoma/Desktop/Scilab/toolboxes/STM32_toolbox_1-1/scicos_blocks/src/c\convert.c ****                 {
 2094              		.loc 1 473 0 discriminator 3
 2095 0d44 0136     		adds	r6, r6, #1
 2096              	.LVL405:
 2097              	.L176:
ARM GAS  C:\Users\geoma\AppData\Local\Temp\ccpZNVPJ.s 			page 47


 473:C:/Users/geoma/Desktop/Scilab/toolboxes/STM32_toolbox_1-1/scicos_blocks/src/c\convert.c ****                 {
 2098              		.loc 1 473 0 is_stmt 0 discriminator 1
 2099 0d46 0AFB0BF3 		mul	r3, r10, fp
 2100 0d4a B342     		cmp	r3, r6
 2101 0d4c DEDC     		bgt	.L177
 2102 0d4e 01F083B8 		b	.L1
 2103              	.LVL406:
 2104              	.L30:
 2105              	.LBE27:
 2106              	.LBB28:
 478:C:/Users/geoma/Desktop/Scilab/toolboxes/STM32_toolbox_1-1/scicos_blocks/src/c\convert.c ****                 }
 479:C:/Users/geoma/Desktop/Scilab/toolboxes/STM32_toolbox_1-1/scicos_blocks/src/c\convert.c ****                 break;
 480:C:/Users/geoma/Desktop/Scilab/toolboxes/STM32_toolbox_1-1/scicos_blocks/src/c\convert.c ****             }
 481:C:/Users/geoma/Desktop/Scilab/toolboxes/STM32_toolbox_1-1/scicos_blocks/src/c\convert.c ****             case 27:
 482:C:/Users/geoma/Desktop/Scilab/toolboxes/STM32_toolbox_1-1/scicos_blocks/src/c\convert.c ****             {
 483:C:/Users/geoma/Desktop/Scilab/toolboxes/STM32_toolbox_1-1/scicos_blocks/src/c\convert.c ****                 SCSUINT32_COP *u = NULL;
 484:C:/Users/geoma/Desktop/Scilab/toolboxes/STM32_toolbox_1-1/scicos_blocks/src/c\convert.c ****                 SCSUINT8_COP *y = NULL;
 485:C:/Users/geoma/Desktop/Scilab/toolboxes/STM32_toolbox_1-1/scicos_blocks/src/c\convert.c ****                 u = Getuint32InPortPtrs(block, 1);
 2107              		.loc 1 485 0 is_stmt 1
 2108 0d52 436C     		ldr	r3, [r0, #68]
 2109 0d54 1F68     		ldr	r7, [r3]
 2110              	.LVL407:
 486:C:/Users/geoma/Desktop/Scilab/toolboxes/STM32_toolbox_1-1/scicos_blocks/src/c\convert.c ****                 y = Getuint8OutPortPtrs(block, 1);
 2111              		.loc 1 486 0
 2112 0d56 036D     		ldr	r3, [r0, #80]
 2113 0d58 D3F80080 		ldr	r8, [r3]
 2114              	.LVL408:
 487:C:/Users/geoma/Desktop/Scilab/toolboxes/STM32_toolbox_1-1/scicos_blocks/src/c\convert.c ****                 k = pow(2, 8);
 488:C:/Users/geoma/Desktop/Scilab/toolboxes/STM32_toolbox_1-1/scicos_blocks/src/c\convert.c ****                 for (i = 0; i < m * n; i++)
 2115              		.loc 1 488 0
 2116 0d5c 0026     		movs	r6, #0
 2117 0d5e 1CE0     		b	.L178
 2118              	.LVL409:
 2119              	.L179:
 489:C:/Users/geoma/Desktop/Scilab/toolboxes/STM32_toolbox_1-1/scicos_blocks/src/c\convert.c ****                 {
 490:C:/Users/geoma/Desktop/Scilab/toolboxes/STM32_toolbox_1-1/scicos_blocks/src/c\convert.c ****                     v = (double)u[i];
 2120              		.loc 1 490 0 discriminator 3
 2121 0d60 57F82600 		ldr	r0, [r7, r6, lsl #2]
 2122 0d64 FFF7FEFF 		bl	__aeabi_ui2d
 2123              	.LVL410:
 2124 0d68 0446     		mov	r4, r0
 2125 0d6a 0D46     		mov	r5, r1
 2126              	.LVL411:
 491:C:/Users/geoma/Desktop/Scilab/toolboxes/STM32_toolbox_1-1/scicos_blocks/src/c\convert.c ****                     w = v - (double)((int)(v / k)) * k;
 2127              		.loc 1 491 0 discriminator 3
 2128 0d6c 0022     		movs	r2, #0
 2129 0d6e 5F4B     		ldr	r3, .L534+28
 2130 0d70 FFF7FEFF 		bl	__aeabi_dmul
 2131              	.LVL412:
 2132 0d74 FFF7FEFF 		bl	__aeabi_d2iz
 2133              	.LVL413:
 2134 0d78 FFF7FEFF 		bl	__aeabi_i2d
 2135              	.LVL414:
 2136 0d7c 0022     		movs	r2, #0
 2137 0d7e 5C4B     		ldr	r3, .L534+32
 2138 0d80 FFF7FEFF 		bl	__aeabi_dmul
 2139              	.LVL415:
ARM GAS  C:\Users\geoma\AppData\Local\Temp\ccpZNVPJ.s 			page 48


 2140 0d84 0246     		mov	r2, r0
 2141 0d86 0B46     		mov	r3, r1
 2142 0d88 2046     		mov	r0, r4
 2143 0d8a 2946     		mov	r1, r5
 2144 0d8c FFF7FEFF 		bl	__aeabi_dsub
 2145              	.LVL416:
 492:C:/Users/geoma/Desktop/Scilab/toolboxes/STM32_toolbox_1-1/scicos_blocks/src/c\convert.c ****                     y[i] = (SCSUINT8_COP)w;
 2146              		.loc 1 492 0 discriminator 3
 2147 0d90 FFF7FEFF 		bl	__aeabi_d2uiz
 2148              	.LVL417:
 2149 0d94 08F80600 		strb	r0, [r8, r6]
 488:C:/Users/geoma/Desktop/Scilab/toolboxes/STM32_toolbox_1-1/scicos_blocks/src/c\convert.c ****                 {
 2150              		.loc 1 488 0 discriminator 3
 2151 0d98 0136     		adds	r6, r6, #1
 2152              	.LVL418:
 2153              	.L178:
 488:C:/Users/geoma/Desktop/Scilab/toolboxes/STM32_toolbox_1-1/scicos_blocks/src/c\convert.c ****                 {
 2154              		.loc 1 488 0 is_stmt 0 discriminator 1
 2155 0d9a 0AFB0BF3 		mul	r3, r10, fp
 2156 0d9e B342     		cmp	r3, r6
 2157 0da0 DEDC     		bgt	.L179
 2158 0da2 01F059B8 		b	.L1
 2159              	.LVL419:
 2160              	.L31:
 2161              	.LBE28:
 2162              	.LBB29:
 493:C:/Users/geoma/Desktop/Scilab/toolboxes/STM32_toolbox_1-1/scicos_blocks/src/c\convert.c ****                 }
 494:C:/Users/geoma/Desktop/Scilab/toolboxes/STM32_toolbox_1-1/scicos_blocks/src/c\convert.c ****                 break;
 495:C:/Users/geoma/Desktop/Scilab/toolboxes/STM32_toolbox_1-1/scicos_blocks/src/c\convert.c ****             }
 496:C:/Users/geoma/Desktop/Scilab/toolboxes/STM32_toolbox_1-1/scicos_blocks/src/c\convert.c ****             case 28:
 497:C:/Users/geoma/Desktop/Scilab/toolboxes/STM32_toolbox_1-1/scicos_blocks/src/c\convert.c ****             {
 498:C:/Users/geoma/Desktop/Scilab/toolboxes/STM32_toolbox_1-1/scicos_blocks/src/c\convert.c ****                 SCSUINT16_COP *u = NULL;
 499:C:/Users/geoma/Desktop/Scilab/toolboxes/STM32_toolbox_1-1/scicos_blocks/src/c\convert.c ****                 SCSREAL_COP *y = NULL;
 500:C:/Users/geoma/Desktop/Scilab/toolboxes/STM32_toolbox_1-1/scicos_blocks/src/c\convert.c ****                 u = Getuint16InPortPtrs(block, 1);
 2163              		.loc 1 500 0 is_stmt 1
 2164 0da6 436C     		ldr	r3, [r0, #68]
 2165 0da8 1F68     		ldr	r7, [r3]
 2166              	.LVL420:
 501:C:/Users/geoma/Desktop/Scilab/toolboxes/STM32_toolbox_1-1/scicos_blocks/src/c\convert.c ****                 y = GetRealOutPortPtrs(block, 1);
 2167              		.loc 1 501 0
 2168 0daa 036D     		ldr	r3, [r0, #80]
 2169 0dac 1E68     		ldr	r6, [r3]
 2170              	.LVL421:
 502:C:/Users/geoma/Desktop/Scilab/toolboxes/STM32_toolbox_1-1/scicos_blocks/src/c\convert.c ****                 for (i = 0; i < m * n; i++)
 2171              		.loc 1 502 0
 2172 0dae 0024     		movs	r4, #0
 2173              	.LVL422:
 2174 0db0 08E0     		b	.L180
 2175              	.LVL423:
 2176              	.L181:
 503:C:/Users/geoma/Desktop/Scilab/toolboxes/STM32_toolbox_1-1/scicos_blocks/src/c\convert.c ****                 {
 504:C:/Users/geoma/Desktop/Scilab/toolboxes/STM32_toolbox_1-1/scicos_blocks/src/c\convert.c ****                     y[i] = (SCSREAL_COP) u[i];
 2177              		.loc 1 504 0 discriminator 3
 2178 0db2 06EBC405 		add	r5, r6, r4, lsl #3
 2179 0db6 37F81400 		ldrh	r0, [r7, r4, lsl #1]
 2180 0dba FFF7FEFF 		bl	__aeabi_ui2d
 2181              	.LVL424:
ARM GAS  C:\Users\geoma\AppData\Local\Temp\ccpZNVPJ.s 			page 49


 2182 0dbe C5E90001 		strd	r0, [r5]
 502:C:/Users/geoma/Desktop/Scilab/toolboxes/STM32_toolbox_1-1/scicos_blocks/src/c\convert.c ****                 for (i = 0; i < m * n; i++)
 2183              		.loc 1 502 0 discriminator 3
 2184 0dc2 0134     		adds	r4, r4, #1
 2185              	.LVL425:
 2186              	.L180:
 502:C:/Users/geoma/Desktop/Scilab/toolboxes/STM32_toolbox_1-1/scicos_blocks/src/c\convert.c ****                 for (i = 0; i < m * n; i++)
 2187              		.loc 1 502 0 is_stmt 0 discriminator 1
 2188 0dc4 0AFB0BF3 		mul	r3, r10, fp
 2189 0dc8 A342     		cmp	r3, r4
 2190 0dca F2DC     		bgt	.L181
 2191 0dcc 01F044B8 		b	.L1
 2192              	.LVL426:
 2193              	.L32:
 2194              	.LBE29:
 2195              	.LBB30:
 505:C:/Users/geoma/Desktop/Scilab/toolboxes/STM32_toolbox_1-1/scicos_blocks/src/c\convert.c ****                 }
 506:C:/Users/geoma/Desktop/Scilab/toolboxes/STM32_toolbox_1-1/scicos_blocks/src/c\convert.c ****                 break;
 507:C:/Users/geoma/Desktop/Scilab/toolboxes/STM32_toolbox_1-1/scicos_blocks/src/c\convert.c ****             }
 508:C:/Users/geoma/Desktop/Scilab/toolboxes/STM32_toolbox_1-1/scicos_blocks/src/c\convert.c ****             case 29:
 509:C:/Users/geoma/Desktop/Scilab/toolboxes/STM32_toolbox_1-1/scicos_blocks/src/c\convert.c ****             {
 510:C:/Users/geoma/Desktop/Scilab/toolboxes/STM32_toolbox_1-1/scicos_blocks/src/c\convert.c ****                 SCSUINT16_COP *u = NULL;
 511:C:/Users/geoma/Desktop/Scilab/toolboxes/STM32_toolbox_1-1/scicos_blocks/src/c\convert.c ****                 SCSINT32_COP *y = NULL;
 512:C:/Users/geoma/Desktop/Scilab/toolboxes/STM32_toolbox_1-1/scicos_blocks/src/c\convert.c ****                 u = Getuint16InPortPtrs(block, 1);
 2196              		.loc 1 512 0 is_stmt 1
 2197 0dd0 436C     		ldr	r3, [r0, #68]
 2198 0dd2 1C68     		ldr	r4, [r3]
 2199              	.LVL427:
 513:C:/Users/geoma/Desktop/Scilab/toolboxes/STM32_toolbox_1-1/scicos_blocks/src/c\convert.c ****                 y = Getint32OutPortPtrs(block, 1);
 2200              		.loc 1 513 0
 2201 0dd4 036D     		ldr	r3, [r0, #80]
 2202 0dd6 1968     		ldr	r1, [r3]
 2203              	.LVL428:
 514:C:/Users/geoma/Desktop/Scilab/toolboxes/STM32_toolbox_1-1/scicos_blocks/src/c\convert.c ****                 for (i = 0; i < m * n; i++)
 2204              		.loc 1 514 0
 2205 0dd8 0023     		movs	r3, #0
 2206 0dda 04E0     		b	.L182
 2207              	.LVL429:
 2208              	.L183:
 515:C:/Users/geoma/Desktop/Scilab/toolboxes/STM32_toolbox_1-1/scicos_blocks/src/c\convert.c ****                 {
 516:C:/Users/geoma/Desktop/Scilab/toolboxes/STM32_toolbox_1-1/scicos_blocks/src/c\convert.c ****                     y[i] = (SCSINT32_COP)u[i];
 2209              		.loc 1 516 0 discriminator 3
 2210 0ddc 34F81320 		ldrh	r2, [r4, r3, lsl #1]
 2211 0de0 41F82320 		str	r2, [r1, r3, lsl #2]
 514:C:/Users/geoma/Desktop/Scilab/toolboxes/STM32_toolbox_1-1/scicos_blocks/src/c\convert.c ****                 for (i = 0; i < m * n; i++)
 2212              		.loc 1 514 0 discriminator 3
 2213 0de4 0133     		adds	r3, r3, #1
 2214              	.LVL430:
 2215              	.L182:
 514:C:/Users/geoma/Desktop/Scilab/toolboxes/STM32_toolbox_1-1/scicos_blocks/src/c\convert.c ****                 for (i = 0; i < m * n; i++)
 2216              		.loc 1 514 0 is_stmt 0 discriminator 1
 2217 0de6 0AFB0BF2 		mul	r2, r10, fp
 2218 0dea 9A42     		cmp	r2, r3
 2219 0dec F6DC     		bgt	.L183
 2220 0dee 01F033B8 		b	.L1
 2221              	.LVL431:
 2222              	.L33:
ARM GAS  C:\Users\geoma\AppData\Local\Temp\ccpZNVPJ.s 			page 50


 2223              	.LBE30:
 2224              	.LBB31:
 517:C:/Users/geoma/Desktop/Scilab/toolboxes/STM32_toolbox_1-1/scicos_blocks/src/c\convert.c ****                 }
 518:C:/Users/geoma/Desktop/Scilab/toolboxes/STM32_toolbox_1-1/scicos_blocks/src/c\convert.c ****                 break;
 519:C:/Users/geoma/Desktop/Scilab/toolboxes/STM32_toolbox_1-1/scicos_blocks/src/c\convert.c ****             }
 520:C:/Users/geoma/Desktop/Scilab/toolboxes/STM32_toolbox_1-1/scicos_blocks/src/c\convert.c ****             case 30:
 521:C:/Users/geoma/Desktop/Scilab/toolboxes/STM32_toolbox_1-1/scicos_blocks/src/c\convert.c ****             {
 522:C:/Users/geoma/Desktop/Scilab/toolboxes/STM32_toolbox_1-1/scicos_blocks/src/c\convert.c ****                 SCSUINT16_COP *u = NULL;
 523:C:/Users/geoma/Desktop/Scilab/toolboxes/STM32_toolbox_1-1/scicos_blocks/src/c\convert.c ****                 SCSINT8_COP *y = NULL;
 524:C:/Users/geoma/Desktop/Scilab/toolboxes/STM32_toolbox_1-1/scicos_blocks/src/c\convert.c ****                 u = Getuint16InPortPtrs(block, 1);
 2225              		.loc 1 524 0 is_stmt 1
 2226 0df2 436C     		ldr	r3, [r0, #68]
 2227 0df4 D3F80080 		ldr	r8, [r3]
 2228              	.LVL432:
 525:C:/Users/geoma/Desktop/Scilab/toolboxes/STM32_toolbox_1-1/scicos_blocks/src/c\convert.c ****                 y = Getint8OutPortPtrs(block, 1);
 2229              		.loc 1 525 0
 2230 0df8 036D     		ldr	r3, [r0, #80]
 2231 0dfa D3F80090 		ldr	r9, [r3]
 2232              	.LVL433:
 526:C:/Users/geoma/Desktop/Scilab/toolboxes/STM32_toolbox_1-1/scicos_blocks/src/c\convert.c ****                 k = pow(2, 8);
 527:C:/Users/geoma/Desktop/Scilab/toolboxes/STM32_toolbox_1-1/scicos_blocks/src/c\convert.c ****                 for (i = 0; i < m * n; i++)
 2233              		.loc 1 527 0
 2234 0dfe 0026     		movs	r6, #0
 2235 0e00 48E0     		b	.L184
 2236              	.LVL434:
 2237              	.L187:
 528:C:/Users/geoma/Desktop/Scilab/toolboxes/STM32_toolbox_1-1/scicos_blocks/src/c\convert.c ****                 {
 529:C:/Users/geoma/Desktop/Scilab/toolboxes/STM32_toolbox_1-1/scicos_blocks/src/c\convert.c ****                     v = (double)u[i];
 2238              		.loc 1 529 0
 2239 0e02 3746     		mov	r7, r6
 2240 0e04 38F81600 		ldrh	r0, [r8, r6, lsl #1]
 2241 0e08 FFF7FEFF 		bl	__aeabi_ui2d
 2242              	.LVL435:
 2243 0e0c 0446     		mov	r4, r0
 2244 0e0e 0D46     		mov	r5, r1
 2245              	.LVL436:
 530:C:/Users/geoma/Desktop/Scilab/toolboxes/STM32_toolbox_1-1/scicos_blocks/src/c\convert.c ****                     w = v - (double)((int)(v / k)) * k;
 2246              		.loc 1 530 0
 2247 0e10 0022     		movs	r2, #0
 2248 0e12 364B     		ldr	r3, .L534+28
 2249 0e14 FFF7FEFF 		bl	__aeabi_dmul
 2250              	.LVL437:
 2251 0e18 FFF7FEFF 		bl	__aeabi_d2iz
 2252              	.LVL438:
 2253 0e1c FFF7FEFF 		bl	__aeabi_i2d
 2254              	.LVL439:
 2255 0e20 0022     		movs	r2, #0
 2256 0e22 334B     		ldr	r3, .L534+32
 2257 0e24 FFF7FEFF 		bl	__aeabi_dmul
 2258              	.LVL440:
 2259 0e28 0246     		mov	r2, r0
 2260 0e2a 0B46     		mov	r3, r1
 2261 0e2c 2046     		mov	r0, r4
 2262 0e2e 2946     		mov	r1, r5
 2263 0e30 FFF7FEFF 		bl	__aeabi_dsub
 2264              	.LVL441:
 2265 0e34 0446     		mov	r4, r0
ARM GAS  C:\Users\geoma\AppData\Local\Temp\ccpZNVPJ.s 			page 51


 2266              	.LVL442:
 2267 0e36 0D46     		mov	r5, r1
 2268              	.LVL443:
 531:C:/Users/geoma/Desktop/Scilab/toolboxes/STM32_toolbox_1-1/scicos_blocks/src/c\convert.c ****                     if (w > k / 2 - 1)
 2269              		.loc 1 531 0
 2270 0e38 27A3     		adr	r3, .L534+8
 2271 0e3a D3E90023 		ldrd	r2, [r3]
 2272 0e3e FFF7FEFF 		bl	__aeabi_dcmpgt
 2273              	.LVL444:
 2274 0e42 00B3     		cbz	r0, .L185
 532:C:/Users/geoma/Desktop/Scilab/toolboxes/STM32_toolbox_1-1/scicos_blocks/src/c\convert.c ****                     {
 533:C:/Users/geoma/Desktop/Scilab/toolboxes/STM32_toolbox_1-1/scicos_blocks/src/c\convert.c ****                         w = (-k / 2 + fabs(w - (double)((int)(w / (k / 2))) * (k / 2)));
 2275              		.loc 1 533 0
 2276 0e44 2046     		mov	r0, r4
 2277 0e46 2946     		mov	r1, r5
 2278 0e48 0022     		movs	r2, #0
 2279 0e4a 4FF07E53 		mov	r3, #1065353216
 2280 0e4e FFF7FEFF 		bl	__aeabi_dmul
 2281              	.LVL445:
 2282 0e52 FFF7FEFF 		bl	__aeabi_d2iz
 2283              	.LVL446:
 2284 0e56 FFF7FEFF 		bl	__aeabi_i2d
 2285              	.LVL447:
 2286 0e5a 0022     		movs	r2, #0
 2287 0e5c 254B     		ldr	r3, .L534+36
 2288 0e5e FFF7FEFF 		bl	__aeabi_dmul
 2289              	.LVL448:
 2290 0e62 0246     		mov	r2, r0
 2291 0e64 0B46     		mov	r3, r1
 2292 0e66 2046     		mov	r0, r4
 2293 0e68 2946     		mov	r1, r5
 2294 0e6a FFF7FEFF 		bl	__aeabi_dsub
 2295              	.LVL449:
 2296 0e6e 1090     		str	r0, [sp, #64]
 2297 0e70 21F00043 		bic	r3, r1, #-2147483648
 2298 0e74 1193     		str	r3, [sp, #68]
 2299 0e76 DDE91001 		ldrd	r0, [sp, #64]
 2300 0e7a 0022     		movs	r2, #0
 2301 0e7c 1D4B     		ldr	r3, .L534+36
 2302 0e7e FFF7FEFF 		bl	__aeabi_dsub
 2303              	.LVL450:
 2304 0e82 0446     		mov	r4, r0
 2305              	.LVL451:
 2306 0e84 0D46     		mov	r5, r1
 2307              	.LVL452:
 2308              	.L185:
 534:C:/Users/geoma/Desktop/Scilab/toolboxes/STM32_toolbox_1-1/scicos_blocks/src/c\convert.c ****                     }
 535:C:/Users/geoma/Desktop/Scilab/toolboxes/STM32_toolbox_1-1/scicos_blocks/src/c\convert.c ****                     y[i] = (SCSINT8_COP)w;
 2309              		.loc 1 535 0 discriminator 2
 2310 0e86 2046     		mov	r0, r4
 2311 0e88 2946     		mov	r1, r5
 2312 0e8a FFF7FEFF 		bl	__aeabi_d2uiz
 2313              	.LVL453:
 2314 0e8e 09F80700 		strb	r0, [r9, r7]
 527:C:/Users/geoma/Desktop/Scilab/toolboxes/STM32_toolbox_1-1/scicos_blocks/src/c\convert.c ****                 {
 2315              		.loc 1 527 0 discriminator 2
 2316 0e92 0136     		adds	r6, r6, #1
ARM GAS  C:\Users\geoma\AppData\Local\Temp\ccpZNVPJ.s 			page 52


 2317              	.LVL454:
 2318              	.L184:
 527:C:/Users/geoma/Desktop/Scilab/toolboxes/STM32_toolbox_1-1/scicos_blocks/src/c\convert.c ****                 {
 2319              		.loc 1 527 0 is_stmt 0 discriminator 1
 2320 0e94 0AFB0BF3 		mul	r3, r10, fp
 2321 0e98 B342     		cmp	r3, r6
 2322 0e9a B2DC     		bgt	.L187
 2323 0e9c 00F0DCBF 		b	.L1
 2324              	.LVL455:
 2325              	.L34:
 2326              	.LBE31:
 2327              	.LBB32:
 536:C:/Users/geoma/Desktop/Scilab/toolboxes/STM32_toolbox_1-1/scicos_blocks/src/c\convert.c ****                 }
 537:C:/Users/geoma/Desktop/Scilab/toolboxes/STM32_toolbox_1-1/scicos_blocks/src/c\convert.c ****                 break;
 538:C:/Users/geoma/Desktop/Scilab/toolboxes/STM32_toolbox_1-1/scicos_blocks/src/c\convert.c ****             }
 539:C:/Users/geoma/Desktop/Scilab/toolboxes/STM32_toolbox_1-1/scicos_blocks/src/c\convert.c ****             case 31:
 540:C:/Users/geoma/Desktop/Scilab/toolboxes/STM32_toolbox_1-1/scicos_blocks/src/c\convert.c ****             {
 541:C:/Users/geoma/Desktop/Scilab/toolboxes/STM32_toolbox_1-1/scicos_blocks/src/c\convert.c ****                 SCSUINT16_COP *u = NULL;
 542:C:/Users/geoma/Desktop/Scilab/toolboxes/STM32_toolbox_1-1/scicos_blocks/src/c\convert.c ****                 SCSUINT32_COP *y = NULL;
 543:C:/Users/geoma/Desktop/Scilab/toolboxes/STM32_toolbox_1-1/scicos_blocks/src/c\convert.c ****                 u = Getuint16InPortPtrs(block, 1);
 2328              		.loc 1 543 0 is_stmt 1
 2329 0ea0 436C     		ldr	r3, [r0, #68]
 2330 0ea2 1C68     		ldr	r4, [r3]
 2331              	.LVL456:
 544:C:/Users/geoma/Desktop/Scilab/toolboxes/STM32_toolbox_1-1/scicos_blocks/src/c\convert.c ****                 y = Getuint32OutPortPtrs(block, 1);
 2332              		.loc 1 544 0
 2333 0ea4 036D     		ldr	r3, [r0, #80]
 2334 0ea6 1968     		ldr	r1, [r3]
 2335              	.LVL457:
 545:C:/Users/geoma/Desktop/Scilab/toolboxes/STM32_toolbox_1-1/scicos_blocks/src/c\convert.c ****                 for (i = 0; i < m * n; i++)
 2336              		.loc 1 545 0
 2337 0ea8 0023     		movs	r3, #0
 2338 0eaa 04E0     		b	.L188
 2339              	.LVL458:
 2340              	.L189:
 546:C:/Users/geoma/Desktop/Scilab/toolboxes/STM32_toolbox_1-1/scicos_blocks/src/c\convert.c ****                 {
 547:C:/Users/geoma/Desktop/Scilab/toolboxes/STM32_toolbox_1-1/scicos_blocks/src/c\convert.c ****                     y[i] = (SCSUINT32_COP)u[i];
 2341              		.loc 1 547 0 discriminator 3
 2342 0eac 34F81320 		ldrh	r2, [r4, r3, lsl #1]
 2343 0eb0 41F82320 		str	r2, [r1, r3, lsl #2]
 545:C:/Users/geoma/Desktop/Scilab/toolboxes/STM32_toolbox_1-1/scicos_blocks/src/c\convert.c ****                 for (i = 0; i < m * n; i++)
 2344              		.loc 1 545 0 discriminator 3
 2345 0eb4 0133     		adds	r3, r3, #1
 2346              	.LVL459:
 2347              	.L188:
 545:C:/Users/geoma/Desktop/Scilab/toolboxes/STM32_toolbox_1-1/scicos_blocks/src/c\convert.c ****                 for (i = 0; i < m * n; i++)
 2348              		.loc 1 545 0 is_stmt 0 discriminator 1
 2349 0eb6 0AFB0BF2 		mul	r2, r10, fp
 2350 0eba 9A42     		cmp	r2, r3
 2351 0ebc F6DC     		bgt	.L189
 2352 0ebe 00F0CBBF 		b	.L1
 2353              	.LVL460:
 2354              	.L35:
 2355              	.LBE32:
 2356              	.LBB33:
 548:C:/Users/geoma/Desktop/Scilab/toolboxes/STM32_toolbox_1-1/scicos_blocks/src/c\convert.c ****                 }
 549:C:/Users/geoma/Desktop/Scilab/toolboxes/STM32_toolbox_1-1/scicos_blocks/src/c\convert.c ****                 break;
ARM GAS  C:\Users\geoma\AppData\Local\Temp\ccpZNVPJ.s 			page 53


 550:C:/Users/geoma/Desktop/Scilab/toolboxes/STM32_toolbox_1-1/scicos_blocks/src/c\convert.c ****             }
 551:C:/Users/geoma/Desktop/Scilab/toolboxes/STM32_toolbox_1-1/scicos_blocks/src/c\convert.c ****             case 32:
 552:C:/Users/geoma/Desktop/Scilab/toolboxes/STM32_toolbox_1-1/scicos_blocks/src/c\convert.c ****             {
 553:C:/Users/geoma/Desktop/Scilab/toolboxes/STM32_toolbox_1-1/scicos_blocks/src/c\convert.c ****                 SCSUINT16_COP *u = NULL;
 554:C:/Users/geoma/Desktop/Scilab/toolboxes/STM32_toolbox_1-1/scicos_blocks/src/c\convert.c ****                 SCSUINT8_COP *y = NULL;
 555:C:/Users/geoma/Desktop/Scilab/toolboxes/STM32_toolbox_1-1/scicos_blocks/src/c\convert.c ****                 u = Getuint16InPortPtrs(block, 1);
 2357              		.loc 1 555 0 is_stmt 1
 2358 0ec2 436C     		ldr	r3, [r0, #68]
 2359 0ec4 1F68     		ldr	r7, [r3]
 2360              	.LVL461:
 556:C:/Users/geoma/Desktop/Scilab/toolboxes/STM32_toolbox_1-1/scicos_blocks/src/c\convert.c ****                 y = Getuint8OutPortPtrs(block, 1);
 2361              		.loc 1 556 0
 2362 0ec6 036D     		ldr	r3, [r0, #80]
 2363 0ec8 D3F80080 		ldr	r8, [r3]
 2364              	.LVL462:
 557:C:/Users/geoma/Desktop/Scilab/toolboxes/STM32_toolbox_1-1/scicos_blocks/src/c\convert.c ****                 k = pow(2, 8);
 558:C:/Users/geoma/Desktop/Scilab/toolboxes/STM32_toolbox_1-1/scicos_blocks/src/c\convert.c ****                 for (i = 0; i < m * n; i++)
 2365              		.loc 1 558 0
 2366 0ecc 0026     		movs	r6, #0
 2367 0ece 30E0     		b	.L190
 2368              	.L535:
 2369              		.align	3
 2370              	.L534:
 2371 0ed0 00000000 		.word	0
 2372 0ed4 C0FFDF40 		.word	1088421824
 2373 0ed8 00000000 		.word	0
 2374 0edc 00C05F40 		.word	1080016896
 2375 0ee0 0000F03E 		.word	1055916032
 2376 0ee4 0000F040 		.word	1089470464
 2377 0ee8 0000E040 		.word	1088421888
 2378 0eec 0000703F 		.word	1064304640
 2379 0ef0 00007040 		.word	1081081856
 2380 0ef4 00006040 		.word	1080033280
 2381              	.LVL463:
 2382              	.L191:
 559:C:/Users/geoma/Desktop/Scilab/toolboxes/STM32_toolbox_1-1/scicos_blocks/src/c\convert.c ****                 {
 560:C:/Users/geoma/Desktop/Scilab/toolboxes/STM32_toolbox_1-1/scicos_blocks/src/c\convert.c ****                     v = (double)u[i];
 2383              		.loc 1 560 0 discriminator 3
 2384 0ef8 37F81600 		ldrh	r0, [r7, r6, lsl #1]
 2385 0efc FFF7FEFF 		bl	__aeabi_ui2d
 2386              	.LVL464:
 2387 0f00 0446     		mov	r4, r0
 2388 0f02 0D46     		mov	r5, r1
 2389              	.LVL465:
 561:C:/Users/geoma/Desktop/Scilab/toolboxes/STM32_toolbox_1-1/scicos_blocks/src/c\convert.c ****                     w = v - (double)((int)(v / k)) * k;
 2390              		.loc 1 561 0 discriminator 3
 2391 0f04 0022     		movs	r2, #0
 2392 0f06 B84B     		ldr	r3, .L536+24
 2393 0f08 FFF7FEFF 		bl	__aeabi_dmul
 2394              	.LVL466:
 2395 0f0c FFF7FEFF 		bl	__aeabi_d2iz
 2396              	.LVL467:
 2397 0f10 FFF7FEFF 		bl	__aeabi_i2d
 2398              	.LVL468:
 2399 0f14 0022     		movs	r2, #0
 2400 0f16 B54B     		ldr	r3, .L536+28
 2401 0f18 FFF7FEFF 		bl	__aeabi_dmul
ARM GAS  C:\Users\geoma\AppData\Local\Temp\ccpZNVPJ.s 			page 54


 2402              	.LVL469:
 2403 0f1c 0246     		mov	r2, r0
 2404 0f1e 0B46     		mov	r3, r1
 2405 0f20 2046     		mov	r0, r4
 2406 0f22 2946     		mov	r1, r5
 2407 0f24 FFF7FEFF 		bl	__aeabi_dsub
 2408              	.LVL470:
 562:C:/Users/geoma/Desktop/Scilab/toolboxes/STM32_toolbox_1-1/scicos_blocks/src/c\convert.c ****                     y[i] = (SCSUINT8_COP)w;
 2409              		.loc 1 562 0 discriminator 3
 2410 0f28 FFF7FEFF 		bl	__aeabi_d2uiz
 2411              	.LVL471:
 2412 0f2c 08F80600 		strb	r0, [r8, r6]
 558:C:/Users/geoma/Desktop/Scilab/toolboxes/STM32_toolbox_1-1/scicos_blocks/src/c\convert.c ****                 {
 2413              		.loc 1 558 0 discriminator 3
 2414 0f30 0136     		adds	r6, r6, #1
 2415              	.LVL472:
 2416              	.L190:
 558:C:/Users/geoma/Desktop/Scilab/toolboxes/STM32_toolbox_1-1/scicos_blocks/src/c\convert.c ****                 {
 2417              		.loc 1 558 0 is_stmt 0 discriminator 1
 2418 0f32 0AFB0BF3 		mul	r3, r10, fp
 2419 0f36 B342     		cmp	r3, r6
 2420 0f38 DEDC     		bgt	.L191
 2421 0f3a 00F08DBF 		b	.L1
 2422              	.LVL473:
 2423              	.L36:
 2424              	.LBE33:
 2425              	.LBB34:
 563:C:/Users/geoma/Desktop/Scilab/toolboxes/STM32_toolbox_1-1/scicos_blocks/src/c\convert.c ****                 }
 564:C:/Users/geoma/Desktop/Scilab/toolboxes/STM32_toolbox_1-1/scicos_blocks/src/c\convert.c ****                 break;
 565:C:/Users/geoma/Desktop/Scilab/toolboxes/STM32_toolbox_1-1/scicos_blocks/src/c\convert.c ****             }
 566:C:/Users/geoma/Desktop/Scilab/toolboxes/STM32_toolbox_1-1/scicos_blocks/src/c\convert.c ****             case 33:
 567:C:/Users/geoma/Desktop/Scilab/toolboxes/STM32_toolbox_1-1/scicos_blocks/src/c\convert.c ****             {
 568:C:/Users/geoma/Desktop/Scilab/toolboxes/STM32_toolbox_1-1/scicos_blocks/src/c\convert.c ****                 SCSUINT8_COP *u = NULL;
 569:C:/Users/geoma/Desktop/Scilab/toolboxes/STM32_toolbox_1-1/scicos_blocks/src/c\convert.c ****                 SCSREAL_COP *y = NULL;
 570:C:/Users/geoma/Desktop/Scilab/toolboxes/STM32_toolbox_1-1/scicos_blocks/src/c\convert.c ****                 u = Getuint8InPortPtrs(block, 1);
 2426              		.loc 1 570 0 is_stmt 1
 2427 0f3e 436C     		ldr	r3, [r0, #68]
 2428 0f40 1F68     		ldr	r7, [r3]
 2429              	.LVL474:
 571:C:/Users/geoma/Desktop/Scilab/toolboxes/STM32_toolbox_1-1/scicos_blocks/src/c\convert.c ****                 y = GetRealOutPortPtrs(block, 1);
 2430              		.loc 1 571 0
 2431 0f42 036D     		ldr	r3, [r0, #80]
 2432 0f44 1E68     		ldr	r6, [r3]
 2433              	.LVL475:
 572:C:/Users/geoma/Desktop/Scilab/toolboxes/STM32_toolbox_1-1/scicos_blocks/src/c\convert.c ****                 for (i = 0; i < m * n; i++)
 2434              		.loc 1 572 0
 2435 0f46 0024     		movs	r4, #0
 2436              	.LVL476:
 2437 0f48 07E0     		b	.L192
 2438              	.LVL477:
 2439              	.L193:
 573:C:/Users/geoma/Desktop/Scilab/toolboxes/STM32_toolbox_1-1/scicos_blocks/src/c\convert.c ****                 {
 574:C:/Users/geoma/Desktop/Scilab/toolboxes/STM32_toolbox_1-1/scicos_blocks/src/c\convert.c ****                     y[i] = (SCSREAL_COP) u[i];
 2440              		.loc 1 574 0 discriminator 3
 2441 0f4a 06EBC405 		add	r5, r6, r4, lsl #3
 2442 0f4e 385D     		ldrb	r0, [r7, r4]	@ zero_extendqisi2
 2443 0f50 FFF7FEFF 		bl	__aeabi_ui2d
ARM GAS  C:\Users\geoma\AppData\Local\Temp\ccpZNVPJ.s 			page 55


 2444              	.LVL478:
 2445 0f54 C5E90001 		strd	r0, [r5]
 572:C:/Users/geoma/Desktop/Scilab/toolboxes/STM32_toolbox_1-1/scicos_blocks/src/c\convert.c ****                 for (i = 0; i < m * n; i++)
 2446              		.loc 1 572 0 discriminator 3
 2447 0f58 0134     		adds	r4, r4, #1
 2448              	.LVL479:
 2449              	.L192:
 572:C:/Users/geoma/Desktop/Scilab/toolboxes/STM32_toolbox_1-1/scicos_blocks/src/c\convert.c ****                 for (i = 0; i < m * n; i++)
 2450              		.loc 1 572 0 is_stmt 0 discriminator 1
 2451 0f5a 0AFB0BF3 		mul	r3, r10, fp
 2452 0f5e A342     		cmp	r3, r4
 2453 0f60 F3DC     		bgt	.L193
 2454 0f62 00F079BF 		b	.L1
 2455              	.LVL480:
 2456              	.L37:
 2457              	.LBE34:
 2458              	.LBB35:
 575:C:/Users/geoma/Desktop/Scilab/toolboxes/STM32_toolbox_1-1/scicos_blocks/src/c\convert.c ****                 }
 576:C:/Users/geoma/Desktop/Scilab/toolboxes/STM32_toolbox_1-1/scicos_blocks/src/c\convert.c ****                 break;
 577:C:/Users/geoma/Desktop/Scilab/toolboxes/STM32_toolbox_1-1/scicos_blocks/src/c\convert.c ****             }
 578:C:/Users/geoma/Desktop/Scilab/toolboxes/STM32_toolbox_1-1/scicos_blocks/src/c\convert.c ****             case 34:
 579:C:/Users/geoma/Desktop/Scilab/toolboxes/STM32_toolbox_1-1/scicos_blocks/src/c\convert.c ****             {
 580:C:/Users/geoma/Desktop/Scilab/toolboxes/STM32_toolbox_1-1/scicos_blocks/src/c\convert.c ****                 SCSUINT8_COP *u = NULL;
 581:C:/Users/geoma/Desktop/Scilab/toolboxes/STM32_toolbox_1-1/scicos_blocks/src/c\convert.c ****                 SCSINT32_COP *y = NULL;
 582:C:/Users/geoma/Desktop/Scilab/toolboxes/STM32_toolbox_1-1/scicos_blocks/src/c\convert.c ****                 u = Getuint8InPortPtrs(block, 1);
 2459              		.loc 1 582 0 is_stmt 1
 2460 0f66 436C     		ldr	r3, [r0, #68]
 2461 0f68 1C68     		ldr	r4, [r3]
 2462              	.LVL481:
 583:C:/Users/geoma/Desktop/Scilab/toolboxes/STM32_toolbox_1-1/scicos_blocks/src/c\convert.c ****                 y = Getint32OutPortPtrs(block, 1);
 2463              		.loc 1 583 0
 2464 0f6a 036D     		ldr	r3, [r0, #80]
 2465 0f6c 1968     		ldr	r1, [r3]
 2466              	.LVL482:
 584:C:/Users/geoma/Desktop/Scilab/toolboxes/STM32_toolbox_1-1/scicos_blocks/src/c\convert.c ****                 for (i = 0; i < m * n; i++)
 2467              		.loc 1 584 0
 2468 0f6e 0023     		movs	r3, #0
 2469 0f70 03E0     		b	.L194
 2470              	.LVL483:
 2471              	.L195:
 585:C:/Users/geoma/Desktop/Scilab/toolboxes/STM32_toolbox_1-1/scicos_blocks/src/c\convert.c ****                 {
 586:C:/Users/geoma/Desktop/Scilab/toolboxes/STM32_toolbox_1-1/scicos_blocks/src/c\convert.c ****                     y[i] = (SCSINT32_COP)u[i];
 2472              		.loc 1 586 0 discriminator 3
 2473 0f72 E25C     		ldrb	r2, [r4, r3]	@ zero_extendqisi2
 2474 0f74 41F82320 		str	r2, [r1, r3, lsl #2]
 584:C:/Users/geoma/Desktop/Scilab/toolboxes/STM32_toolbox_1-1/scicos_blocks/src/c\convert.c ****                 for (i = 0; i < m * n; i++)
 2475              		.loc 1 584 0 discriminator 3
 2476 0f78 0133     		adds	r3, r3, #1
 2477              	.LVL484:
 2478              	.L194:
 584:C:/Users/geoma/Desktop/Scilab/toolboxes/STM32_toolbox_1-1/scicos_blocks/src/c\convert.c ****                 for (i = 0; i < m * n; i++)
 2479              		.loc 1 584 0 is_stmt 0 discriminator 1
 2480 0f7a 0AFB0BF2 		mul	r2, r10, fp
 2481 0f7e 9A42     		cmp	r2, r3
 2482 0f80 F7DC     		bgt	.L195
 2483 0f82 00F069BF 		b	.L1
 2484              	.LVL485:
ARM GAS  C:\Users\geoma\AppData\Local\Temp\ccpZNVPJ.s 			page 56


 2485              	.L38:
 2486              	.LBE35:
 2487              	.LBB36:
 587:C:/Users/geoma/Desktop/Scilab/toolboxes/STM32_toolbox_1-1/scicos_blocks/src/c\convert.c ****                 }
 588:C:/Users/geoma/Desktop/Scilab/toolboxes/STM32_toolbox_1-1/scicos_blocks/src/c\convert.c ****                 break;
 589:C:/Users/geoma/Desktop/Scilab/toolboxes/STM32_toolbox_1-1/scicos_blocks/src/c\convert.c ****             }
 590:C:/Users/geoma/Desktop/Scilab/toolboxes/STM32_toolbox_1-1/scicos_blocks/src/c\convert.c ****             case 35:
 591:C:/Users/geoma/Desktop/Scilab/toolboxes/STM32_toolbox_1-1/scicos_blocks/src/c\convert.c ****             {
 592:C:/Users/geoma/Desktop/Scilab/toolboxes/STM32_toolbox_1-1/scicos_blocks/src/c\convert.c ****                 SCSUINT8_COP *u = NULL;
 593:C:/Users/geoma/Desktop/Scilab/toolboxes/STM32_toolbox_1-1/scicos_blocks/src/c\convert.c ****                 SCSINT16_COP *y = NULL;
 594:C:/Users/geoma/Desktop/Scilab/toolboxes/STM32_toolbox_1-1/scicos_blocks/src/c\convert.c ****                 u = Getuint8InPortPtrs(block, 1);
 2488              		.loc 1 594 0 is_stmt 1
 2489 0f86 436C     		ldr	r3, [r0, #68]
 2490 0f88 1C68     		ldr	r4, [r3]
 2491              	.LVL486:
 595:C:/Users/geoma/Desktop/Scilab/toolboxes/STM32_toolbox_1-1/scicos_blocks/src/c\convert.c ****                 y = Getint16OutPortPtrs(block, 1);
 2492              		.loc 1 595 0
 2493 0f8a 036D     		ldr	r3, [r0, #80]
 2494 0f8c 1968     		ldr	r1, [r3]
 2495              	.LVL487:
 596:C:/Users/geoma/Desktop/Scilab/toolboxes/STM32_toolbox_1-1/scicos_blocks/src/c\convert.c ****                 for (i = 0; i < m * n; i++)
 2496              		.loc 1 596 0
 2497 0f8e 0023     		movs	r3, #0
 2498 0f90 03E0     		b	.L196
 2499              	.LVL488:
 2500              	.L197:
 597:C:/Users/geoma/Desktop/Scilab/toolboxes/STM32_toolbox_1-1/scicos_blocks/src/c\convert.c ****                 {
 598:C:/Users/geoma/Desktop/Scilab/toolboxes/STM32_toolbox_1-1/scicos_blocks/src/c\convert.c ****                     y[i] = (SCSINT16_COP)u[i];
 2501              		.loc 1 598 0 discriminator 3
 2502 0f92 E25C     		ldrb	r2, [r4, r3]	@ zero_extendqisi2
 2503 0f94 21F81320 		strh	r2, [r1, r3, lsl #1]	@ movhi
 596:C:/Users/geoma/Desktop/Scilab/toolboxes/STM32_toolbox_1-1/scicos_blocks/src/c\convert.c ****                 for (i = 0; i < m * n; i++)
 2504              		.loc 1 596 0 discriminator 3
 2505 0f98 0133     		adds	r3, r3, #1
 2506              	.LVL489:
 2507              	.L196:
 596:C:/Users/geoma/Desktop/Scilab/toolboxes/STM32_toolbox_1-1/scicos_blocks/src/c\convert.c ****                 for (i = 0; i < m * n; i++)
 2508              		.loc 1 596 0 is_stmt 0 discriminator 1
 2509 0f9a 0AFB0BF2 		mul	r2, r10, fp
 2510 0f9e 9A42     		cmp	r2, r3
 2511 0fa0 F7DC     		bgt	.L197
 2512 0fa2 00F059BF 		b	.L1
 2513              	.LVL490:
 2514              	.L39:
 2515              	.LBE36:
 2516              	.LBB37:
 599:C:/Users/geoma/Desktop/Scilab/toolboxes/STM32_toolbox_1-1/scicos_blocks/src/c\convert.c ****                 }
 600:C:/Users/geoma/Desktop/Scilab/toolboxes/STM32_toolbox_1-1/scicos_blocks/src/c\convert.c ****                 break;
 601:C:/Users/geoma/Desktop/Scilab/toolboxes/STM32_toolbox_1-1/scicos_blocks/src/c\convert.c ****             }
 602:C:/Users/geoma/Desktop/Scilab/toolboxes/STM32_toolbox_1-1/scicos_blocks/src/c\convert.c ****             case 36:
 603:C:/Users/geoma/Desktop/Scilab/toolboxes/STM32_toolbox_1-1/scicos_blocks/src/c\convert.c ****             {
 604:C:/Users/geoma/Desktop/Scilab/toolboxes/STM32_toolbox_1-1/scicos_blocks/src/c\convert.c ****                 SCSUINT8_COP *u = NULL;
 605:C:/Users/geoma/Desktop/Scilab/toolboxes/STM32_toolbox_1-1/scicos_blocks/src/c\convert.c ****                 SCSUINT32_COP *y = NULL;
 606:C:/Users/geoma/Desktop/Scilab/toolboxes/STM32_toolbox_1-1/scicos_blocks/src/c\convert.c ****                 u = Getuint8InPortPtrs(block, 1);
 2517              		.loc 1 606 0 is_stmt 1
 2518 0fa6 436C     		ldr	r3, [r0, #68]
 2519 0fa8 1C68     		ldr	r4, [r3]
ARM GAS  C:\Users\geoma\AppData\Local\Temp\ccpZNVPJ.s 			page 57


 2520              	.LVL491:
 607:C:/Users/geoma/Desktop/Scilab/toolboxes/STM32_toolbox_1-1/scicos_blocks/src/c\convert.c ****                 y = Getuint32OutPortPtrs(block, 1);
 2521              		.loc 1 607 0
 2522 0faa 036D     		ldr	r3, [r0, #80]
 2523 0fac 1968     		ldr	r1, [r3]
 2524              	.LVL492:
 608:C:/Users/geoma/Desktop/Scilab/toolboxes/STM32_toolbox_1-1/scicos_blocks/src/c\convert.c ****                 for (i = 0; i < m * n; i++)
 2525              		.loc 1 608 0
 2526 0fae 0023     		movs	r3, #0
 2527 0fb0 03E0     		b	.L198
 2528              	.LVL493:
 2529              	.L199:
 609:C:/Users/geoma/Desktop/Scilab/toolboxes/STM32_toolbox_1-1/scicos_blocks/src/c\convert.c ****                 {
 610:C:/Users/geoma/Desktop/Scilab/toolboxes/STM32_toolbox_1-1/scicos_blocks/src/c\convert.c ****                     y[i] = (SCSUINT32_COP)u[i];
 2530              		.loc 1 610 0 discriminator 3
 2531 0fb2 E25C     		ldrb	r2, [r4, r3]	@ zero_extendqisi2
 2532 0fb4 41F82320 		str	r2, [r1, r3, lsl #2]
 608:C:/Users/geoma/Desktop/Scilab/toolboxes/STM32_toolbox_1-1/scicos_blocks/src/c\convert.c ****                 for (i = 0; i < m * n; i++)
 2533              		.loc 1 608 0 discriminator 3
 2534 0fb8 0133     		adds	r3, r3, #1
 2535              	.LVL494:
 2536              	.L198:
 608:C:/Users/geoma/Desktop/Scilab/toolboxes/STM32_toolbox_1-1/scicos_blocks/src/c\convert.c ****                 for (i = 0; i < m * n; i++)
 2537              		.loc 1 608 0 is_stmt 0 discriminator 1
 2538 0fba 0AFB0BF2 		mul	r2, r10, fp
 2539 0fbe 9A42     		cmp	r2, r3
 2540 0fc0 F7DC     		bgt	.L199
 2541 0fc2 00F049BF 		b	.L1
 2542              	.LVL495:
 2543              	.L40:
 2544              	.LBE37:
 2545              	.LBB38:
 611:C:/Users/geoma/Desktop/Scilab/toolboxes/STM32_toolbox_1-1/scicos_blocks/src/c\convert.c ****                 }
 612:C:/Users/geoma/Desktop/Scilab/toolboxes/STM32_toolbox_1-1/scicos_blocks/src/c\convert.c ****                 break;
 613:C:/Users/geoma/Desktop/Scilab/toolboxes/STM32_toolbox_1-1/scicos_blocks/src/c\convert.c ****             }
 614:C:/Users/geoma/Desktop/Scilab/toolboxes/STM32_toolbox_1-1/scicos_blocks/src/c\convert.c ****             case 37:
 615:C:/Users/geoma/Desktop/Scilab/toolboxes/STM32_toolbox_1-1/scicos_blocks/src/c\convert.c ****             {
 616:C:/Users/geoma/Desktop/Scilab/toolboxes/STM32_toolbox_1-1/scicos_blocks/src/c\convert.c ****                 SCSUINT8_COP *u = NULL;
 617:C:/Users/geoma/Desktop/Scilab/toolboxes/STM32_toolbox_1-1/scicos_blocks/src/c\convert.c ****                 SCSUINT16_COP *y = NULL;
 618:C:/Users/geoma/Desktop/Scilab/toolboxes/STM32_toolbox_1-1/scicos_blocks/src/c\convert.c ****                 u = Getuint8InPortPtrs(block, 1);
 2546              		.loc 1 618 0 is_stmt 1
 2547 0fc6 436C     		ldr	r3, [r0, #68]
 2548 0fc8 1C68     		ldr	r4, [r3]
 2549              	.LVL496:
 619:C:/Users/geoma/Desktop/Scilab/toolboxes/STM32_toolbox_1-1/scicos_blocks/src/c\convert.c ****                 y = Getuint16OutPortPtrs(block, 1);
 2550              		.loc 1 619 0
 2551 0fca 036D     		ldr	r3, [r0, #80]
 2552 0fcc 1968     		ldr	r1, [r3]
 2553              	.LVL497:
 620:C:/Users/geoma/Desktop/Scilab/toolboxes/STM32_toolbox_1-1/scicos_blocks/src/c\convert.c ****                 for (i = 0; i < m * n; i++)
 2554              		.loc 1 620 0
 2555 0fce 0023     		movs	r3, #0
 2556 0fd0 03E0     		b	.L200
 2557              	.LVL498:
 2558              	.L201:
 621:C:/Users/geoma/Desktop/Scilab/toolboxes/STM32_toolbox_1-1/scicos_blocks/src/c\convert.c ****                 {
 622:C:/Users/geoma/Desktop/Scilab/toolboxes/STM32_toolbox_1-1/scicos_blocks/src/c\convert.c ****                     y[i] = (SCSUINT16_COP)u[i];
ARM GAS  C:\Users\geoma\AppData\Local\Temp\ccpZNVPJ.s 			page 58


 2559              		.loc 1 622 0 discriminator 3
 2560 0fd2 E25C     		ldrb	r2, [r4, r3]	@ zero_extendqisi2
 2561 0fd4 21F81320 		strh	r2, [r1, r3, lsl #1]	@ movhi
 620:C:/Users/geoma/Desktop/Scilab/toolboxes/STM32_toolbox_1-1/scicos_blocks/src/c\convert.c ****                 for (i = 0; i < m * n; i++)
 2562              		.loc 1 620 0 discriminator 3
 2563 0fd8 0133     		adds	r3, r3, #1
 2564              	.LVL499:
 2565              	.L200:
 620:C:/Users/geoma/Desktop/Scilab/toolboxes/STM32_toolbox_1-1/scicos_blocks/src/c\convert.c ****                 for (i = 0; i < m * n; i++)
 2566              		.loc 1 620 0 is_stmt 0 discriminator 1
 2567 0fda 0AFB0BF2 		mul	r2, r10, fp
 2568 0fde 9A42     		cmp	r2, r3
 2569 0fe0 F7DC     		bgt	.L201
 2570 0fe2 00F039BF 		b	.L1
 2571              	.LVL500:
 2572              	.L41:
 2573              	.LBE38:
 2574              	.LBB39:
 623:C:/Users/geoma/Desktop/Scilab/toolboxes/STM32_toolbox_1-1/scicos_blocks/src/c\convert.c ****                 }
 624:C:/Users/geoma/Desktop/Scilab/toolboxes/STM32_toolbox_1-1/scicos_blocks/src/c\convert.c ****                 break;
 625:C:/Users/geoma/Desktop/Scilab/toolboxes/STM32_toolbox_1-1/scicos_blocks/src/c\convert.c ****             }
 626:C:/Users/geoma/Desktop/Scilab/toolboxes/STM32_toolbox_1-1/scicos_blocks/src/c\convert.c ****             case 38:
 627:C:/Users/geoma/Desktop/Scilab/toolboxes/STM32_toolbox_1-1/scicos_blocks/src/c\convert.c ****             {
 628:C:/Users/geoma/Desktop/Scilab/toolboxes/STM32_toolbox_1-1/scicos_blocks/src/c\convert.c ****                 SCSREAL_COP *u = NULL;
 629:C:/Users/geoma/Desktop/Scilab/toolboxes/STM32_toolbox_1-1/scicos_blocks/src/c\convert.c ****                 SCSINT32_COP *y = NULL;
 630:C:/Users/geoma/Desktop/Scilab/toolboxes/STM32_toolbox_1-1/scicos_blocks/src/c\convert.c ****                 u = GetRealInPortPtrs(block, 1);
 2575              		.loc 1 630 0 is_stmt 1
 2576 0fe6 436C     		ldr	r3, [r0, #68]
 2577 0fe8 1D68     		ldr	r5, [r3]
 2578              	.LVL501:
 631:C:/Users/geoma/Desktop/Scilab/toolboxes/STM32_toolbox_1-1/scicos_blocks/src/c\convert.c ****                 y = Getint32OutPortPtrs(block, 1);
 2579              		.loc 1 631 0
 2580 0fea 036D     		ldr	r3, [r0, #80]
 2581 0fec D3F80080 		ldr	r8, [r3]
 2582              	.LVL502:
 632:C:/Users/geoma/Desktop/Scilab/toolboxes/STM32_toolbox_1-1/scicos_blocks/src/c\convert.c ****                 k = pow(2, 32);
 633:C:/Users/geoma/Desktop/Scilab/toolboxes/STM32_toolbox_1-1/scicos_blocks/src/c\convert.c ****                 for (i = 0; i < m * n; i++)
 2583              		.loc 1 633 0
 2584 0ff0 0024     		movs	r4, #0
 2585              	.LVL503:
 2586 0ff2 22E0     		b	.L202
 2587              	.LVL504:
 2588              	.L208:
 634:C:/Users/geoma/Desktop/Scilab/toolboxes/STM32_toolbox_1-1/scicos_blocks/src/c\convert.c ****                 {
 635:C:/Users/geoma/Desktop/Scilab/toolboxes/STM32_toolbox_1-1/scicos_blocks/src/c\convert.c ****                     if (u[i] > k / 2 - 1)
 2589              		.loc 1 635 0
 2590 0ff4 05EBC403 		add	r3, r5, r4, lsl #3
 2591 0ff8 D3E90067 		ldrd	r6, [r3]
 2592 0ffc 3046     		mov	r0, r6
 2593 0ffe 3946     		mov	r1, r7
 2594 1000 73A3     		adr	r3, .L536
 2595 1002 D3E90023 		ldrd	r2, [r3]
 2596 1006 FFF7FEFF 		bl	__aeabi_dcmpgt
 2597              	.LVL505:
 2598 100a 20B1     		cbz	r0, .L506
 636:C:/Users/geoma/Desktop/Scilab/toolboxes/STM32_toolbox_1-1/scicos_blocks/src/c\convert.c ****                     {
 637:C:/Users/geoma/Desktop/Scilab/toolboxes/STM32_toolbox_1-1/scicos_blocks/src/c\convert.c ****                         y[i] = (SCSINT32_COP)(k / 2 - 1);
ARM GAS  C:\Users\geoma\AppData\Local\Temp\ccpZNVPJ.s 			page 59


 2599              		.loc 1 637 0
 2600 100c 6FF00043 		mvn	r3, #-2147483648
 2601 1010 48F82430 		str	r3, [r8, r4, lsl #2]
 2602 1014 10E0     		b	.L205
 2603              	.L506:
 638:C:/Users/geoma/Desktop/Scilab/toolboxes/STM32_toolbox_1-1/scicos_blocks/src/c\convert.c ****                     }
 639:C:/Users/geoma/Desktop/Scilab/toolboxes/STM32_toolbox_1-1/scicos_blocks/src/c\convert.c ****                     else if (u[i] < -(k / 2))
 2604              		.loc 1 639 0
 2605 1016 3046     		mov	r0, r6
 2606 1018 3946     		mov	r1, r7
 2607 101a 0022     		movs	r2, #0
 2608 101c 744B     		ldr	r3, .L536+32
 2609 101e FFF7FEFF 		bl	__aeabi_dcmplt
 2610              	.LVL506:
 2611 1022 18B1     		cbz	r0, .L507
 640:C:/Users/geoma/Desktop/Scilab/toolboxes/STM32_toolbox_1-1/scicos_blocks/src/c\convert.c ****                     {
 641:C:/Users/geoma/Desktop/Scilab/toolboxes/STM32_toolbox_1-1/scicos_blocks/src/c\convert.c ****                         y[i] = -(SCSINT32_COP)(k / 2);
 2612              		.loc 1 641 0
 2613 1024 734B     		ldr	r3, .L536+36
 2614 1026 48F82430 		str	r3, [r8, r4, lsl #2]
 2615 102a 05E0     		b	.L205
 2616              	.L507:
 642:C:/Users/geoma/Desktop/Scilab/toolboxes/STM32_toolbox_1-1/scicos_blocks/src/c\convert.c ****                     }
 643:C:/Users/geoma/Desktop/Scilab/toolboxes/STM32_toolbox_1-1/scicos_blocks/src/c\convert.c ****                     else
 644:C:/Users/geoma/Desktop/Scilab/toolboxes/STM32_toolbox_1-1/scicos_blocks/src/c\convert.c ****                     {
 645:C:/Users/geoma/Desktop/Scilab/toolboxes/STM32_toolbox_1-1/scicos_blocks/src/c\convert.c ****                         y[i] = (SCSINT32_COP)(u[i]);
 2617              		.loc 1 645 0
 2618 102c 3046     		mov	r0, r6
 2619 102e 3946     		mov	r1, r7
 2620 1030 FFF7FEFF 		bl	__aeabi_d2iz
 2621              	.LVL507:
 2622 1034 48F82400 		str	r0, [r8, r4, lsl #2]
 2623              	.L205:
 633:C:/Users/geoma/Desktop/Scilab/toolboxes/STM32_toolbox_1-1/scicos_blocks/src/c\convert.c ****                 {
 2624              		.loc 1 633 0 discriminator 2
 2625 1038 0134     		adds	r4, r4, #1
 2626              	.LVL508:
 2627              	.L202:
 633:C:/Users/geoma/Desktop/Scilab/toolboxes/STM32_toolbox_1-1/scicos_blocks/src/c\convert.c ****                 {
 2628              		.loc 1 633 0 is_stmt 0 discriminator 1
 2629 103a 0AFB0BF3 		mul	r3, r10, fp
 2630 103e A342     		cmp	r3, r4
 2631 1040 D8DC     		bgt	.L208
 2632 1042 00F009BF 		b	.L1
 2633              	.LVL509:
 2634              	.L42:
 2635              	.LBE39:
 2636              	.LBB40:
 646:C:/Users/geoma/Desktop/Scilab/toolboxes/STM32_toolbox_1-1/scicos_blocks/src/c\convert.c ****                     }
 647:C:/Users/geoma/Desktop/Scilab/toolboxes/STM32_toolbox_1-1/scicos_blocks/src/c\convert.c ****                 }
 648:C:/Users/geoma/Desktop/Scilab/toolboxes/STM32_toolbox_1-1/scicos_blocks/src/c\convert.c ****                 break;
 649:C:/Users/geoma/Desktop/Scilab/toolboxes/STM32_toolbox_1-1/scicos_blocks/src/c\convert.c ****             }
 650:C:/Users/geoma/Desktop/Scilab/toolboxes/STM32_toolbox_1-1/scicos_blocks/src/c\convert.c ****             case 39:
 651:C:/Users/geoma/Desktop/Scilab/toolboxes/STM32_toolbox_1-1/scicos_blocks/src/c\convert.c ****             {
 652:C:/Users/geoma/Desktop/Scilab/toolboxes/STM32_toolbox_1-1/scicos_blocks/src/c\convert.c ****                 SCSREAL_COP *u = NULL;
 653:C:/Users/geoma/Desktop/Scilab/toolboxes/STM32_toolbox_1-1/scicos_blocks/src/c\convert.c ****                 SCSINT16_COP *y = NULL;
 654:C:/Users/geoma/Desktop/Scilab/toolboxes/STM32_toolbox_1-1/scicos_blocks/src/c\convert.c ****                 u = GetRealInPortPtrs(block, 1);
ARM GAS  C:\Users\geoma\AppData\Local\Temp\ccpZNVPJ.s 			page 60


 2637              		.loc 1 654 0 is_stmt 1
 2638 1046 436C     		ldr	r3, [r0, #68]
 2639 1048 1D68     		ldr	r5, [r3]
 2640              	.LVL510:
 655:C:/Users/geoma/Desktop/Scilab/toolboxes/STM32_toolbox_1-1/scicos_blocks/src/c\convert.c ****                 y = Getint16OutPortPtrs(block, 1);
 2641              		.loc 1 655 0
 2642 104a 036D     		ldr	r3, [r0, #80]
 2643 104c D3F80080 		ldr	r8, [r3]
 2644              	.LVL511:
 656:C:/Users/geoma/Desktop/Scilab/toolboxes/STM32_toolbox_1-1/scicos_blocks/src/c\convert.c ****                 k = pow(2, 16);
 657:C:/Users/geoma/Desktop/Scilab/toolboxes/STM32_toolbox_1-1/scicos_blocks/src/c\convert.c ****                 for (i = 0; i < m * n; i++)
 2645              		.loc 1 657 0
 2646 1050 0024     		movs	r4, #0
 2647              	.LVL512:
 2648 1052 23E0     		b	.L209
 2649              	.LVL513:
 2650              	.L215:
 658:C:/Users/geoma/Desktop/Scilab/toolboxes/STM32_toolbox_1-1/scicos_blocks/src/c\convert.c ****                 {
 659:C:/Users/geoma/Desktop/Scilab/toolboxes/STM32_toolbox_1-1/scicos_blocks/src/c\convert.c ****                     if (u[i] > k / 2 - 1)
 2651              		.loc 1 659 0
 2652 1054 05EBC403 		add	r3, r5, r4, lsl #3
 2653 1058 D3E90067 		ldrd	r6, [r3]
 2654 105c 3046     		mov	r0, r6
 2655 105e 3946     		mov	r1, r7
 2656 1060 5DA3     		adr	r3, .L536+8
 2657 1062 D3E90023 		ldrd	r2, [r3]
 2658 1066 FFF7FEFF 		bl	__aeabi_dcmpgt
 2659              	.LVL514:
 2660 106a 20B1     		cbz	r0, .L508
 660:C:/Users/geoma/Desktop/Scilab/toolboxes/STM32_toolbox_1-1/scicos_blocks/src/c\convert.c ****                     {
 661:C:/Users/geoma/Desktop/Scilab/toolboxes/STM32_toolbox_1-1/scicos_blocks/src/c\convert.c ****                         y[i] = (SCSINT16_COP)(k / 2 - 1);
 2661              		.loc 1 661 0
 2662 106c 47F6FF73 		movw	r3, #32767
 2663 1070 28F81430 		strh	r3, [r8, r4, lsl #1]	@ movhi
 2664 1074 11E0     		b	.L212
 2665              	.L508:
 662:C:/Users/geoma/Desktop/Scilab/toolboxes/STM32_toolbox_1-1/scicos_blocks/src/c\convert.c ****                     }
 663:C:/Users/geoma/Desktop/Scilab/toolboxes/STM32_toolbox_1-1/scicos_blocks/src/c\convert.c ****                     else if (u[i] < -(k / 2))
 2666              		.loc 1 663 0
 2667 1076 3046     		mov	r0, r6
 2668 1078 3946     		mov	r1, r7
 2669 107a 0022     		movs	r2, #0
 2670 107c 5E4B     		ldr	r3, .L536+40
 2671 107e FFF7FEFF 		bl	__aeabi_dcmplt
 2672              	.LVL515:
 2673 1082 20B1     		cbz	r0, .L509
 664:C:/Users/geoma/Desktop/Scilab/toolboxes/STM32_toolbox_1-1/scicos_blocks/src/c\convert.c ****                     {
 665:C:/Users/geoma/Desktop/Scilab/toolboxes/STM32_toolbox_1-1/scicos_blocks/src/c\convert.c ****                         y[i] = -(SCSINT16_COP)(k / 2);
 2674              		.loc 1 665 0
 2675 1084 48F20103 		movw	r3, #32769
 2676 1088 28F81430 		strh	r3, [r8, r4, lsl #1]	@ movhi
 2677 108c 05E0     		b	.L212
 2678              	.L509:
 666:C:/Users/geoma/Desktop/Scilab/toolboxes/STM32_toolbox_1-1/scicos_blocks/src/c\convert.c ****                     }
 667:C:/Users/geoma/Desktop/Scilab/toolboxes/STM32_toolbox_1-1/scicos_blocks/src/c\convert.c ****                     else
 668:C:/Users/geoma/Desktop/Scilab/toolboxes/STM32_toolbox_1-1/scicos_blocks/src/c\convert.c ****                     {
 669:C:/Users/geoma/Desktop/Scilab/toolboxes/STM32_toolbox_1-1/scicos_blocks/src/c\convert.c ****                         y[i] = (SCSINT16_COP)(u[i]);
ARM GAS  C:\Users\geoma\AppData\Local\Temp\ccpZNVPJ.s 			page 61


 2679              		.loc 1 669 0
 2680 108e 3046     		mov	r0, r6
 2681 1090 3946     		mov	r1, r7
 2682 1092 FFF7FEFF 		bl	__aeabi_d2iz
 2683              	.LVL516:
 2684 1096 28F81400 		strh	r0, [r8, r4, lsl #1]	@ movhi
 2685              	.L212:
 657:C:/Users/geoma/Desktop/Scilab/toolboxes/STM32_toolbox_1-1/scicos_blocks/src/c\convert.c ****                 {
 2686              		.loc 1 657 0 discriminator 2
 2687 109a 0134     		adds	r4, r4, #1
 2688              	.LVL517:
 2689              	.L209:
 657:C:/Users/geoma/Desktop/Scilab/toolboxes/STM32_toolbox_1-1/scicos_blocks/src/c\convert.c ****                 {
 2690              		.loc 1 657 0 is_stmt 0 discriminator 1
 2691 109c 0AFB0BF3 		mul	r3, r10, fp
 2692 10a0 A342     		cmp	r3, r4
 2693 10a2 D7DC     		bgt	.L215
 2694 10a4 00F0D8BE 		b	.L1
 2695              	.LVL518:
 2696              	.L43:
 2697              	.LBE40:
 2698              	.LBB41:
 670:C:/Users/geoma/Desktop/Scilab/toolboxes/STM32_toolbox_1-1/scicos_blocks/src/c\convert.c ****                     }
 671:C:/Users/geoma/Desktop/Scilab/toolboxes/STM32_toolbox_1-1/scicos_blocks/src/c\convert.c ****                 }
 672:C:/Users/geoma/Desktop/Scilab/toolboxes/STM32_toolbox_1-1/scicos_blocks/src/c\convert.c ****                 break;
 673:C:/Users/geoma/Desktop/Scilab/toolboxes/STM32_toolbox_1-1/scicos_blocks/src/c\convert.c ****             }
 674:C:/Users/geoma/Desktop/Scilab/toolboxes/STM32_toolbox_1-1/scicos_blocks/src/c\convert.c ****             case 40:
 675:C:/Users/geoma/Desktop/Scilab/toolboxes/STM32_toolbox_1-1/scicos_blocks/src/c\convert.c ****             {
 676:C:/Users/geoma/Desktop/Scilab/toolboxes/STM32_toolbox_1-1/scicos_blocks/src/c\convert.c ****                 SCSREAL_COP *u = NULL;
 677:C:/Users/geoma/Desktop/Scilab/toolboxes/STM32_toolbox_1-1/scicos_blocks/src/c\convert.c ****                 SCSINT8_COP *y = NULL;
 678:C:/Users/geoma/Desktop/Scilab/toolboxes/STM32_toolbox_1-1/scicos_blocks/src/c\convert.c ****                 u = GetRealInPortPtrs(block, 1);
 2699              		.loc 1 678 0 is_stmt 1
 2700 10a8 436C     		ldr	r3, [r0, #68]
 2701 10aa 1D68     		ldr	r5, [r3]
 2702              	.LVL519:
 679:C:/Users/geoma/Desktop/Scilab/toolboxes/STM32_toolbox_1-1/scicos_blocks/src/c\convert.c ****                 y = Getint8OutPortPtrs(block, 1);
 2703              		.loc 1 679 0
 2704 10ac 036D     		ldr	r3, [r0, #80]
 2705 10ae D3F80080 		ldr	r8, [r3]
 2706              	.LVL520:
 680:C:/Users/geoma/Desktop/Scilab/toolboxes/STM32_toolbox_1-1/scicos_blocks/src/c\convert.c ****                 k = pow(2, 8);
 681:C:/Users/geoma/Desktop/Scilab/toolboxes/STM32_toolbox_1-1/scicos_blocks/src/c\convert.c ****                 for (i = 0; i < m * n; i++)
 2707              		.loc 1 681 0
 2708 10b2 0024     		movs	r4, #0
 2709              	.LVL521:
 2710 10b4 21E0     		b	.L216
 2711              	.LVL522:
 2712              	.L222:
 682:C:/Users/geoma/Desktop/Scilab/toolboxes/STM32_toolbox_1-1/scicos_blocks/src/c\convert.c ****                 {
 683:C:/Users/geoma/Desktop/Scilab/toolboxes/STM32_toolbox_1-1/scicos_blocks/src/c\convert.c ****                     if (u[i] > k / 2 - 1)
 2713              		.loc 1 683 0
 2714 10b6 05EBC403 		add	r3, r5, r4, lsl #3
 2715 10ba D3E90067 		ldrd	r6, [r3]
 2716 10be 3046     		mov	r0, r6
 2717 10c0 3946     		mov	r1, r7
 2718 10c2 47A3     		adr	r3, .L536+16
 2719 10c4 D3E90023 		ldrd	r2, [r3]
ARM GAS  C:\Users\geoma\AppData\Local\Temp\ccpZNVPJ.s 			page 62


 2720 10c8 FFF7FEFF 		bl	__aeabi_dcmpgt
 2721              	.LVL523:
 2722 10cc 18B1     		cbz	r0, .L510
 684:C:/Users/geoma/Desktop/Scilab/toolboxes/STM32_toolbox_1-1/scicos_blocks/src/c\convert.c ****                     {
 685:C:/Users/geoma/Desktop/Scilab/toolboxes/STM32_toolbox_1-1/scicos_blocks/src/c\convert.c ****                         y[i] = (SCSINT8_COP)(k / 2 - 1);
 2723              		.loc 1 685 0
 2724 10ce 7F23     		movs	r3, #127
 2725 10d0 08F80430 		strb	r3, [r8, r4]
 2726 10d4 10E0     		b	.L219
 2727              	.L510:
 686:C:/Users/geoma/Desktop/Scilab/toolboxes/STM32_toolbox_1-1/scicos_blocks/src/c\convert.c ****                     }
 687:C:/Users/geoma/Desktop/Scilab/toolboxes/STM32_toolbox_1-1/scicos_blocks/src/c\convert.c ****                     else if (u[i] < -(k / 2))
 2728              		.loc 1 687 0
 2729 10d6 3046     		mov	r0, r6
 2730 10d8 3946     		mov	r1, r7
 2731 10da 0022     		movs	r2, #0
 2732 10dc 474B     		ldr	r3, .L536+44
 2733 10de FFF7FEFF 		bl	__aeabi_dcmplt
 2734              	.LVL524:
 2735 10e2 18B1     		cbz	r0, .L511
 688:C:/Users/geoma/Desktop/Scilab/toolboxes/STM32_toolbox_1-1/scicos_blocks/src/c\convert.c ****                     {
 689:C:/Users/geoma/Desktop/Scilab/toolboxes/STM32_toolbox_1-1/scicos_blocks/src/c\convert.c ****                         y[i] = -(SCSINT8_COP)(k / 2);
 2736              		.loc 1 689 0
 2737 10e4 8023     		movs	r3, #128
 2738 10e6 08F80430 		strb	r3, [r8, r4]
 2739 10ea 05E0     		b	.L219
 2740              	.L511:
 690:C:/Users/geoma/Desktop/Scilab/toolboxes/STM32_toolbox_1-1/scicos_blocks/src/c\convert.c ****                     }
 691:C:/Users/geoma/Desktop/Scilab/toolboxes/STM32_toolbox_1-1/scicos_blocks/src/c\convert.c ****                     else
 692:C:/Users/geoma/Desktop/Scilab/toolboxes/STM32_toolbox_1-1/scicos_blocks/src/c\convert.c ****                     {
 693:C:/Users/geoma/Desktop/Scilab/toolboxes/STM32_toolbox_1-1/scicos_blocks/src/c\convert.c ****                         y[i] = (SCSINT8_COP)(u[i]);
 2741              		.loc 1 693 0
 2742 10ec 3046     		mov	r0, r6
 2743 10ee 3946     		mov	r1, r7
 2744 10f0 FFF7FEFF 		bl	__aeabi_d2uiz
 2745              	.LVL525:
 2746 10f4 08F80400 		strb	r0, [r8, r4]
 2747              	.L219:
 681:C:/Users/geoma/Desktop/Scilab/toolboxes/STM32_toolbox_1-1/scicos_blocks/src/c\convert.c ****                 {
 2748              		.loc 1 681 0 discriminator 2
 2749 10f8 0134     		adds	r4, r4, #1
 2750              	.LVL526:
 2751              	.L216:
 681:C:/Users/geoma/Desktop/Scilab/toolboxes/STM32_toolbox_1-1/scicos_blocks/src/c\convert.c ****                 {
 2752              		.loc 1 681 0 is_stmt 0 discriminator 1
 2753 10fa 0AFB0BF3 		mul	r3, r10, fp
 2754 10fe A342     		cmp	r3, r4
 2755 1100 D9DC     		bgt	.L222
 2756 1102 00F0A9BE 		b	.L1
 2757              	.LVL527:
 2758              	.L44:
 2759              	.LBE41:
 2760              	.LBB42:
 694:C:/Users/geoma/Desktop/Scilab/toolboxes/STM32_toolbox_1-1/scicos_blocks/src/c\convert.c ****                     }
 695:C:/Users/geoma/Desktop/Scilab/toolboxes/STM32_toolbox_1-1/scicos_blocks/src/c\convert.c ****                 }
 696:C:/Users/geoma/Desktop/Scilab/toolboxes/STM32_toolbox_1-1/scicos_blocks/src/c\convert.c ****                 break;
 697:C:/Users/geoma/Desktop/Scilab/toolboxes/STM32_toolbox_1-1/scicos_blocks/src/c\convert.c ****             }
ARM GAS  C:\Users\geoma\AppData\Local\Temp\ccpZNVPJ.s 			page 63


 698:C:/Users/geoma/Desktop/Scilab/toolboxes/STM32_toolbox_1-1/scicos_blocks/src/c\convert.c ****             case 41:
 699:C:/Users/geoma/Desktop/Scilab/toolboxes/STM32_toolbox_1-1/scicos_blocks/src/c\convert.c ****             {
 700:C:/Users/geoma/Desktop/Scilab/toolboxes/STM32_toolbox_1-1/scicos_blocks/src/c\convert.c ****                 SCSREAL_COP *u = NULL;
 701:C:/Users/geoma/Desktop/Scilab/toolboxes/STM32_toolbox_1-1/scicos_blocks/src/c\convert.c ****                 SCSUINT32_COP *y = NULL;
 702:C:/Users/geoma/Desktop/Scilab/toolboxes/STM32_toolbox_1-1/scicos_blocks/src/c\convert.c ****                 u = GetRealInPortPtrs(block, 1);
 2761              		.loc 1 702 0 is_stmt 1
 2762 1106 436C     		ldr	r3, [r0, #68]
 2763 1108 1D68     		ldr	r5, [r3]
 2764              	.LVL528:
 703:C:/Users/geoma/Desktop/Scilab/toolboxes/STM32_toolbox_1-1/scicos_blocks/src/c\convert.c ****                 y = Getuint32OutPortPtrs(block, 1);
 2765              		.loc 1 703 0
 2766 110a 036D     		ldr	r3, [r0, #80]
 2767 110c D3F80080 		ldr	r8, [r3]
 2768              	.LVL529:
 704:C:/Users/geoma/Desktop/Scilab/toolboxes/STM32_toolbox_1-1/scicos_blocks/src/c\convert.c ****                 k = pow(2, 32);
 705:C:/Users/geoma/Desktop/Scilab/toolboxes/STM32_toolbox_1-1/scicos_blocks/src/c\convert.c ****                 for (i = 0; i < m * n; i++)
 2769              		.loc 1 705 0
 2770 1110 0024     		movs	r4, #0
 2771              	.LVL530:
 2772 1112 21E0     		b	.L223
 2773              	.LVL531:
 2774              	.L229:
 706:C:/Users/geoma/Desktop/Scilab/toolboxes/STM32_toolbox_1-1/scicos_blocks/src/c\convert.c ****                 {
 707:C:/Users/geoma/Desktop/Scilab/toolboxes/STM32_toolbox_1-1/scicos_blocks/src/c\convert.c ****                     if (u[i] >= k)
 2775              		.loc 1 707 0
 2776 1114 05EBC403 		add	r3, r5, r4, lsl #3
 2777 1118 D3E90067 		ldrd	r6, [r3]
 2778 111c 3046     		mov	r0, r6
 2779 111e 3946     		mov	r1, r7
 2780 1120 0022     		movs	r2, #0
 2781 1122 374B     		ldr	r3, .L536+48
 2782 1124 FFF7FEFF 		bl	__aeabi_dcmpge
 2783              	.LVL532:
 2784 1128 20B1     		cbz	r0, .L512
 708:C:/Users/geoma/Desktop/Scilab/toolboxes/STM32_toolbox_1-1/scicos_blocks/src/c\convert.c ****                     {
 709:C:/Users/geoma/Desktop/Scilab/toolboxes/STM32_toolbox_1-1/scicos_blocks/src/c\convert.c ****                         y[i] = (SCSUINT32_COP)(k - 1);
 2785              		.loc 1 709 0
 2786 112a 4FF0FF33 		mov	r3, #-1
 2787 112e 48F82430 		str	r3, [r8, r4, lsl #2]
 2788 1132 10E0     		b	.L226
 2789              	.L512:
 710:C:/Users/geoma/Desktop/Scilab/toolboxes/STM32_toolbox_1-1/scicos_blocks/src/c\convert.c ****                     }
 711:C:/Users/geoma/Desktop/Scilab/toolboxes/STM32_toolbox_1-1/scicos_blocks/src/c\convert.c ****                     else if (u[i] < 0)
 2790              		.loc 1 711 0
 2791 1134 3046     		mov	r0, r6
 2792 1136 3946     		mov	r1, r7
 2793 1138 0022     		movs	r2, #0
 2794 113a 0023     		movs	r3, #0
 2795 113c FFF7FEFF 		bl	__aeabi_dcmplt
 2796              	.LVL533:
 2797 1140 18B1     		cbz	r0, .L513
 712:C:/Users/geoma/Desktop/Scilab/toolboxes/STM32_toolbox_1-1/scicos_blocks/src/c\convert.c ****                     {
 713:C:/Users/geoma/Desktop/Scilab/toolboxes/STM32_toolbox_1-1/scicos_blocks/src/c\convert.c ****                         y[i] = 0;
 2798              		.loc 1 713 0
 2799 1142 0023     		movs	r3, #0
 2800 1144 48F82430 		str	r3, [r8, r4, lsl #2]
 2801 1148 05E0     		b	.L226
ARM GAS  C:\Users\geoma\AppData\Local\Temp\ccpZNVPJ.s 			page 64


 2802              	.L513:
 714:C:/Users/geoma/Desktop/Scilab/toolboxes/STM32_toolbox_1-1/scicos_blocks/src/c\convert.c ****                     }
 715:C:/Users/geoma/Desktop/Scilab/toolboxes/STM32_toolbox_1-1/scicos_blocks/src/c\convert.c ****                     else
 716:C:/Users/geoma/Desktop/Scilab/toolboxes/STM32_toolbox_1-1/scicos_blocks/src/c\convert.c ****                     {
 717:C:/Users/geoma/Desktop/Scilab/toolboxes/STM32_toolbox_1-1/scicos_blocks/src/c\convert.c ****                         y[i] = (SCSUINT32_COP)(u[i]);
 2803              		.loc 1 717 0
 2804 114a 3046     		mov	r0, r6
 2805 114c 3946     		mov	r1, r7
 2806 114e FFF7FEFF 		bl	__aeabi_d2uiz
 2807              	.LVL534:
 2808 1152 48F82400 		str	r0, [r8, r4, lsl #2]
 2809              	.L226:
 705:C:/Users/geoma/Desktop/Scilab/toolboxes/STM32_toolbox_1-1/scicos_blocks/src/c\convert.c ****                 {
 2810              		.loc 1 705 0 discriminator 2
 2811 1156 0134     		adds	r4, r4, #1
 2812              	.LVL535:
 2813              	.L223:
 705:C:/Users/geoma/Desktop/Scilab/toolboxes/STM32_toolbox_1-1/scicos_blocks/src/c\convert.c ****                 {
 2814              		.loc 1 705 0 is_stmt 0 discriminator 1
 2815 1158 0AFB0BF3 		mul	r3, r10, fp
 2816 115c A342     		cmp	r3, r4
 2817 115e D9DC     		bgt	.L229
 2818 1160 00F07ABE 		b	.L1
 2819              	.LVL536:
 2820              	.L45:
 2821              	.LBE42:
 2822              	.LBB43:
 718:C:/Users/geoma/Desktop/Scilab/toolboxes/STM32_toolbox_1-1/scicos_blocks/src/c\convert.c ****                     }
 719:C:/Users/geoma/Desktop/Scilab/toolboxes/STM32_toolbox_1-1/scicos_blocks/src/c\convert.c ****                 }
 720:C:/Users/geoma/Desktop/Scilab/toolboxes/STM32_toolbox_1-1/scicos_blocks/src/c\convert.c ****                 break;
 721:C:/Users/geoma/Desktop/Scilab/toolboxes/STM32_toolbox_1-1/scicos_blocks/src/c\convert.c ****             }
 722:C:/Users/geoma/Desktop/Scilab/toolboxes/STM32_toolbox_1-1/scicos_blocks/src/c\convert.c ****             case 42:
 723:C:/Users/geoma/Desktop/Scilab/toolboxes/STM32_toolbox_1-1/scicos_blocks/src/c\convert.c ****             {
 724:C:/Users/geoma/Desktop/Scilab/toolboxes/STM32_toolbox_1-1/scicos_blocks/src/c\convert.c ****                 SCSREAL_COP *u = NULL;
 725:C:/Users/geoma/Desktop/Scilab/toolboxes/STM32_toolbox_1-1/scicos_blocks/src/c\convert.c ****                 SCSUINT16_COP *y = NULL;
 726:C:/Users/geoma/Desktop/Scilab/toolboxes/STM32_toolbox_1-1/scicos_blocks/src/c\convert.c ****                 u = GetRealInPortPtrs(block, 1);
 2823              		.loc 1 726 0 is_stmt 1
 2824 1164 436C     		ldr	r3, [r0, #68]
 2825 1166 1D68     		ldr	r5, [r3]
 2826              	.LVL537:
 727:C:/Users/geoma/Desktop/Scilab/toolboxes/STM32_toolbox_1-1/scicos_blocks/src/c\convert.c ****                 y = Getuint16OutPortPtrs(block, 1);
 2827              		.loc 1 727 0
 2828 1168 036D     		ldr	r3, [r0, #80]
 2829 116a D3F80080 		ldr	r8, [r3]
 2830              	.LVL538:
 728:C:/Users/geoma/Desktop/Scilab/toolboxes/STM32_toolbox_1-1/scicos_blocks/src/c\convert.c ****                 k = pow(2, 16);
 729:C:/Users/geoma/Desktop/Scilab/toolboxes/STM32_toolbox_1-1/scicos_blocks/src/c\convert.c ****                 for (i = 0; i < m * n; i++)
 2831              		.loc 1 729 0
 2832 116e 0024     		movs	r4, #0
 2833              	.LVL539:
 2834 1170 21E0     		b	.L230
 2835              	.LVL540:
 2836              	.L236:
 730:C:/Users/geoma/Desktop/Scilab/toolboxes/STM32_toolbox_1-1/scicos_blocks/src/c\convert.c ****                 {
 731:C:/Users/geoma/Desktop/Scilab/toolboxes/STM32_toolbox_1-1/scicos_blocks/src/c\convert.c ****                     if (u[i] >= k)
 2837              		.loc 1 731 0
 2838 1172 05EBC403 		add	r3, r5, r4, lsl #3
ARM GAS  C:\Users\geoma\AppData\Local\Temp\ccpZNVPJ.s 			page 65


 2839 1176 D3E90067 		ldrd	r6, [r3]
 2840 117a 3046     		mov	r0, r6
 2841 117c 3946     		mov	r1, r7
 2842 117e 0022     		movs	r2, #0
 2843 1180 204B     		ldr	r3, .L536+52
 2844 1182 FFF7FEFF 		bl	__aeabi_dcmpge
 2845              	.LVL541:
 2846 1186 20B1     		cbz	r0, .L514
 732:C:/Users/geoma/Desktop/Scilab/toolboxes/STM32_toolbox_1-1/scicos_blocks/src/c\convert.c ****                     {
 733:C:/Users/geoma/Desktop/Scilab/toolboxes/STM32_toolbox_1-1/scicos_blocks/src/c\convert.c ****                         y[i] = (SCSUINT16_COP)(k - 1);
 2847              		.loc 1 733 0
 2848 1188 4FF6FF73 		movw	r3, #65535
 2849 118c 28F81430 		strh	r3, [r8, r4, lsl #1]	@ movhi
 2850 1190 10E0     		b	.L233
 2851              	.L514:
 734:C:/Users/geoma/Desktop/Scilab/toolboxes/STM32_toolbox_1-1/scicos_blocks/src/c\convert.c ****                     }
 735:C:/Users/geoma/Desktop/Scilab/toolboxes/STM32_toolbox_1-1/scicos_blocks/src/c\convert.c ****                     else if (u[i] < 0)
 2852              		.loc 1 735 0
 2853 1192 3046     		mov	r0, r6
 2854 1194 3946     		mov	r1, r7
 2855 1196 0022     		movs	r2, #0
 2856 1198 0023     		movs	r3, #0
 2857 119a FFF7FEFF 		bl	__aeabi_dcmplt
 2858              	.LVL542:
 2859 119e 18B1     		cbz	r0, .L515
 736:C:/Users/geoma/Desktop/Scilab/toolboxes/STM32_toolbox_1-1/scicos_blocks/src/c\convert.c ****                     {
 737:C:/Users/geoma/Desktop/Scilab/toolboxes/STM32_toolbox_1-1/scicos_blocks/src/c\convert.c ****                         y[i] = 0;
 2860              		.loc 1 737 0
 2861 11a0 0023     		movs	r3, #0
 2862 11a2 28F81430 		strh	r3, [r8, r4, lsl #1]	@ movhi
 2863 11a6 05E0     		b	.L233
 2864              	.L515:
 738:C:/Users/geoma/Desktop/Scilab/toolboxes/STM32_toolbox_1-1/scicos_blocks/src/c\convert.c ****                     }
 739:C:/Users/geoma/Desktop/Scilab/toolboxes/STM32_toolbox_1-1/scicos_blocks/src/c\convert.c ****                     else
 740:C:/Users/geoma/Desktop/Scilab/toolboxes/STM32_toolbox_1-1/scicos_blocks/src/c\convert.c ****                     {
 741:C:/Users/geoma/Desktop/Scilab/toolboxes/STM32_toolbox_1-1/scicos_blocks/src/c\convert.c ****                         y[i] = (SCSUINT16_COP)(u[i]);
 2865              		.loc 1 741 0
 2866 11a8 3046     		mov	r0, r6
 2867 11aa 3946     		mov	r1, r7
 2868 11ac FFF7FEFF 		bl	__aeabi_d2uiz
 2869              	.LVL543:
 2870 11b0 28F81400 		strh	r0, [r8, r4, lsl #1]	@ movhi
 2871              	.L233:
 729:C:/Users/geoma/Desktop/Scilab/toolboxes/STM32_toolbox_1-1/scicos_blocks/src/c\convert.c ****                 {
 2872              		.loc 1 729 0 discriminator 2
 2873 11b4 0134     		adds	r4, r4, #1
 2874              	.LVL544:
 2875              	.L230:
 729:C:/Users/geoma/Desktop/Scilab/toolboxes/STM32_toolbox_1-1/scicos_blocks/src/c\convert.c ****                 {
 2876              		.loc 1 729 0 is_stmt 0 discriminator 1
 2877 11b6 0AFB0BF3 		mul	r3, r10, fp
 2878 11ba A342     		cmp	r3, r4
 2879 11bc D9DC     		bgt	.L236
 2880 11be 00F04BBE 		b	.L1
 2881              	.LVL545:
 2882              	.L46:
 2883              	.LBE43:
ARM GAS  C:\Users\geoma\AppData\Local\Temp\ccpZNVPJ.s 			page 66


 2884              	.LBB44:
 742:C:/Users/geoma/Desktop/Scilab/toolboxes/STM32_toolbox_1-1/scicos_blocks/src/c\convert.c ****                     }
 743:C:/Users/geoma/Desktop/Scilab/toolboxes/STM32_toolbox_1-1/scicos_blocks/src/c\convert.c ****                 }
 744:C:/Users/geoma/Desktop/Scilab/toolboxes/STM32_toolbox_1-1/scicos_blocks/src/c\convert.c ****                 break;
 745:C:/Users/geoma/Desktop/Scilab/toolboxes/STM32_toolbox_1-1/scicos_blocks/src/c\convert.c ****             }
 746:C:/Users/geoma/Desktop/Scilab/toolboxes/STM32_toolbox_1-1/scicos_blocks/src/c\convert.c ****             case 43:
 747:C:/Users/geoma/Desktop/Scilab/toolboxes/STM32_toolbox_1-1/scicos_blocks/src/c\convert.c ****             {
 748:C:/Users/geoma/Desktop/Scilab/toolboxes/STM32_toolbox_1-1/scicos_blocks/src/c\convert.c ****                 SCSREAL_COP *u = NULL;
 749:C:/Users/geoma/Desktop/Scilab/toolboxes/STM32_toolbox_1-1/scicos_blocks/src/c\convert.c ****                 SCSUINT8_COP *y = NULL;
 750:C:/Users/geoma/Desktop/Scilab/toolboxes/STM32_toolbox_1-1/scicos_blocks/src/c\convert.c ****                 u = GetRealInPortPtrs(block, 1);
 2885              		.loc 1 750 0 is_stmt 1
 2886 11c2 436C     		ldr	r3, [r0, #68]
 2887 11c4 1D68     		ldr	r5, [r3]
 2888              	.LVL546:
 751:C:/Users/geoma/Desktop/Scilab/toolboxes/STM32_toolbox_1-1/scicos_blocks/src/c\convert.c ****                 y = Getuint8OutPortPtrs(block, 1);
 2889              		.loc 1 751 0
 2890 11c6 036D     		ldr	r3, [r0, #80]
 2891 11c8 D3F80080 		ldr	r8, [r3]
 2892              	.LVL547:
 752:C:/Users/geoma/Desktop/Scilab/toolboxes/STM32_toolbox_1-1/scicos_blocks/src/c\convert.c ****                 k = pow(2, 8);
 753:C:/Users/geoma/Desktop/Scilab/toolboxes/STM32_toolbox_1-1/scicos_blocks/src/c\convert.c ****                 for (i = 0; i < m * n; i++)
 2893              		.loc 1 753 0
 2894 11cc 0024     		movs	r4, #0
 2895              	.LVL548:
 2896 11ce 3CE0     		b	.L237
 2897              	.L537:
 2898              		.align	3
 2899              	.L536:
 2900 11d0 0000C0FF 		.word	-4194304
 2901 11d4 FFFFDF41 		.word	1105199103
 2902 11d8 00000000 		.word	0
 2903 11dc C0FFDF40 		.word	1088421824
 2904 11e0 00000000 		.word	0
 2905 11e4 00C05F40 		.word	1080016896
 2906 11e8 0000703F 		.word	1064304640
 2907 11ec 00007040 		.word	1081081856
 2908 11f0 0000E0C1 		.word	-1042284544
 2909 11f4 01000080 		.word	-2147483647
 2910 11f8 0000E0C0 		.word	-1059061760
 2911 11fc 000060C0 		.word	-1067450368
 2912 1200 0000F041 		.word	1106247680
 2913 1204 0000F040 		.word	1089470464
 2914              	.LVL549:
 2915              	.L243:
 754:C:/Users/geoma/Desktop/Scilab/toolboxes/STM32_toolbox_1-1/scicos_blocks/src/c\convert.c ****                 {
 755:C:/Users/geoma/Desktop/Scilab/toolboxes/STM32_toolbox_1-1/scicos_blocks/src/c\convert.c ****                     if (u[i] >= k)
 2916              		.loc 1 755 0
 2917 1208 05EBC403 		add	r3, r5, r4, lsl #3
 2918 120c D3E90067 		ldrd	r6, [r3]
 2919 1210 3046     		mov	r0, r6
 2920 1212 3946     		mov	r1, r7
 2921 1214 0022     		movs	r2, #0
 2922 1216 B74B     		ldr	r3, .L538
 2923 1218 FFF7FEFF 		bl	__aeabi_dcmpge
 2924              	.LVL550:
 2925 121c 18B1     		cbz	r0, .L516
 756:C:/Users/geoma/Desktop/Scilab/toolboxes/STM32_toolbox_1-1/scicos_blocks/src/c\convert.c ****                     {
ARM GAS  C:\Users\geoma\AppData\Local\Temp\ccpZNVPJ.s 			page 67


 757:C:/Users/geoma/Desktop/Scilab/toolboxes/STM32_toolbox_1-1/scicos_blocks/src/c\convert.c ****                         y[i] = (SCSUINT8_COP)(k - 1);
 2926              		.loc 1 757 0
 2927 121e FF23     		movs	r3, #255
 2928 1220 08F80430 		strb	r3, [r8, r4]
 2929 1224 10E0     		b	.L240
 2930              	.L516:
 758:C:/Users/geoma/Desktop/Scilab/toolboxes/STM32_toolbox_1-1/scicos_blocks/src/c\convert.c ****                     }
 759:C:/Users/geoma/Desktop/Scilab/toolboxes/STM32_toolbox_1-1/scicos_blocks/src/c\convert.c ****                     else if (u[i] < 0)
 2931              		.loc 1 759 0
 2932 1226 3046     		mov	r0, r6
 2933 1228 3946     		mov	r1, r7
 2934 122a 0022     		movs	r2, #0
 2935 122c 0023     		movs	r3, #0
 2936 122e FFF7FEFF 		bl	__aeabi_dcmplt
 2937              	.LVL551:
 2938 1232 18B1     		cbz	r0, .L517
 760:C:/Users/geoma/Desktop/Scilab/toolboxes/STM32_toolbox_1-1/scicos_blocks/src/c\convert.c ****                     {
 761:C:/Users/geoma/Desktop/Scilab/toolboxes/STM32_toolbox_1-1/scicos_blocks/src/c\convert.c ****                         y[i] = 0;
 2939              		.loc 1 761 0
 2940 1234 0023     		movs	r3, #0
 2941 1236 08F80430 		strb	r3, [r8, r4]
 2942 123a 05E0     		b	.L240
 2943              	.L517:
 762:C:/Users/geoma/Desktop/Scilab/toolboxes/STM32_toolbox_1-1/scicos_blocks/src/c\convert.c ****                     }
 763:C:/Users/geoma/Desktop/Scilab/toolboxes/STM32_toolbox_1-1/scicos_blocks/src/c\convert.c ****                     else
 764:C:/Users/geoma/Desktop/Scilab/toolboxes/STM32_toolbox_1-1/scicos_blocks/src/c\convert.c ****                     {
 765:C:/Users/geoma/Desktop/Scilab/toolboxes/STM32_toolbox_1-1/scicos_blocks/src/c\convert.c ****                         y[i] = (SCSUINT8_COP)(u[i]);
 2944              		.loc 1 765 0
 2945 123c 3046     		mov	r0, r6
 2946 123e 3946     		mov	r1, r7
 2947 1240 FFF7FEFF 		bl	__aeabi_d2uiz
 2948              	.LVL552:
 2949 1244 08F80400 		strb	r0, [r8, r4]
 2950              	.L240:
 753:C:/Users/geoma/Desktop/Scilab/toolboxes/STM32_toolbox_1-1/scicos_blocks/src/c\convert.c ****                 {
 2951              		.loc 1 753 0 discriminator 2
 2952 1248 0134     		adds	r4, r4, #1
 2953              	.LVL553:
 2954              	.L237:
 753:C:/Users/geoma/Desktop/Scilab/toolboxes/STM32_toolbox_1-1/scicos_blocks/src/c\convert.c ****                 {
 2955              		.loc 1 753 0 is_stmt 0 discriminator 1
 2956 124a 0AFB0BF3 		mul	r3, r10, fp
 2957 124e A342     		cmp	r3, r4
 2958 1250 DADC     		bgt	.L243
 2959 1252 00F001BE 		b	.L1
 2960              	.LVL554:
 2961              	.L47:
 2962              	.LBE44:
 2963              	.LBB45:
 766:C:/Users/geoma/Desktop/Scilab/toolboxes/STM32_toolbox_1-1/scicos_blocks/src/c\convert.c ****                     }
 767:C:/Users/geoma/Desktop/Scilab/toolboxes/STM32_toolbox_1-1/scicos_blocks/src/c\convert.c ****                 }
 768:C:/Users/geoma/Desktop/Scilab/toolboxes/STM32_toolbox_1-1/scicos_blocks/src/c\convert.c ****                 break;
 769:C:/Users/geoma/Desktop/Scilab/toolboxes/STM32_toolbox_1-1/scicos_blocks/src/c\convert.c ****             }
 770:C:/Users/geoma/Desktop/Scilab/toolboxes/STM32_toolbox_1-1/scicos_blocks/src/c\convert.c ****             case 44:
 771:C:/Users/geoma/Desktop/Scilab/toolboxes/STM32_toolbox_1-1/scicos_blocks/src/c\convert.c ****             {
 772:C:/Users/geoma/Desktop/Scilab/toolboxes/STM32_toolbox_1-1/scicos_blocks/src/c\convert.c ****                 SCSINT32_COP *u = NULL;
 773:C:/Users/geoma/Desktop/Scilab/toolboxes/STM32_toolbox_1-1/scicos_blocks/src/c\convert.c ****                 SCSINT16_COP *y = NULL;
ARM GAS  C:\Users\geoma\AppData\Local\Temp\ccpZNVPJ.s 			page 68


 774:C:/Users/geoma/Desktop/Scilab/toolboxes/STM32_toolbox_1-1/scicos_blocks/src/c\convert.c ****                 u = Getint32InPortPtrs(block, 1);
 2964              		.loc 1 774 0 is_stmt 1
 2965 1256 436C     		ldr	r3, [r0, #68]
 2966 1258 1C68     		ldr	r4, [r3]
 2967              	.LVL555:
 775:C:/Users/geoma/Desktop/Scilab/toolboxes/STM32_toolbox_1-1/scicos_blocks/src/c\convert.c ****                 y = Getint16OutPortPtrs(block, 1);
 2968              		.loc 1 775 0
 2969 125a 036D     		ldr	r3, [r0, #80]
 2970 125c 1868     		ldr	r0, [r3]
 2971              	.LVL556:
 776:C:/Users/geoma/Desktop/Scilab/toolboxes/STM32_toolbox_1-1/scicos_blocks/src/c\convert.c ****                 k = pow(2, 16);
 777:C:/Users/geoma/Desktop/Scilab/toolboxes/STM32_toolbox_1-1/scicos_blocks/src/c\convert.c ****                 for (i = 0; i < m * n; i++)
 2972              		.loc 1 777 0
 2973 125e 0023     		movs	r3, #0
 2974 1260 14E0     		b	.L244
 2975              	.LVL557:
 2976              	.L248:
 778:C:/Users/geoma/Desktop/Scilab/toolboxes/STM32_toolbox_1-1/scicos_blocks/src/c\convert.c ****                 {
 779:C:/Users/geoma/Desktop/Scilab/toolboxes/STM32_toolbox_1-1/scicos_blocks/src/c\convert.c ****                     if (u[i] > (SCSINT32_COP)(k / 2 - 1))
 2977              		.loc 1 779 0
 2978 1262 54F82320 		ldr	r2, [r4, r3, lsl #2]
 2979 1266 B2F5004F 		cmp	r2, #32768
 2980 126a 04DB     		blt	.L245
 780:C:/Users/geoma/Desktop/Scilab/toolboxes/STM32_toolbox_1-1/scicos_blocks/src/c\convert.c ****                     {
 781:C:/Users/geoma/Desktop/Scilab/toolboxes/STM32_toolbox_1-1/scicos_blocks/src/c\convert.c ****                         y[i] = (SCSINT16_COP)(k / 2 - 1);
 2981              		.loc 1 781 0
 2982 126c 47F6FF72 		movw	r2, #32767
 2983 1270 20F81320 		strh	r2, [r0, r3, lsl #1]	@ movhi
 2984 1274 09E0     		b	.L246
 2985              	.L245:
 782:C:/Users/geoma/Desktop/Scilab/toolboxes/STM32_toolbox_1-1/scicos_blocks/src/c\convert.c ****                     }
 783:C:/Users/geoma/Desktop/Scilab/toolboxes/STM32_toolbox_1-1/scicos_blocks/src/c\convert.c ****                     else if (u[i] < -(SCSINT32_COP)(k / 2))
 2986              		.loc 1 783 0
 2987 1276 12F5004F 		cmn	r2, #32768
 2988 127a 04DA     		bge	.L247
 784:C:/Users/geoma/Desktop/Scilab/toolboxes/STM32_toolbox_1-1/scicos_blocks/src/c\convert.c ****                     {
 785:C:/Users/geoma/Desktop/Scilab/toolboxes/STM32_toolbox_1-1/scicos_blocks/src/c\convert.c ****                         y[i] = -(SCSINT16_COP)(k / 2);
 2989              		.loc 1 785 0
 2990 127c 48F20102 		movw	r2, #32769
 2991 1280 20F81320 		strh	r2, [r0, r3, lsl #1]	@ movhi
 2992 1284 01E0     		b	.L246
 2993              	.L247:
 786:C:/Users/geoma/Desktop/Scilab/toolboxes/STM32_toolbox_1-1/scicos_blocks/src/c\convert.c ****                     }
 787:C:/Users/geoma/Desktop/Scilab/toolboxes/STM32_toolbox_1-1/scicos_blocks/src/c\convert.c ****                     else
 788:C:/Users/geoma/Desktop/Scilab/toolboxes/STM32_toolbox_1-1/scicos_blocks/src/c\convert.c ****                     {
 789:C:/Users/geoma/Desktop/Scilab/toolboxes/STM32_toolbox_1-1/scicos_blocks/src/c\convert.c ****                         y[i] = (SCSINT16_COP)(u[i]);
 2994              		.loc 1 789 0
 2995 1286 20F81320 		strh	r2, [r0, r3, lsl #1]	@ movhi
 2996              	.L246:
 777:C:/Users/geoma/Desktop/Scilab/toolboxes/STM32_toolbox_1-1/scicos_blocks/src/c\convert.c ****                 {
 2997              		.loc 1 777 0 discriminator 2
 2998 128a 0133     		adds	r3, r3, #1
 2999              	.LVL558:
 3000              	.L244:
 777:C:/Users/geoma/Desktop/Scilab/toolboxes/STM32_toolbox_1-1/scicos_blocks/src/c\convert.c ****                 {
 3001              		.loc 1 777 0 is_stmt 0 discriminator 1
 3002 128c 0AFB0BF2 		mul	r2, r10, fp
ARM GAS  C:\Users\geoma\AppData\Local\Temp\ccpZNVPJ.s 			page 69


 3003 1290 9A42     		cmp	r2, r3
 3004 1292 E6DC     		bgt	.L248
 3005 1294 00F0E0BD 		b	.L1
 3006              	.LVL559:
 3007              	.L48:
 3008              	.LBE45:
 3009              	.LBB46:
 790:C:/Users/geoma/Desktop/Scilab/toolboxes/STM32_toolbox_1-1/scicos_blocks/src/c\convert.c ****                     }
 791:C:/Users/geoma/Desktop/Scilab/toolboxes/STM32_toolbox_1-1/scicos_blocks/src/c\convert.c ****                 }
 792:C:/Users/geoma/Desktop/Scilab/toolboxes/STM32_toolbox_1-1/scicos_blocks/src/c\convert.c ****                 break;
 793:C:/Users/geoma/Desktop/Scilab/toolboxes/STM32_toolbox_1-1/scicos_blocks/src/c\convert.c ****             }
 794:C:/Users/geoma/Desktop/Scilab/toolboxes/STM32_toolbox_1-1/scicos_blocks/src/c\convert.c ****             case 45:
 795:C:/Users/geoma/Desktop/Scilab/toolboxes/STM32_toolbox_1-1/scicos_blocks/src/c\convert.c ****             {
 796:C:/Users/geoma/Desktop/Scilab/toolboxes/STM32_toolbox_1-1/scicos_blocks/src/c\convert.c ****                 SCSINT32_COP *u = NULL;
 797:C:/Users/geoma/Desktop/Scilab/toolboxes/STM32_toolbox_1-1/scicos_blocks/src/c\convert.c ****                 SCSINT8_COP *y = NULL;
 798:C:/Users/geoma/Desktop/Scilab/toolboxes/STM32_toolbox_1-1/scicos_blocks/src/c\convert.c ****                 u = Getint32InPortPtrs(block, 1);
 3010              		.loc 1 798 0 is_stmt 1
 3011 1298 436C     		ldr	r3, [r0, #68]
 3012 129a 1C68     		ldr	r4, [r3]
 3013              	.LVL560:
 799:C:/Users/geoma/Desktop/Scilab/toolboxes/STM32_toolbox_1-1/scicos_blocks/src/c\convert.c ****                 y = Getint8OutPortPtrs(block, 1);
 3014              		.loc 1 799 0
 3015 129c 036D     		ldr	r3, [r0, #80]
 3016 129e 1868     		ldr	r0, [r3]
 3017              	.LVL561:
 800:C:/Users/geoma/Desktop/Scilab/toolboxes/STM32_toolbox_1-1/scicos_blocks/src/c\convert.c ****                 k = pow(2, 8);
 801:C:/Users/geoma/Desktop/Scilab/toolboxes/STM32_toolbox_1-1/scicos_blocks/src/c\convert.c ****                 for (i = 0; i < m * n; i++)
 3018              		.loc 1 801 0
 3019 12a0 0023     		movs	r3, #0
 3020 12a2 0EE0     		b	.L249
 3021              	.LVL562:
 3022              	.L253:
 802:C:/Users/geoma/Desktop/Scilab/toolboxes/STM32_toolbox_1-1/scicos_blocks/src/c\convert.c ****                 {
 803:C:/Users/geoma/Desktop/Scilab/toolboxes/STM32_toolbox_1-1/scicos_blocks/src/c\convert.c ****                     if (u[i] > (SCSINT32_COP)(k / 2 - 1))
 3023              		.loc 1 803 0
 3024 12a4 54F82320 		ldr	r2, [r4, r3, lsl #2]
 3025 12a8 7F2A     		cmp	r2, #127
 3026 12aa 02DD     		ble	.L250
 804:C:/Users/geoma/Desktop/Scilab/toolboxes/STM32_toolbox_1-1/scicos_blocks/src/c\convert.c ****                     {
 805:C:/Users/geoma/Desktop/Scilab/toolboxes/STM32_toolbox_1-1/scicos_blocks/src/c\convert.c ****                         y[i] = (SCSINT8_COP)(k / 2 - 1);
 3027              		.loc 1 805 0
 3028 12ac 7F22     		movs	r2, #127
 3029 12ae C254     		strb	r2, [r0, r3]
 3030 12b0 06E0     		b	.L251
 3031              	.L250:
 806:C:/Users/geoma/Desktop/Scilab/toolboxes/STM32_toolbox_1-1/scicos_blocks/src/c\convert.c ****                     }
 807:C:/Users/geoma/Desktop/Scilab/toolboxes/STM32_toolbox_1-1/scicos_blocks/src/c\convert.c ****                     else if (u[i] < -(SCSINT32_COP)(k / 2))
 3032              		.loc 1 807 0
 3033 12b2 12F1800F 		cmn	r2, #128
 3034 12b6 02DA     		bge	.L252
 808:C:/Users/geoma/Desktop/Scilab/toolboxes/STM32_toolbox_1-1/scicos_blocks/src/c\convert.c ****                     {
 809:C:/Users/geoma/Desktop/Scilab/toolboxes/STM32_toolbox_1-1/scicos_blocks/src/c\convert.c ****                         y[i] = -(SCSINT8_COP)(k / 2);
 3035              		.loc 1 809 0
 3036 12b8 8022     		movs	r2, #128
 3037 12ba C254     		strb	r2, [r0, r3]
 3038 12bc 00E0     		b	.L251
 3039              	.L252:
ARM GAS  C:\Users\geoma\AppData\Local\Temp\ccpZNVPJ.s 			page 70


 810:C:/Users/geoma/Desktop/Scilab/toolboxes/STM32_toolbox_1-1/scicos_blocks/src/c\convert.c ****                     }
 811:C:/Users/geoma/Desktop/Scilab/toolboxes/STM32_toolbox_1-1/scicos_blocks/src/c\convert.c ****                     else
 812:C:/Users/geoma/Desktop/Scilab/toolboxes/STM32_toolbox_1-1/scicos_blocks/src/c\convert.c ****                     {
 813:C:/Users/geoma/Desktop/Scilab/toolboxes/STM32_toolbox_1-1/scicos_blocks/src/c\convert.c ****                         y[i] = (SCSINT8_COP)(u[i]);
 3040              		.loc 1 813 0
 3041 12be C254     		strb	r2, [r0, r3]
 3042              	.L251:
 801:C:/Users/geoma/Desktop/Scilab/toolboxes/STM32_toolbox_1-1/scicos_blocks/src/c\convert.c ****                 {
 3043              		.loc 1 801 0 discriminator 2
 3044 12c0 0133     		adds	r3, r3, #1
 3045              	.LVL563:
 3046              	.L249:
 801:C:/Users/geoma/Desktop/Scilab/toolboxes/STM32_toolbox_1-1/scicos_blocks/src/c\convert.c ****                 {
 3047              		.loc 1 801 0 is_stmt 0 discriminator 1
 3048 12c2 0AFB0BF2 		mul	r2, r10, fp
 3049 12c6 9A42     		cmp	r2, r3
 3050 12c8 ECDC     		bgt	.L253
 3051 12ca 00F0C5BD 		b	.L1
 3052              	.LVL564:
 3053              	.L49:
 3054              	.LBE46:
 3055              	.LBB47:
 814:C:/Users/geoma/Desktop/Scilab/toolboxes/STM32_toolbox_1-1/scicos_blocks/src/c\convert.c ****                     }
 815:C:/Users/geoma/Desktop/Scilab/toolboxes/STM32_toolbox_1-1/scicos_blocks/src/c\convert.c ****                 }
 816:C:/Users/geoma/Desktop/Scilab/toolboxes/STM32_toolbox_1-1/scicos_blocks/src/c\convert.c ****                 break;
 817:C:/Users/geoma/Desktop/Scilab/toolboxes/STM32_toolbox_1-1/scicos_blocks/src/c\convert.c ****             }
 818:C:/Users/geoma/Desktop/Scilab/toolboxes/STM32_toolbox_1-1/scicos_blocks/src/c\convert.c ****             case 46:
 819:C:/Users/geoma/Desktop/Scilab/toolboxes/STM32_toolbox_1-1/scicos_blocks/src/c\convert.c ****             {
 820:C:/Users/geoma/Desktop/Scilab/toolboxes/STM32_toolbox_1-1/scicos_blocks/src/c\convert.c ****                 SCSINT32_COP *u = NULL;
 821:C:/Users/geoma/Desktop/Scilab/toolboxes/STM32_toolbox_1-1/scicos_blocks/src/c\convert.c ****                 SCSUINT32_COP *y = NULL;
 822:C:/Users/geoma/Desktop/Scilab/toolboxes/STM32_toolbox_1-1/scicos_blocks/src/c\convert.c ****                 u = Getint32InPortPtrs(block, 1);
 3056              		.loc 1 822 0 is_stmt 1
 3057 12ce 436C     		ldr	r3, [r0, #68]
 3058 12d0 1C68     		ldr	r4, [r3]
 3059              	.LVL565:
 823:C:/Users/geoma/Desktop/Scilab/toolboxes/STM32_toolbox_1-1/scicos_blocks/src/c\convert.c ****                 y = Getuint32OutPortPtrs(block, 1);
 3060              		.loc 1 823 0
 3061 12d2 036D     		ldr	r3, [r0, #80]
 3062 12d4 1968     		ldr	r1, [r3]
 3063              	.LVL566:
 824:C:/Users/geoma/Desktop/Scilab/toolboxes/STM32_toolbox_1-1/scicos_blocks/src/c\convert.c ****                 for (i = 0; i < m * n; i++)
 3064              		.loc 1 824 0
 3065 12d6 0023     		movs	r3, #0
 3066 12d8 0AE0     		b	.L254
 3067              	.LVL567:
 3068              	.L257:
 825:C:/Users/geoma/Desktop/Scilab/toolboxes/STM32_toolbox_1-1/scicos_blocks/src/c\convert.c ****                 {
 826:C:/Users/geoma/Desktop/Scilab/toolboxes/STM32_toolbox_1-1/scicos_blocks/src/c\convert.c ****                     if (u[i] < 0)
 3069              		.loc 1 826 0
 3070 12da 54F82320 		ldr	r2, [r4, r3, lsl #2]
 3071 12de 002A     		cmp	r2, #0
 3072 12e0 03DA     		bge	.L255
 827:C:/Users/geoma/Desktop/Scilab/toolboxes/STM32_toolbox_1-1/scicos_blocks/src/c\convert.c ****                     {
 828:C:/Users/geoma/Desktop/Scilab/toolboxes/STM32_toolbox_1-1/scicos_blocks/src/c\convert.c ****                         y[i] = 0;
 3073              		.loc 1 828 0
 3074 12e2 0022     		movs	r2, #0
 3075 12e4 41F82320 		str	r2, [r1, r3, lsl #2]
ARM GAS  C:\Users\geoma\AppData\Local\Temp\ccpZNVPJ.s 			page 71


 3076 12e8 01E0     		b	.L256
 3077              	.L255:
 829:C:/Users/geoma/Desktop/Scilab/toolboxes/STM32_toolbox_1-1/scicos_blocks/src/c\convert.c ****                     }
 830:C:/Users/geoma/Desktop/Scilab/toolboxes/STM32_toolbox_1-1/scicos_blocks/src/c\convert.c ****                     else
 831:C:/Users/geoma/Desktop/Scilab/toolboxes/STM32_toolbox_1-1/scicos_blocks/src/c\convert.c ****                     {
 832:C:/Users/geoma/Desktop/Scilab/toolboxes/STM32_toolbox_1-1/scicos_blocks/src/c\convert.c ****                         y[i] = (SCSUINT32_COP)(u[i]);
 3078              		.loc 1 832 0
 3079 12ea 41F82320 		str	r2, [r1, r3, lsl #2]
 3080              	.L256:
 824:C:/Users/geoma/Desktop/Scilab/toolboxes/STM32_toolbox_1-1/scicos_blocks/src/c\convert.c ****                 {
 3081              		.loc 1 824 0 discriminator 2
 3082 12ee 0133     		adds	r3, r3, #1
 3083              	.LVL568:
 3084              	.L254:
 824:C:/Users/geoma/Desktop/Scilab/toolboxes/STM32_toolbox_1-1/scicos_blocks/src/c\convert.c ****                 {
 3085              		.loc 1 824 0 is_stmt 0 discriminator 1
 3086 12f0 0AFB0BF2 		mul	r2, r10, fp
 3087 12f4 9A42     		cmp	r2, r3
 3088 12f6 F0DC     		bgt	.L257
 3089 12f8 00F0AEBD 		b	.L1
 3090              	.LVL569:
 3091              	.L50:
 3092              	.LBE47:
 3093              	.LBB48:
 833:C:/Users/geoma/Desktop/Scilab/toolboxes/STM32_toolbox_1-1/scicos_blocks/src/c\convert.c ****                     }
 834:C:/Users/geoma/Desktop/Scilab/toolboxes/STM32_toolbox_1-1/scicos_blocks/src/c\convert.c ****                 }
 835:C:/Users/geoma/Desktop/Scilab/toolboxes/STM32_toolbox_1-1/scicos_blocks/src/c\convert.c ****                 break;
 836:C:/Users/geoma/Desktop/Scilab/toolboxes/STM32_toolbox_1-1/scicos_blocks/src/c\convert.c ****             }
 837:C:/Users/geoma/Desktop/Scilab/toolboxes/STM32_toolbox_1-1/scicos_blocks/src/c\convert.c ****             case 47:
 838:C:/Users/geoma/Desktop/Scilab/toolboxes/STM32_toolbox_1-1/scicos_blocks/src/c\convert.c ****             {
 839:C:/Users/geoma/Desktop/Scilab/toolboxes/STM32_toolbox_1-1/scicos_blocks/src/c\convert.c ****                 SCSINT32_COP *u = NULL;
 840:C:/Users/geoma/Desktop/Scilab/toolboxes/STM32_toolbox_1-1/scicos_blocks/src/c\convert.c ****                 SCSUINT16_COP *y = NULL;
 841:C:/Users/geoma/Desktop/Scilab/toolboxes/STM32_toolbox_1-1/scicos_blocks/src/c\convert.c ****                 u = Getint32InPortPtrs(block, 1);
 3094              		.loc 1 841 0 is_stmt 1
 3095 12fc 436C     		ldr	r3, [r0, #68]
 3096 12fe 1C68     		ldr	r4, [r3]
 3097              	.LVL570:
 842:C:/Users/geoma/Desktop/Scilab/toolboxes/STM32_toolbox_1-1/scicos_blocks/src/c\convert.c ****                 y = Getuint16OutPortPtrs(block, 1);
 3098              		.loc 1 842 0
 3099 1300 036D     		ldr	r3, [r0, #80]
 3100 1302 1868     		ldr	r0, [r3]
 3101              	.LVL571:
 843:C:/Users/geoma/Desktop/Scilab/toolboxes/STM32_toolbox_1-1/scicos_blocks/src/c\convert.c ****                 k = pow(2, 16);
 844:C:/Users/geoma/Desktop/Scilab/toolboxes/STM32_toolbox_1-1/scicos_blocks/src/c\convert.c ****                 for (i = 0; i < m * n; i++)
 3102              		.loc 1 844 0
 3103 1304 0023     		movs	r3, #0
 3104 1306 12E0     		b	.L258
 3105              	.LVL572:
 3106              	.L262:
 845:C:/Users/geoma/Desktop/Scilab/toolboxes/STM32_toolbox_1-1/scicos_blocks/src/c\convert.c ****                 {
 846:C:/Users/geoma/Desktop/Scilab/toolboxes/STM32_toolbox_1-1/scicos_blocks/src/c\convert.c ****                     if (u[i] >= (SCSINT32_COP)(k))
 3107              		.loc 1 846 0
 3108 1308 54F82320 		ldr	r2, [r4, r3, lsl #2]
 3109 130c B2F5803F 		cmp	r2, #65536
 3110 1310 04DB     		blt	.L259
 847:C:/Users/geoma/Desktop/Scilab/toolboxes/STM32_toolbox_1-1/scicos_blocks/src/c\convert.c ****                     {
 848:C:/Users/geoma/Desktop/Scilab/toolboxes/STM32_toolbox_1-1/scicos_blocks/src/c\convert.c ****                         y[i] = (SCSUINT16_COP)(k - 1);
ARM GAS  C:\Users\geoma\AppData\Local\Temp\ccpZNVPJ.s 			page 72


 3111              		.loc 1 848 0
 3112 1312 4FF6FF72 		movw	r2, #65535
 3113 1316 20F81320 		strh	r2, [r0, r3, lsl #1]	@ movhi
 3114 131a 07E0     		b	.L260
 3115              	.L259:
 849:C:/Users/geoma/Desktop/Scilab/toolboxes/STM32_toolbox_1-1/scicos_blocks/src/c\convert.c ****                     }
 850:C:/Users/geoma/Desktop/Scilab/toolboxes/STM32_toolbox_1-1/scicos_blocks/src/c\convert.c ****                     else if (u[i] < 0)
 3116              		.loc 1 850 0
 3117 131c 002A     		cmp	r2, #0
 3118 131e 03DA     		bge	.L261
 851:C:/Users/geoma/Desktop/Scilab/toolboxes/STM32_toolbox_1-1/scicos_blocks/src/c\convert.c ****                     {
 852:C:/Users/geoma/Desktop/Scilab/toolboxes/STM32_toolbox_1-1/scicos_blocks/src/c\convert.c ****                         y[i] = 0;
 3119              		.loc 1 852 0
 3120 1320 0022     		movs	r2, #0
 3121 1322 20F81320 		strh	r2, [r0, r3, lsl #1]	@ movhi
 3122 1326 01E0     		b	.L260
 3123              	.L261:
 853:C:/Users/geoma/Desktop/Scilab/toolboxes/STM32_toolbox_1-1/scicos_blocks/src/c\convert.c ****                     }
 854:C:/Users/geoma/Desktop/Scilab/toolboxes/STM32_toolbox_1-1/scicos_blocks/src/c\convert.c ****                     else
 855:C:/Users/geoma/Desktop/Scilab/toolboxes/STM32_toolbox_1-1/scicos_blocks/src/c\convert.c ****                     {
 856:C:/Users/geoma/Desktop/Scilab/toolboxes/STM32_toolbox_1-1/scicos_blocks/src/c\convert.c ****                         y[i] = (SCSUINT16_COP)(u[i]);
 3124              		.loc 1 856 0
 3125 1328 20F81320 		strh	r2, [r0, r3, lsl #1]	@ movhi
 3126              	.L260:
 844:C:/Users/geoma/Desktop/Scilab/toolboxes/STM32_toolbox_1-1/scicos_blocks/src/c\convert.c ****                 {
 3127              		.loc 1 844 0 discriminator 2
 3128 132c 0133     		adds	r3, r3, #1
 3129              	.LVL573:
 3130              	.L258:
 844:C:/Users/geoma/Desktop/Scilab/toolboxes/STM32_toolbox_1-1/scicos_blocks/src/c\convert.c ****                 {
 3131              		.loc 1 844 0 is_stmt 0 discriminator 1
 3132 132e 0AFB0BF2 		mul	r2, r10, fp
 3133 1332 9A42     		cmp	r2, r3
 3134 1334 E8DC     		bgt	.L262
 3135 1336 00F08FBD 		b	.L1
 3136              	.LVL574:
 3137              	.L51:
 3138              	.LBE48:
 3139              	.LBB49:
 857:C:/Users/geoma/Desktop/Scilab/toolboxes/STM32_toolbox_1-1/scicos_blocks/src/c\convert.c ****                     }
 858:C:/Users/geoma/Desktop/Scilab/toolboxes/STM32_toolbox_1-1/scicos_blocks/src/c\convert.c ****                 }
 859:C:/Users/geoma/Desktop/Scilab/toolboxes/STM32_toolbox_1-1/scicos_blocks/src/c\convert.c ****                 break;
 860:C:/Users/geoma/Desktop/Scilab/toolboxes/STM32_toolbox_1-1/scicos_blocks/src/c\convert.c ****             }
 861:C:/Users/geoma/Desktop/Scilab/toolboxes/STM32_toolbox_1-1/scicos_blocks/src/c\convert.c ****             case 48:
 862:C:/Users/geoma/Desktop/Scilab/toolboxes/STM32_toolbox_1-1/scicos_blocks/src/c\convert.c ****             {
 863:C:/Users/geoma/Desktop/Scilab/toolboxes/STM32_toolbox_1-1/scicos_blocks/src/c\convert.c ****                 SCSINT32_COP *u = NULL;
 864:C:/Users/geoma/Desktop/Scilab/toolboxes/STM32_toolbox_1-1/scicos_blocks/src/c\convert.c ****                 SCSUINT8_COP *y = NULL;
 865:C:/Users/geoma/Desktop/Scilab/toolboxes/STM32_toolbox_1-1/scicos_blocks/src/c\convert.c ****                 u = Getint32InPortPtrs(block, 1);
 3140              		.loc 1 865 0 is_stmt 1
 3141 133a 436C     		ldr	r3, [r0, #68]
 3142 133c 1C68     		ldr	r4, [r3]
 3143              	.LVL575:
 866:C:/Users/geoma/Desktop/Scilab/toolboxes/STM32_toolbox_1-1/scicos_blocks/src/c\convert.c ****                 y = Getuint8OutPortPtrs(block, 1);
 3144              		.loc 1 866 0
 3145 133e 036D     		ldr	r3, [r0, #80]
 3146 1340 1868     		ldr	r0, [r3]
 3147              	.LVL576:
ARM GAS  C:\Users\geoma\AppData\Local\Temp\ccpZNVPJ.s 			page 73


 867:C:/Users/geoma/Desktop/Scilab/toolboxes/STM32_toolbox_1-1/scicos_blocks/src/c\convert.c ****                 k = pow(2, 8);
 868:C:/Users/geoma/Desktop/Scilab/toolboxes/STM32_toolbox_1-1/scicos_blocks/src/c\convert.c ****                 for (i = 0; i < m * n; i++)
 3148              		.loc 1 868 0
 3149 1342 0023     		movs	r3, #0
 3150 1344 0DE0     		b	.L263
 3151              	.LVL577:
 3152              	.L267:
 869:C:/Users/geoma/Desktop/Scilab/toolboxes/STM32_toolbox_1-1/scicos_blocks/src/c\convert.c ****                 {
 870:C:/Users/geoma/Desktop/Scilab/toolboxes/STM32_toolbox_1-1/scicos_blocks/src/c\convert.c ****                     if (u[i] >= (SCSINT32_COP)k)
 3153              		.loc 1 870 0
 3154 1346 54F82320 		ldr	r2, [r4, r3, lsl #2]
 3155 134a FF2A     		cmp	r2, #255
 3156 134c 02DD     		ble	.L264
 871:C:/Users/geoma/Desktop/Scilab/toolboxes/STM32_toolbox_1-1/scicos_blocks/src/c\convert.c ****                     {
 872:C:/Users/geoma/Desktop/Scilab/toolboxes/STM32_toolbox_1-1/scicos_blocks/src/c\convert.c ****                         y[i] = (SCSUINT8_COP)(k - 1);
 3157              		.loc 1 872 0
 3158 134e FF22     		movs	r2, #255
 3159 1350 C254     		strb	r2, [r0, r3]
 3160 1352 05E0     		b	.L265
 3161              	.L264:
 873:C:/Users/geoma/Desktop/Scilab/toolboxes/STM32_toolbox_1-1/scicos_blocks/src/c\convert.c ****                     }
 874:C:/Users/geoma/Desktop/Scilab/toolboxes/STM32_toolbox_1-1/scicos_blocks/src/c\convert.c ****                     else if (u[i] < 0)
 3162              		.loc 1 874 0
 3163 1354 002A     		cmp	r2, #0
 3164 1356 02DA     		bge	.L266
 875:C:/Users/geoma/Desktop/Scilab/toolboxes/STM32_toolbox_1-1/scicos_blocks/src/c\convert.c ****                     {
 876:C:/Users/geoma/Desktop/Scilab/toolboxes/STM32_toolbox_1-1/scicos_blocks/src/c\convert.c ****                         y[i] = 0;
 3165              		.loc 1 876 0
 3166 1358 0022     		movs	r2, #0
 3167 135a C254     		strb	r2, [r0, r3]
 3168 135c 00E0     		b	.L265
 3169              	.L266:
 877:C:/Users/geoma/Desktop/Scilab/toolboxes/STM32_toolbox_1-1/scicos_blocks/src/c\convert.c ****                     }
 878:C:/Users/geoma/Desktop/Scilab/toolboxes/STM32_toolbox_1-1/scicos_blocks/src/c\convert.c ****                     else
 879:C:/Users/geoma/Desktop/Scilab/toolboxes/STM32_toolbox_1-1/scicos_blocks/src/c\convert.c ****                     {
 880:C:/Users/geoma/Desktop/Scilab/toolboxes/STM32_toolbox_1-1/scicos_blocks/src/c\convert.c ****                         y[i] = (SCSUINT8_COP)(u[i]);
 3170              		.loc 1 880 0
 3171 135e C254     		strb	r2, [r0, r3]
 3172              	.L265:
 868:C:/Users/geoma/Desktop/Scilab/toolboxes/STM32_toolbox_1-1/scicos_blocks/src/c\convert.c ****                 {
 3173              		.loc 1 868 0 discriminator 2
 3174 1360 0133     		adds	r3, r3, #1
 3175              	.LVL578:
 3176              	.L263:
 868:C:/Users/geoma/Desktop/Scilab/toolboxes/STM32_toolbox_1-1/scicos_blocks/src/c\convert.c ****                 {
 3177              		.loc 1 868 0 is_stmt 0 discriminator 1
 3178 1362 0AFB0BF2 		mul	r2, r10, fp
 3179 1366 9A42     		cmp	r2, r3
 3180 1368 EDDC     		bgt	.L267
 3181 136a 00F075BD 		b	.L1
 3182              	.LVL579:
 3183              	.L52:
 3184              	.LBE49:
 3185              	.LBB50:
 881:C:/Users/geoma/Desktop/Scilab/toolboxes/STM32_toolbox_1-1/scicos_blocks/src/c\convert.c ****                     }
 882:C:/Users/geoma/Desktop/Scilab/toolboxes/STM32_toolbox_1-1/scicos_blocks/src/c\convert.c ****                 }
 883:C:/Users/geoma/Desktop/Scilab/toolboxes/STM32_toolbox_1-1/scicos_blocks/src/c\convert.c ****                 break;
ARM GAS  C:\Users\geoma\AppData\Local\Temp\ccpZNVPJ.s 			page 74


 884:C:/Users/geoma/Desktop/Scilab/toolboxes/STM32_toolbox_1-1/scicos_blocks/src/c\convert.c ****             }
 885:C:/Users/geoma/Desktop/Scilab/toolboxes/STM32_toolbox_1-1/scicos_blocks/src/c\convert.c ****             case 49:
 886:C:/Users/geoma/Desktop/Scilab/toolboxes/STM32_toolbox_1-1/scicos_blocks/src/c\convert.c ****             {
 887:C:/Users/geoma/Desktop/Scilab/toolboxes/STM32_toolbox_1-1/scicos_blocks/src/c\convert.c ****                 SCSINT16_COP *u = NULL;
 888:C:/Users/geoma/Desktop/Scilab/toolboxes/STM32_toolbox_1-1/scicos_blocks/src/c\convert.c ****                 SCSINT8_COP *y = NULL;
 889:C:/Users/geoma/Desktop/Scilab/toolboxes/STM32_toolbox_1-1/scicos_blocks/src/c\convert.c ****                 u = Getint16InPortPtrs(block, 1);
 3186              		.loc 1 889 0 is_stmt 1
 3187 136e 436C     		ldr	r3, [r0, #68]
 3188 1370 1C68     		ldr	r4, [r3]
 3189              	.LVL580:
 890:C:/Users/geoma/Desktop/Scilab/toolboxes/STM32_toolbox_1-1/scicos_blocks/src/c\convert.c ****                 y = Getint8OutPortPtrs(block, 1);
 3190              		.loc 1 890 0
 3191 1372 036D     		ldr	r3, [r0, #80]
 3192 1374 1D68     		ldr	r5, [r3]
 3193              	.LVL581:
 891:C:/Users/geoma/Desktop/Scilab/toolboxes/STM32_toolbox_1-1/scicos_blocks/src/c\convert.c ****                 k = pow(2, 8);
 892:C:/Users/geoma/Desktop/Scilab/toolboxes/STM32_toolbox_1-1/scicos_blocks/src/c\convert.c ****                 for (i = 0; i < m * n; i++)
 3194              		.loc 1 892 0
 3195 1376 0023     		movs	r3, #0
 3196 1378 10E0     		b	.L268
 3197              	.LVL582:
 3198              	.L272:
 893:C:/Users/geoma/Desktop/Scilab/toolboxes/STM32_toolbox_1-1/scicos_blocks/src/c\convert.c ****                 {
 894:C:/Users/geoma/Desktop/Scilab/toolboxes/STM32_toolbox_1-1/scicos_blocks/src/c\convert.c ****                     if (u[i] > (SCSINT16_COP)(k / 2 - 1))
 3199              		.loc 1 894 0
 3200 137a 34F81320 		ldrh	r2, [r4, r3, lsl #1]
 3201 137e 11B2     		sxth	r1, r2
 3202 1380 7F29     		cmp	r1, #127
 3203 1382 02DD     		ble	.L269
 895:C:/Users/geoma/Desktop/Scilab/toolboxes/STM32_toolbox_1-1/scicos_blocks/src/c\convert.c ****                     {
 896:C:/Users/geoma/Desktop/Scilab/toolboxes/STM32_toolbox_1-1/scicos_blocks/src/c\convert.c ****                         y[i] = (SCSINT8_COP)(k / 2 - 1);
 3204              		.loc 1 896 0
 3205 1384 7F22     		movs	r2, #127
 3206 1386 EA54     		strb	r2, [r5, r3]
 3207 1388 07E0     		b	.L270
 3208              	.L269:
 897:C:/Users/geoma/Desktop/Scilab/toolboxes/STM32_toolbox_1-1/scicos_blocks/src/c\convert.c ****                     }
 898:C:/Users/geoma/Desktop/Scilab/toolboxes/STM32_toolbox_1-1/scicos_blocks/src/c\convert.c ****                     else if (u[i] < -(SCSINT16_COP)(k / 2))
 3209              		.loc 1 898 0
 3210 138a 11B2     		sxth	r1, r2
 3211 138c 11F1800F 		cmn	r1, #128
 3212 1390 02DA     		bge	.L271
 899:C:/Users/geoma/Desktop/Scilab/toolboxes/STM32_toolbox_1-1/scicos_blocks/src/c\convert.c ****                     {
 900:C:/Users/geoma/Desktop/Scilab/toolboxes/STM32_toolbox_1-1/scicos_blocks/src/c\convert.c ****                         y[i] = -(SCSINT8_COP)(k / 2);
 3213              		.loc 1 900 0
 3214 1392 8022     		movs	r2, #128
 3215 1394 EA54     		strb	r2, [r5, r3]
 3216 1396 00E0     		b	.L270
 3217              	.L271:
 901:C:/Users/geoma/Desktop/Scilab/toolboxes/STM32_toolbox_1-1/scicos_blocks/src/c\convert.c ****                     }
 902:C:/Users/geoma/Desktop/Scilab/toolboxes/STM32_toolbox_1-1/scicos_blocks/src/c\convert.c ****                     else
 903:C:/Users/geoma/Desktop/Scilab/toolboxes/STM32_toolbox_1-1/scicos_blocks/src/c\convert.c ****                     {
 904:C:/Users/geoma/Desktop/Scilab/toolboxes/STM32_toolbox_1-1/scicos_blocks/src/c\convert.c ****                         y[i] = (SCSINT8_COP)(u[i]);
 3218              		.loc 1 904 0
 3219 1398 EA54     		strb	r2, [r5, r3]
 3220              	.L270:
 892:C:/Users/geoma/Desktop/Scilab/toolboxes/STM32_toolbox_1-1/scicos_blocks/src/c\convert.c ****                 {
ARM GAS  C:\Users\geoma\AppData\Local\Temp\ccpZNVPJ.s 			page 75


 3221              		.loc 1 892 0 discriminator 2
 3222 139a 0133     		adds	r3, r3, #1
 3223              	.LVL583:
 3224              	.L268:
 892:C:/Users/geoma/Desktop/Scilab/toolboxes/STM32_toolbox_1-1/scicos_blocks/src/c\convert.c ****                 {
 3225              		.loc 1 892 0 is_stmt 0 discriminator 1
 3226 139c 0AFB0BF2 		mul	r2, r10, fp
 3227 13a0 9A42     		cmp	r2, r3
 3228 13a2 EADC     		bgt	.L272
 3229 13a4 00F058BD 		b	.L1
 3230              	.LVL584:
 3231              	.L53:
 3232              	.LBE50:
 3233              	.LBB51:
 905:C:/Users/geoma/Desktop/Scilab/toolboxes/STM32_toolbox_1-1/scicos_blocks/src/c\convert.c ****                     }
 906:C:/Users/geoma/Desktop/Scilab/toolboxes/STM32_toolbox_1-1/scicos_blocks/src/c\convert.c ****                 }
 907:C:/Users/geoma/Desktop/Scilab/toolboxes/STM32_toolbox_1-1/scicos_blocks/src/c\convert.c ****                 break;
 908:C:/Users/geoma/Desktop/Scilab/toolboxes/STM32_toolbox_1-1/scicos_blocks/src/c\convert.c ****             }
 909:C:/Users/geoma/Desktop/Scilab/toolboxes/STM32_toolbox_1-1/scicos_blocks/src/c\convert.c ****             case 50:
 910:C:/Users/geoma/Desktop/Scilab/toolboxes/STM32_toolbox_1-1/scicos_blocks/src/c\convert.c ****             {
 911:C:/Users/geoma/Desktop/Scilab/toolboxes/STM32_toolbox_1-1/scicos_blocks/src/c\convert.c ****                 SCSINT16_COP *u = NULL;
 912:C:/Users/geoma/Desktop/Scilab/toolboxes/STM32_toolbox_1-1/scicos_blocks/src/c\convert.c ****                 SCSUINT32_COP *y = NULL;
 913:C:/Users/geoma/Desktop/Scilab/toolboxes/STM32_toolbox_1-1/scicos_blocks/src/c\convert.c ****                 u = Getint16InPortPtrs(block, 1);
 3234              		.loc 1 913 0 is_stmt 1
 3235 13a8 436C     		ldr	r3, [r0, #68]
 3236 13aa 1C68     		ldr	r4, [r3]
 3237              	.LVL585:
 914:C:/Users/geoma/Desktop/Scilab/toolboxes/STM32_toolbox_1-1/scicos_blocks/src/c\convert.c ****                 y = Getuint32OutPortPtrs(block, 1);
 3238              		.loc 1 914 0
 3239 13ac 036D     		ldr	r3, [r0, #80]
 3240 13ae 1968     		ldr	r1, [r3]
 3241              	.LVL586:
 915:C:/Users/geoma/Desktop/Scilab/toolboxes/STM32_toolbox_1-1/scicos_blocks/src/c\convert.c ****                 for (i = 0; i < m * n; i++)
 3242              		.loc 1 915 0
 3243 13b0 0023     		movs	r3, #0
 3244 13b2 0CE0     		b	.L273
 3245              	.LVL587:
 3246              	.L276:
 916:C:/Users/geoma/Desktop/Scilab/toolboxes/STM32_toolbox_1-1/scicos_blocks/src/c\convert.c ****                 {
 917:C:/Users/geoma/Desktop/Scilab/toolboxes/STM32_toolbox_1-1/scicos_blocks/src/c\convert.c ****                     if (u[i] < 0)
 3247              		.loc 1 917 0
 3248 13b4 34F81320 		ldrh	r2, [r4, r3, lsl #1]
 3249 13b8 12F4004F 		tst	r2, #32768
 3250 13bc 03D0     		beq	.L274
 918:C:/Users/geoma/Desktop/Scilab/toolboxes/STM32_toolbox_1-1/scicos_blocks/src/c\convert.c ****                     {
 919:C:/Users/geoma/Desktop/Scilab/toolboxes/STM32_toolbox_1-1/scicos_blocks/src/c\convert.c ****                         y[i] = 0;
 3251              		.loc 1 919 0
 3252 13be 0022     		movs	r2, #0
 3253 13c0 41F82320 		str	r2, [r1, r3, lsl #2]
 3254 13c4 02E0     		b	.L275
 3255              	.L274:
 920:C:/Users/geoma/Desktop/Scilab/toolboxes/STM32_toolbox_1-1/scicos_blocks/src/c\convert.c ****                     }
 921:C:/Users/geoma/Desktop/Scilab/toolboxes/STM32_toolbox_1-1/scicos_blocks/src/c\convert.c ****                     else
 922:C:/Users/geoma/Desktop/Scilab/toolboxes/STM32_toolbox_1-1/scicos_blocks/src/c\convert.c ****                     {
 923:C:/Users/geoma/Desktop/Scilab/toolboxes/STM32_toolbox_1-1/scicos_blocks/src/c\convert.c ****                         y[i] = (SCSUINT32_COP)u[i];
 3256              		.loc 1 923 0
 3257 13c6 12B2     		sxth	r2, r2
ARM GAS  C:\Users\geoma\AppData\Local\Temp\ccpZNVPJ.s 			page 76


 3258 13c8 41F82320 		str	r2, [r1, r3, lsl #2]
 3259              	.L275:
 915:C:/Users/geoma/Desktop/Scilab/toolboxes/STM32_toolbox_1-1/scicos_blocks/src/c\convert.c ****                 {
 3260              		.loc 1 915 0 discriminator 2
 3261 13cc 0133     		adds	r3, r3, #1
 3262              	.LVL588:
 3263              	.L273:
 915:C:/Users/geoma/Desktop/Scilab/toolboxes/STM32_toolbox_1-1/scicos_blocks/src/c\convert.c ****                 {
 3264              		.loc 1 915 0 is_stmt 0 discriminator 1
 3265 13ce 0AFB0BF2 		mul	r2, r10, fp
 3266 13d2 9A42     		cmp	r2, r3
 3267 13d4 EEDC     		bgt	.L276
 3268 13d6 00F03FBD 		b	.L1
 3269              	.LVL589:
 3270              	.L54:
 3271              	.LBE51:
 3272              	.LBB52:
 924:C:/Users/geoma/Desktop/Scilab/toolboxes/STM32_toolbox_1-1/scicos_blocks/src/c\convert.c ****                     }
 925:C:/Users/geoma/Desktop/Scilab/toolboxes/STM32_toolbox_1-1/scicos_blocks/src/c\convert.c ****                 }
 926:C:/Users/geoma/Desktop/Scilab/toolboxes/STM32_toolbox_1-1/scicos_blocks/src/c\convert.c ****                 break;
 927:C:/Users/geoma/Desktop/Scilab/toolboxes/STM32_toolbox_1-1/scicos_blocks/src/c\convert.c ****             }
 928:C:/Users/geoma/Desktop/Scilab/toolboxes/STM32_toolbox_1-1/scicos_blocks/src/c\convert.c ****             case 51:
 929:C:/Users/geoma/Desktop/Scilab/toolboxes/STM32_toolbox_1-1/scicos_blocks/src/c\convert.c ****             {
 930:C:/Users/geoma/Desktop/Scilab/toolboxes/STM32_toolbox_1-1/scicos_blocks/src/c\convert.c ****                 SCSINT16_COP *u = NULL;
 931:C:/Users/geoma/Desktop/Scilab/toolboxes/STM32_toolbox_1-1/scicos_blocks/src/c\convert.c ****                 SCSUINT16_COP *y = NULL;
 932:C:/Users/geoma/Desktop/Scilab/toolboxes/STM32_toolbox_1-1/scicos_blocks/src/c\convert.c ****                 u = Getint16InPortPtrs(block, 1);
 3273              		.loc 1 932 0 is_stmt 1
 3274 13da 436C     		ldr	r3, [r0, #68]
 3275 13dc 1C68     		ldr	r4, [r3]
 3276              	.LVL590:
 933:C:/Users/geoma/Desktop/Scilab/toolboxes/STM32_toolbox_1-1/scicos_blocks/src/c\convert.c ****                 y = Getuint16OutPortPtrs(block, 1);
 3277              		.loc 1 933 0
 3278 13de 036D     		ldr	r3, [r0, #80]
 3279 13e0 1968     		ldr	r1, [r3]
 3280              	.LVL591:
 934:C:/Users/geoma/Desktop/Scilab/toolboxes/STM32_toolbox_1-1/scicos_blocks/src/c\convert.c ****                 for (i = 0; i < m * n; i++)
 3281              		.loc 1 934 0
 3282 13e2 0023     		movs	r3, #0
 3283 13e4 0BE0     		b	.L277
 3284              	.LVL592:
 3285              	.L280:
 935:C:/Users/geoma/Desktop/Scilab/toolboxes/STM32_toolbox_1-1/scicos_blocks/src/c\convert.c ****                 {
 936:C:/Users/geoma/Desktop/Scilab/toolboxes/STM32_toolbox_1-1/scicos_blocks/src/c\convert.c ****                     if (u[i] < 0)
 3286              		.loc 1 936 0
 3287 13e6 34F81320 		ldrh	r2, [r4, r3, lsl #1]
 3288 13ea 12F4004F 		tst	r2, #32768
 3289 13ee 03D0     		beq	.L278
 937:C:/Users/geoma/Desktop/Scilab/toolboxes/STM32_toolbox_1-1/scicos_blocks/src/c\convert.c ****                     {
 938:C:/Users/geoma/Desktop/Scilab/toolboxes/STM32_toolbox_1-1/scicos_blocks/src/c\convert.c ****                         y[i] = 0;
 3290              		.loc 1 938 0
 3291 13f0 0022     		movs	r2, #0
 3292 13f2 21F81320 		strh	r2, [r1, r3, lsl #1]	@ movhi
 3293 13f6 01E0     		b	.L279
 3294              	.L278:
 939:C:/Users/geoma/Desktop/Scilab/toolboxes/STM32_toolbox_1-1/scicos_blocks/src/c\convert.c ****                     }
 940:C:/Users/geoma/Desktop/Scilab/toolboxes/STM32_toolbox_1-1/scicos_blocks/src/c\convert.c ****                     else
 941:C:/Users/geoma/Desktop/Scilab/toolboxes/STM32_toolbox_1-1/scicos_blocks/src/c\convert.c ****                     {
ARM GAS  C:\Users\geoma\AppData\Local\Temp\ccpZNVPJ.s 			page 77


 942:C:/Users/geoma/Desktop/Scilab/toolboxes/STM32_toolbox_1-1/scicos_blocks/src/c\convert.c ****                         y[i] = (SCSUINT16_COP)(u[i]);
 3295              		.loc 1 942 0
 3296 13f8 21F81320 		strh	r2, [r1, r3, lsl #1]	@ movhi
 3297              	.L279:
 934:C:/Users/geoma/Desktop/Scilab/toolboxes/STM32_toolbox_1-1/scicos_blocks/src/c\convert.c ****                 {
 3298              		.loc 1 934 0 discriminator 2
 3299 13fc 0133     		adds	r3, r3, #1
 3300              	.LVL593:
 3301              	.L277:
 934:C:/Users/geoma/Desktop/Scilab/toolboxes/STM32_toolbox_1-1/scicos_blocks/src/c\convert.c ****                 {
 3302              		.loc 1 934 0 is_stmt 0 discriminator 1
 3303 13fe 0AFB0BF2 		mul	r2, r10, fp
 3304 1402 9A42     		cmp	r2, r3
 3305 1404 EFDC     		bgt	.L280
 3306 1406 00F027BD 		b	.L1
 3307              	.LVL594:
 3308              	.L55:
 3309              	.LBE52:
 3310              	.LBB53:
 943:C:/Users/geoma/Desktop/Scilab/toolboxes/STM32_toolbox_1-1/scicos_blocks/src/c\convert.c ****                     }
 944:C:/Users/geoma/Desktop/Scilab/toolboxes/STM32_toolbox_1-1/scicos_blocks/src/c\convert.c ****                 }
 945:C:/Users/geoma/Desktop/Scilab/toolboxes/STM32_toolbox_1-1/scicos_blocks/src/c\convert.c ****                 break;
 946:C:/Users/geoma/Desktop/Scilab/toolboxes/STM32_toolbox_1-1/scicos_blocks/src/c\convert.c ****             }
 947:C:/Users/geoma/Desktop/Scilab/toolboxes/STM32_toolbox_1-1/scicos_blocks/src/c\convert.c ****             case 52:
 948:C:/Users/geoma/Desktop/Scilab/toolboxes/STM32_toolbox_1-1/scicos_blocks/src/c\convert.c ****             {
 949:C:/Users/geoma/Desktop/Scilab/toolboxes/STM32_toolbox_1-1/scicos_blocks/src/c\convert.c ****                 SCSINT16_COP *u = NULL;
 950:C:/Users/geoma/Desktop/Scilab/toolboxes/STM32_toolbox_1-1/scicos_blocks/src/c\convert.c ****                 SCSUINT8_COP *y = NULL;
 951:C:/Users/geoma/Desktop/Scilab/toolboxes/STM32_toolbox_1-1/scicos_blocks/src/c\convert.c ****                 u = Getint16InPortPtrs(block, 1);
 3311              		.loc 1 951 0 is_stmt 1
 3312 140a 436C     		ldr	r3, [r0, #68]
 3313 140c 1C68     		ldr	r4, [r3]
 3314              	.LVL595:
 952:C:/Users/geoma/Desktop/Scilab/toolboxes/STM32_toolbox_1-1/scicos_blocks/src/c\convert.c ****                 y = Getuint8OutPortPtrs(block, 1);
 3315              		.loc 1 952 0
 3316 140e 036D     		ldr	r3, [r0, #80]
 3317 1410 1D68     		ldr	r5, [r3]
 3318              	.LVL596:
 953:C:/Users/geoma/Desktop/Scilab/toolboxes/STM32_toolbox_1-1/scicos_blocks/src/c\convert.c ****                 k = pow(2, 8);
 954:C:/Users/geoma/Desktop/Scilab/toolboxes/STM32_toolbox_1-1/scicos_blocks/src/c\convert.c ****                 for (i = 0; i < m * n; i++)
 3319              		.loc 1 954 0
 3320 1412 0023     		movs	r3, #0
 3321 1414 0FE0     		b	.L281
 3322              	.LVL597:
 3323              	.L285:
 955:C:/Users/geoma/Desktop/Scilab/toolboxes/STM32_toolbox_1-1/scicos_blocks/src/c\convert.c ****                 {
 956:C:/Users/geoma/Desktop/Scilab/toolboxes/STM32_toolbox_1-1/scicos_blocks/src/c\convert.c ****                     if (u[i] >= (SCSINT16_COP)k)
 3324              		.loc 1 956 0
 3325 1416 34F81320 		ldrh	r2, [r4, r3, lsl #1]
 3326 141a 11B2     		sxth	r1, r2
 3327 141c FF29     		cmp	r1, #255
 3328 141e 02DD     		ble	.L282
 957:C:/Users/geoma/Desktop/Scilab/toolboxes/STM32_toolbox_1-1/scicos_blocks/src/c\convert.c ****                     {
 958:C:/Users/geoma/Desktop/Scilab/toolboxes/STM32_toolbox_1-1/scicos_blocks/src/c\convert.c ****                         y[i] = (SCSUINT8_COP)(k - 1);
 3329              		.loc 1 958 0
 3330 1420 FF22     		movs	r2, #255
 3331 1422 EA54     		strb	r2, [r5, r3]
 3332 1424 06E0     		b	.L283
ARM GAS  C:\Users\geoma\AppData\Local\Temp\ccpZNVPJ.s 			page 78


 3333              	.L282:
 959:C:/Users/geoma/Desktop/Scilab/toolboxes/STM32_toolbox_1-1/scicos_blocks/src/c\convert.c ****                     }
 960:C:/Users/geoma/Desktop/Scilab/toolboxes/STM32_toolbox_1-1/scicos_blocks/src/c\convert.c ****                     else if (u[i] < 0)
 3334              		.loc 1 960 0
 3335 1426 12F4004F 		tst	r2, #32768
 3336 142a 02D0     		beq	.L284
 961:C:/Users/geoma/Desktop/Scilab/toolboxes/STM32_toolbox_1-1/scicos_blocks/src/c\convert.c ****                     {
 962:C:/Users/geoma/Desktop/Scilab/toolboxes/STM32_toolbox_1-1/scicos_blocks/src/c\convert.c ****                         y[i] = 0;
 3337              		.loc 1 962 0
 3338 142c 0022     		movs	r2, #0
 3339 142e EA54     		strb	r2, [r5, r3]
 3340 1430 00E0     		b	.L283
 3341              	.L284:
 963:C:/Users/geoma/Desktop/Scilab/toolboxes/STM32_toolbox_1-1/scicos_blocks/src/c\convert.c ****                     }
 964:C:/Users/geoma/Desktop/Scilab/toolboxes/STM32_toolbox_1-1/scicos_blocks/src/c\convert.c ****                     else
 965:C:/Users/geoma/Desktop/Scilab/toolboxes/STM32_toolbox_1-1/scicos_blocks/src/c\convert.c ****                     {
 966:C:/Users/geoma/Desktop/Scilab/toolboxes/STM32_toolbox_1-1/scicos_blocks/src/c\convert.c ****                         y[i] = (SCSUINT8_COP)(u[i]);
 3342              		.loc 1 966 0
 3343 1432 EA54     		strb	r2, [r5, r3]
 3344              	.L283:
 954:C:/Users/geoma/Desktop/Scilab/toolboxes/STM32_toolbox_1-1/scicos_blocks/src/c\convert.c ****                 {
 3345              		.loc 1 954 0 discriminator 2
 3346 1434 0133     		adds	r3, r3, #1
 3347              	.LVL598:
 3348              	.L281:
 954:C:/Users/geoma/Desktop/Scilab/toolboxes/STM32_toolbox_1-1/scicos_blocks/src/c\convert.c ****                 {
 3349              		.loc 1 954 0 is_stmt 0 discriminator 1
 3350 1436 0AFB0BF2 		mul	r2, r10, fp
 3351 143a 9A42     		cmp	r2, r3
 3352 143c EBDC     		bgt	.L285
 3353 143e 00F00BBD 		b	.L1
 3354              	.LVL599:
 3355              	.L56:
 3356              	.LBE53:
 3357              	.LBB54:
 967:C:/Users/geoma/Desktop/Scilab/toolboxes/STM32_toolbox_1-1/scicos_blocks/src/c\convert.c ****                     }
 968:C:/Users/geoma/Desktop/Scilab/toolboxes/STM32_toolbox_1-1/scicos_blocks/src/c\convert.c ****                 }
 969:C:/Users/geoma/Desktop/Scilab/toolboxes/STM32_toolbox_1-1/scicos_blocks/src/c\convert.c ****                 break;
 970:C:/Users/geoma/Desktop/Scilab/toolboxes/STM32_toolbox_1-1/scicos_blocks/src/c\convert.c ****             }
 971:C:/Users/geoma/Desktop/Scilab/toolboxes/STM32_toolbox_1-1/scicos_blocks/src/c\convert.c ****             case 53:
 972:C:/Users/geoma/Desktop/Scilab/toolboxes/STM32_toolbox_1-1/scicos_blocks/src/c\convert.c ****             {
 973:C:/Users/geoma/Desktop/Scilab/toolboxes/STM32_toolbox_1-1/scicos_blocks/src/c\convert.c ****                 SCSINT8_COP *u = NULL;
 974:C:/Users/geoma/Desktop/Scilab/toolboxes/STM32_toolbox_1-1/scicos_blocks/src/c\convert.c ****                 SCSUINT32_COP *y = NULL;
 975:C:/Users/geoma/Desktop/Scilab/toolboxes/STM32_toolbox_1-1/scicos_blocks/src/c\convert.c ****                 u = Getint8InPortPtrs(block, 1);
 3358              		.loc 1 975 0 is_stmt 1
 3359 1442 436C     		ldr	r3, [r0, #68]
 3360 1444 1C68     		ldr	r4, [r3]
 3361              	.LVL600:
 976:C:/Users/geoma/Desktop/Scilab/toolboxes/STM32_toolbox_1-1/scicos_blocks/src/c\convert.c ****                 y = Getuint32OutPortPtrs(block, 1);
 3362              		.loc 1 976 0
 3363 1446 036D     		ldr	r3, [r0, #80]
 3364 1448 1968     		ldr	r1, [r3]
 3365              	.LVL601:
 977:C:/Users/geoma/Desktop/Scilab/toolboxes/STM32_toolbox_1-1/scicos_blocks/src/c\convert.c ****                 for (i = 0; i < m * n; i++)
 3366              		.loc 1 977 0
 3367 144a 0023     		movs	r3, #0
 3368 144c 03E0     		b	.L286
ARM GAS  C:\Users\geoma\AppData\Local\Temp\ccpZNVPJ.s 			page 79


 3369              	.LVL602:
 3370              	.L287:
 978:C:/Users/geoma/Desktop/Scilab/toolboxes/STM32_toolbox_1-1/scicos_blocks/src/c\convert.c ****                 {
 979:C:/Users/geoma/Desktop/Scilab/toolboxes/STM32_toolbox_1-1/scicos_blocks/src/c\convert.c ****                     if (u[i] < 0)
 980:C:/Users/geoma/Desktop/Scilab/toolboxes/STM32_toolbox_1-1/scicos_blocks/src/c\convert.c **** 										{	
 981:C:/Users/geoma/Desktop/Scilab/toolboxes/STM32_toolbox_1-1/scicos_blocks/src/c\convert.c ****                         y[i] = 0;
 982:C:/Users/geoma/Desktop/Scilab/toolboxes/STM32_toolbox_1-1/scicos_blocks/src/c\convert.c ****                     }
 983:C:/Users/geoma/Desktop/Scilab/toolboxes/STM32_toolbox_1-1/scicos_blocks/src/c\convert.c ****                     else
 984:C:/Users/geoma/Desktop/Scilab/toolboxes/STM32_toolbox_1-1/scicos_blocks/src/c\convert.c ****                     {
 985:C:/Users/geoma/Desktop/Scilab/toolboxes/STM32_toolbox_1-1/scicos_blocks/src/c\convert.c ****                         y[i] = (SCSUINT32_COP)u[i];
 3371              		.loc 1 985 0
 3372 144e E25C     		ldrb	r2, [r4, r3]	@ zero_extendqisi2
 3373 1450 41F82320 		str	r2, [r1, r3, lsl #2]
 977:C:/Users/geoma/Desktop/Scilab/toolboxes/STM32_toolbox_1-1/scicos_blocks/src/c\convert.c ****                 for (i = 0; i < m * n; i++)
 3374              		.loc 1 977 0
 3375 1454 0133     		adds	r3, r3, #1
 3376              	.LVL603:
 3377              	.L286:
 977:C:/Users/geoma/Desktop/Scilab/toolboxes/STM32_toolbox_1-1/scicos_blocks/src/c\convert.c ****                 for (i = 0; i < m * n; i++)
 3378              		.loc 1 977 0 is_stmt 0 discriminator 1
 3379 1456 0AFB0BF2 		mul	r2, r10, fp
 3380 145a 9A42     		cmp	r2, r3
 3381 145c F7DC     		bgt	.L287
 3382 145e 00F0FBBC 		b	.L1
 3383              	.LVL604:
 3384              	.L57:
 3385              	.LBE54:
 3386              	.LBB55:
 986:C:/Users/geoma/Desktop/Scilab/toolboxes/STM32_toolbox_1-1/scicos_blocks/src/c\convert.c ****                     }
 987:C:/Users/geoma/Desktop/Scilab/toolboxes/STM32_toolbox_1-1/scicos_blocks/src/c\convert.c ****                 }
 988:C:/Users/geoma/Desktop/Scilab/toolboxes/STM32_toolbox_1-1/scicos_blocks/src/c\convert.c ****                 break;
 989:C:/Users/geoma/Desktop/Scilab/toolboxes/STM32_toolbox_1-1/scicos_blocks/src/c\convert.c ****             }
 990:C:/Users/geoma/Desktop/Scilab/toolboxes/STM32_toolbox_1-1/scicos_blocks/src/c\convert.c ****             case 54:
 991:C:/Users/geoma/Desktop/Scilab/toolboxes/STM32_toolbox_1-1/scicos_blocks/src/c\convert.c ****             {
 992:C:/Users/geoma/Desktop/Scilab/toolboxes/STM32_toolbox_1-1/scicos_blocks/src/c\convert.c ****                 SCSINT8_COP *u = NULL;
 993:C:/Users/geoma/Desktop/Scilab/toolboxes/STM32_toolbox_1-1/scicos_blocks/src/c\convert.c ****                 SCSUINT16_COP *y = NULL;
 994:C:/Users/geoma/Desktop/Scilab/toolboxes/STM32_toolbox_1-1/scicos_blocks/src/c\convert.c ****                 u = Getint8InPortPtrs(block, 1);
 3387              		.loc 1 994 0 is_stmt 1
 3388 1462 436C     		ldr	r3, [r0, #68]
 3389 1464 1C68     		ldr	r4, [r3]
 3390              	.LVL605:
 995:C:/Users/geoma/Desktop/Scilab/toolboxes/STM32_toolbox_1-1/scicos_blocks/src/c\convert.c ****                 y = Getuint16OutPortPtrs(block, 1);
 3391              		.loc 1 995 0
 3392 1466 036D     		ldr	r3, [r0, #80]
 3393 1468 1968     		ldr	r1, [r3]
 3394              	.LVL606:
 996:C:/Users/geoma/Desktop/Scilab/toolboxes/STM32_toolbox_1-1/scicos_blocks/src/c\convert.c ****                 for (i = 0; i < m * n; i++)
 3395              		.loc 1 996 0
 3396 146a 0023     		movs	r3, #0
 3397 146c 03E0     		b	.L288
 3398              	.LVL607:
 3399              	.L289:
 997:C:/Users/geoma/Desktop/Scilab/toolboxes/STM32_toolbox_1-1/scicos_blocks/src/c\convert.c ****                 {
 998:C:/Users/geoma/Desktop/Scilab/toolboxes/STM32_toolbox_1-1/scicos_blocks/src/c\convert.c ****                     if (u[i] < 0)
 999:C:/Users/geoma/Desktop/Scilab/toolboxes/STM32_toolbox_1-1/scicos_blocks/src/c\convert.c ****                     {
1000:C:/Users/geoma/Desktop/Scilab/toolboxes/STM32_toolbox_1-1/scicos_blocks/src/c\convert.c ****                         y[i] = 0;
1001:C:/Users/geoma/Desktop/Scilab/toolboxes/STM32_toolbox_1-1/scicos_blocks/src/c\convert.c ****                     }
ARM GAS  C:\Users\geoma\AppData\Local\Temp\ccpZNVPJ.s 			page 80


1002:C:/Users/geoma/Desktop/Scilab/toolboxes/STM32_toolbox_1-1/scicos_blocks/src/c\convert.c ****                     else
1003:C:/Users/geoma/Desktop/Scilab/toolboxes/STM32_toolbox_1-1/scicos_blocks/src/c\convert.c ****                     {
1004:C:/Users/geoma/Desktop/Scilab/toolboxes/STM32_toolbox_1-1/scicos_blocks/src/c\convert.c ****                         y[i] = (SCSUINT16_COP)(u[i]);
 3400              		.loc 1 1004 0
 3401 146e E25C     		ldrb	r2, [r4, r3]	@ zero_extendqisi2
 3402 1470 21F81320 		strh	r2, [r1, r3, lsl #1]	@ movhi
 996:C:/Users/geoma/Desktop/Scilab/toolboxes/STM32_toolbox_1-1/scicos_blocks/src/c\convert.c ****                 for (i = 0; i < m * n; i++)
 3403              		.loc 1 996 0
 3404 1474 0133     		adds	r3, r3, #1
 3405              	.LVL608:
 3406              	.L288:
 996:C:/Users/geoma/Desktop/Scilab/toolboxes/STM32_toolbox_1-1/scicos_blocks/src/c\convert.c ****                 for (i = 0; i < m * n; i++)
 3407              		.loc 1 996 0 is_stmt 0 discriminator 1
 3408 1476 0AFB0BF2 		mul	r2, r10, fp
 3409 147a 9A42     		cmp	r2, r3
 3410 147c F7DC     		bgt	.L289
 3411 147e 00F0EBBC 		b	.L1
 3412              	.LVL609:
 3413              	.L58:
 3414              	.LBE55:
 3415              	.LBB56:
1005:C:/Users/geoma/Desktop/Scilab/toolboxes/STM32_toolbox_1-1/scicos_blocks/src/c\convert.c ****                     }
1006:C:/Users/geoma/Desktop/Scilab/toolboxes/STM32_toolbox_1-1/scicos_blocks/src/c\convert.c ****                 }
1007:C:/Users/geoma/Desktop/Scilab/toolboxes/STM32_toolbox_1-1/scicos_blocks/src/c\convert.c ****                 break;
1008:C:/Users/geoma/Desktop/Scilab/toolboxes/STM32_toolbox_1-1/scicos_blocks/src/c\convert.c ****             }
1009:C:/Users/geoma/Desktop/Scilab/toolboxes/STM32_toolbox_1-1/scicos_blocks/src/c\convert.c ****             case 55:
1010:C:/Users/geoma/Desktop/Scilab/toolboxes/STM32_toolbox_1-1/scicos_blocks/src/c\convert.c ****             {
1011:C:/Users/geoma/Desktop/Scilab/toolboxes/STM32_toolbox_1-1/scicos_blocks/src/c\convert.c ****                 SCSINT8_COP *u = NULL;
1012:C:/Users/geoma/Desktop/Scilab/toolboxes/STM32_toolbox_1-1/scicos_blocks/src/c\convert.c ****                 SCSUINT8_COP *y = NULL;
1013:C:/Users/geoma/Desktop/Scilab/toolboxes/STM32_toolbox_1-1/scicos_blocks/src/c\convert.c ****                 u = Getint8InPortPtrs(block, 1);
 3416              		.loc 1 1013 0 is_stmt 1
 3417 1482 436C     		ldr	r3, [r0, #68]
 3418 1484 1C68     		ldr	r4, [r3]
 3419              	.LVL610:
1014:C:/Users/geoma/Desktop/Scilab/toolboxes/STM32_toolbox_1-1/scicos_blocks/src/c\convert.c ****                 y = Getuint8OutPortPtrs(block, 1);
 3420              		.loc 1 1014 0
 3421 1486 036D     		ldr	r3, [r0, #80]
 3422 1488 1968     		ldr	r1, [r3]
 3423              	.LVL611:
1015:C:/Users/geoma/Desktop/Scilab/toolboxes/STM32_toolbox_1-1/scicos_blocks/src/c\convert.c ****                 for (i = 0; i < m * n; i++)
 3424              		.loc 1 1015 0
 3425 148a 0023     		movs	r3, #0
 3426 148c 02E0     		b	.L290
 3427              	.LVL612:
 3428              	.L291:
1016:C:/Users/geoma/Desktop/Scilab/toolboxes/STM32_toolbox_1-1/scicos_blocks/src/c\convert.c ****                 {
1017:C:/Users/geoma/Desktop/Scilab/toolboxes/STM32_toolbox_1-1/scicos_blocks/src/c\convert.c ****                     if (u[i] < 0)
1018:C:/Users/geoma/Desktop/Scilab/toolboxes/STM32_toolbox_1-1/scicos_blocks/src/c\convert.c ****                     {
1019:C:/Users/geoma/Desktop/Scilab/toolboxes/STM32_toolbox_1-1/scicos_blocks/src/c\convert.c ****                         y[i] = 0;
1020:C:/Users/geoma/Desktop/Scilab/toolboxes/STM32_toolbox_1-1/scicos_blocks/src/c\convert.c ****                     }
1021:C:/Users/geoma/Desktop/Scilab/toolboxes/STM32_toolbox_1-1/scicos_blocks/src/c\convert.c ****                     else
1022:C:/Users/geoma/Desktop/Scilab/toolboxes/STM32_toolbox_1-1/scicos_blocks/src/c\convert.c ****                     {
1023:C:/Users/geoma/Desktop/Scilab/toolboxes/STM32_toolbox_1-1/scicos_blocks/src/c\convert.c ****                         y[i] = (SCSUINT8_COP)(u[i]);
 3429              		.loc 1 1023 0
 3430 148e E25C     		ldrb	r2, [r4, r3]	@ zero_extendqisi2
 3431 1490 CA54     		strb	r2, [r1, r3]
1015:C:/Users/geoma/Desktop/Scilab/toolboxes/STM32_toolbox_1-1/scicos_blocks/src/c\convert.c ****                 for (i = 0; i < m * n; i++)
ARM GAS  C:\Users\geoma\AppData\Local\Temp\ccpZNVPJ.s 			page 81


 3432              		.loc 1 1015 0
 3433 1492 0133     		adds	r3, r3, #1
 3434              	.LVL613:
 3435              	.L290:
1015:C:/Users/geoma/Desktop/Scilab/toolboxes/STM32_toolbox_1-1/scicos_blocks/src/c\convert.c ****                 for (i = 0; i < m * n; i++)
 3436              		.loc 1 1015 0 is_stmt 0 discriminator 1
 3437 1494 0AFB0BF2 		mul	r2, r10, fp
 3438 1498 9A42     		cmp	r2, r3
 3439 149a F8DC     		bgt	.L291
 3440 149c 00F0DCBC 		b	.L1
 3441              	.LVL614:
 3442              	.L59:
 3443              	.LBE56:
 3444              	.LBB57:
1024:C:/Users/geoma/Desktop/Scilab/toolboxes/STM32_toolbox_1-1/scicos_blocks/src/c\convert.c ****                     }
1025:C:/Users/geoma/Desktop/Scilab/toolboxes/STM32_toolbox_1-1/scicos_blocks/src/c\convert.c ****                 }
1026:C:/Users/geoma/Desktop/Scilab/toolboxes/STM32_toolbox_1-1/scicos_blocks/src/c\convert.c ****                 break;
1027:C:/Users/geoma/Desktop/Scilab/toolboxes/STM32_toolbox_1-1/scicos_blocks/src/c\convert.c ****             }
1028:C:/Users/geoma/Desktop/Scilab/toolboxes/STM32_toolbox_1-1/scicos_blocks/src/c\convert.c ****             case 56:
1029:C:/Users/geoma/Desktop/Scilab/toolboxes/STM32_toolbox_1-1/scicos_blocks/src/c\convert.c ****             {
1030:C:/Users/geoma/Desktop/Scilab/toolboxes/STM32_toolbox_1-1/scicos_blocks/src/c\convert.c ****                 SCSINT32_COP *y = NULL;
1031:C:/Users/geoma/Desktop/Scilab/toolboxes/STM32_toolbox_1-1/scicos_blocks/src/c\convert.c ****                 SCSUINT32_COP *u = NULL;
1032:C:/Users/geoma/Desktop/Scilab/toolboxes/STM32_toolbox_1-1/scicos_blocks/src/c\convert.c ****                 u = Getuint32InPortPtrs(block, 1);
 3445              		.loc 1 1032 0 is_stmt 1
 3446 14a0 436C     		ldr	r3, [r0, #68]
 3447 14a2 1968     		ldr	r1, [r3]
 3448              	.LVL615:
1033:C:/Users/geoma/Desktop/Scilab/toolboxes/STM32_toolbox_1-1/scicos_blocks/src/c\convert.c ****                 y = Getint32OutPortPtrs(block, 1);
 3449              		.loc 1 1033 0
 3450 14a4 036D     		ldr	r3, [r0, #80]
 3451 14a6 1868     		ldr	r0, [r3]
 3452              	.LVL616:
1034:C:/Users/geoma/Desktop/Scilab/toolboxes/STM32_toolbox_1-1/scicos_blocks/src/c\convert.c ****                 k = pow(2, 32);
1035:C:/Users/geoma/Desktop/Scilab/toolboxes/STM32_toolbox_1-1/scicos_blocks/src/c\convert.c ****                 for (i = 0; i < m * n; i++)
 3453              		.loc 1 1035 0
 3454 14a8 0023     		movs	r3, #0
 3455 14aa 0CE0     		b	.L292
 3456              	.LVL617:
 3457              	.L295:
1036:C:/Users/geoma/Desktop/Scilab/toolboxes/STM32_toolbox_1-1/scicos_blocks/src/c\convert.c ****                 {
1037:C:/Users/geoma/Desktop/Scilab/toolboxes/STM32_toolbox_1-1/scicos_blocks/src/c\convert.c ****                     if (u[i] > (SCSUINT32_COP)(k / 2 - 1))
 3458              		.loc 1 1037 0
 3459 14ac 51F82320 		ldr	r2, [r1, r3, lsl #2]
 3460 14b0 B2F1004F 		cmp	r2, #2147483648
 3461 14b4 04D3     		bcc	.L293
1038:C:/Users/geoma/Desktop/Scilab/toolboxes/STM32_toolbox_1-1/scicos_blocks/src/c\convert.c ****                     {
1039:C:/Users/geoma/Desktop/Scilab/toolboxes/STM32_toolbox_1-1/scicos_blocks/src/c\convert.c ****                         y[i] = (SCSINT32_COP)(k / 2 - 1);
 3462              		.loc 1 1039 0
 3463 14b6 6FF00042 		mvn	r2, #-2147483648
 3464 14ba 40F82320 		str	r2, [r0, r3, lsl #2]
 3465 14be 01E0     		b	.L294
 3466              	.L293:
1040:C:/Users/geoma/Desktop/Scilab/toolboxes/STM32_toolbox_1-1/scicos_blocks/src/c\convert.c ****                     }
1041:C:/Users/geoma/Desktop/Scilab/toolboxes/STM32_toolbox_1-1/scicos_blocks/src/c\convert.c ****                     else
1042:C:/Users/geoma/Desktop/Scilab/toolboxes/STM32_toolbox_1-1/scicos_blocks/src/c\convert.c ****                     {
1043:C:/Users/geoma/Desktop/Scilab/toolboxes/STM32_toolbox_1-1/scicos_blocks/src/c\convert.c ****                         y[i] = (SCSINT32_COP)(u[i]);
 3467              		.loc 1 1043 0
ARM GAS  C:\Users\geoma\AppData\Local\Temp\ccpZNVPJ.s 			page 82


 3468 14c0 40F82320 		str	r2, [r0, r3, lsl #2]
 3469              	.L294:
1035:C:/Users/geoma/Desktop/Scilab/toolboxes/STM32_toolbox_1-1/scicos_blocks/src/c\convert.c ****                 {
 3470              		.loc 1 1035 0 discriminator 2
 3471 14c4 0133     		adds	r3, r3, #1
 3472              	.LVL618:
 3473              	.L292:
1035:C:/Users/geoma/Desktop/Scilab/toolboxes/STM32_toolbox_1-1/scicos_blocks/src/c\convert.c ****                 {
 3474              		.loc 1 1035 0 is_stmt 0 discriminator 1
 3475 14c6 0AFB0BF2 		mul	r2, r10, fp
 3476 14ca 9A42     		cmp	r2, r3
 3477 14cc EEDC     		bgt	.L295
 3478 14ce 00F0C3BC 		b	.L1
 3479              	.LVL619:
 3480              	.L60:
 3481              	.LBE57:
 3482              	.LBB58:
1044:C:/Users/geoma/Desktop/Scilab/toolboxes/STM32_toolbox_1-1/scicos_blocks/src/c\convert.c ****                     }
1045:C:/Users/geoma/Desktop/Scilab/toolboxes/STM32_toolbox_1-1/scicos_blocks/src/c\convert.c ****                 }
1046:C:/Users/geoma/Desktop/Scilab/toolboxes/STM32_toolbox_1-1/scicos_blocks/src/c\convert.c ****                 break;
1047:C:/Users/geoma/Desktop/Scilab/toolboxes/STM32_toolbox_1-1/scicos_blocks/src/c\convert.c ****             }
1048:C:/Users/geoma/Desktop/Scilab/toolboxes/STM32_toolbox_1-1/scicos_blocks/src/c\convert.c ****             case 57:
1049:C:/Users/geoma/Desktop/Scilab/toolboxes/STM32_toolbox_1-1/scicos_blocks/src/c\convert.c ****             {
1050:C:/Users/geoma/Desktop/Scilab/toolboxes/STM32_toolbox_1-1/scicos_blocks/src/c\convert.c ****                 SCSUINT32_COP *u = NULL;
1051:C:/Users/geoma/Desktop/Scilab/toolboxes/STM32_toolbox_1-1/scicos_blocks/src/c\convert.c ****                 SCSINT16_COP *y = NULL;
1052:C:/Users/geoma/Desktop/Scilab/toolboxes/STM32_toolbox_1-1/scicos_blocks/src/c\convert.c ****                 u = Getuint32InPortPtrs(block, 1);
 3483              		.loc 1 1052 0 is_stmt 1
 3484 14d2 436C     		ldr	r3, [r0, #68]
 3485 14d4 1968     		ldr	r1, [r3]
 3486              	.LVL620:
1053:C:/Users/geoma/Desktop/Scilab/toolboxes/STM32_toolbox_1-1/scicos_blocks/src/c\convert.c ****                 y = Getint16OutPortPtrs(block, 1);
 3487              		.loc 1 1053 0
 3488 14d6 036D     		ldr	r3, [r0, #80]
 3489 14d8 1868     		ldr	r0, [r3]
 3490              	.LVL621:
1054:C:/Users/geoma/Desktop/Scilab/toolboxes/STM32_toolbox_1-1/scicos_blocks/src/c\convert.c ****                 k = pow(2, 16);
1055:C:/Users/geoma/Desktop/Scilab/toolboxes/STM32_toolbox_1-1/scicos_blocks/src/c\convert.c ****                 for (i = 0; i < m * n; i++)
 3491              		.loc 1 1055 0
 3492 14da 0023     		movs	r3, #0
 3493 14dc 0FE0     		b	.L296
 3494              	.LVL622:
 3495              	.L299:
1056:C:/Users/geoma/Desktop/Scilab/toolboxes/STM32_toolbox_1-1/scicos_blocks/src/c\convert.c ****                 {
1057:C:/Users/geoma/Desktop/Scilab/toolboxes/STM32_toolbox_1-1/scicos_blocks/src/c\convert.c ****                     if (u[i] > (SCSUINT32_COP)(k / 2 - 1))
 3496              		.loc 1 1057 0
 3497 14de 51F82320 		ldr	r2, [r1, r3, lsl #2]
 3498 14e2 B2F5004F 		cmp	r2, #32768
 3499 14e6 07D3     		bcc	.L297
1058:C:/Users/geoma/Desktop/Scilab/toolboxes/STM32_toolbox_1-1/scicos_blocks/src/c\convert.c ****                     {
1059:C:/Users/geoma/Desktop/Scilab/toolboxes/STM32_toolbox_1-1/scicos_blocks/src/c\convert.c ****                         y[i] = (SCSINT16_COP)(k / 2 - 1);
 3500              		.loc 1 1059 0
 3501 14e8 47F6FF72 		movw	r2, #32767
 3502 14ec 20F81320 		strh	r2, [r0, r3, lsl #1]	@ movhi
 3503 14f0 04E0     		b	.L298
 3504              	.L539:
 3505 14f2 00BF     		.align	2
 3506              	.L538:
ARM GAS  C:\Users\geoma\AppData\Local\Temp\ccpZNVPJ.s 			page 83


 3507 14f4 00007040 		.word	1081081856
 3508              	.L297:
1060:C:/Users/geoma/Desktop/Scilab/toolboxes/STM32_toolbox_1-1/scicos_blocks/src/c\convert.c ****                     }
1061:C:/Users/geoma/Desktop/Scilab/toolboxes/STM32_toolbox_1-1/scicos_blocks/src/c\convert.c ****                     else
1062:C:/Users/geoma/Desktop/Scilab/toolboxes/STM32_toolbox_1-1/scicos_blocks/src/c\convert.c ****                     {
1063:C:/Users/geoma/Desktop/Scilab/toolboxes/STM32_toolbox_1-1/scicos_blocks/src/c\convert.c ****                         y[i] = (SCSINT16_COP)(u[i]);
 3509              		.loc 1 1063 0
 3510 14f8 20F81320 		strh	r2, [r0, r3, lsl #1]	@ movhi
 3511              	.L298:
1055:C:/Users/geoma/Desktop/Scilab/toolboxes/STM32_toolbox_1-1/scicos_blocks/src/c\convert.c ****                 {
 3512              		.loc 1 1055 0 discriminator 2
 3513 14fc 0133     		adds	r3, r3, #1
 3514              	.LVL623:
 3515              	.L296:
1055:C:/Users/geoma/Desktop/Scilab/toolboxes/STM32_toolbox_1-1/scicos_blocks/src/c\convert.c ****                 {
 3516              		.loc 1 1055 0 is_stmt 0 discriminator 1
 3517 14fe 0AFB0BF2 		mul	r2, r10, fp
 3518 1502 9A42     		cmp	r2, r3
 3519 1504 EBDC     		bgt	.L299
 3520 1506 00F0A7BC 		b	.L1
 3521              	.LVL624:
 3522              	.L61:
 3523              	.LBE58:
 3524              	.LBB59:
1064:C:/Users/geoma/Desktop/Scilab/toolboxes/STM32_toolbox_1-1/scicos_blocks/src/c\convert.c ****                     }
1065:C:/Users/geoma/Desktop/Scilab/toolboxes/STM32_toolbox_1-1/scicos_blocks/src/c\convert.c ****                 }
1066:C:/Users/geoma/Desktop/Scilab/toolboxes/STM32_toolbox_1-1/scicos_blocks/src/c\convert.c ****                 break;
1067:C:/Users/geoma/Desktop/Scilab/toolboxes/STM32_toolbox_1-1/scicos_blocks/src/c\convert.c ****             }
1068:C:/Users/geoma/Desktop/Scilab/toolboxes/STM32_toolbox_1-1/scicos_blocks/src/c\convert.c ****             case 58:
1069:C:/Users/geoma/Desktop/Scilab/toolboxes/STM32_toolbox_1-1/scicos_blocks/src/c\convert.c ****             {
1070:C:/Users/geoma/Desktop/Scilab/toolboxes/STM32_toolbox_1-1/scicos_blocks/src/c\convert.c ****                 SCSUINT32_COP *u = NULL;
1071:C:/Users/geoma/Desktop/Scilab/toolboxes/STM32_toolbox_1-1/scicos_blocks/src/c\convert.c ****                 SCSINT8_COP *y = NULL;
1072:C:/Users/geoma/Desktop/Scilab/toolboxes/STM32_toolbox_1-1/scicos_blocks/src/c\convert.c ****                 u = Getuint32InPortPtrs(block, 1);
 3525              		.loc 1 1072 0 is_stmt 1
 3526 150a 436C     		ldr	r3, [r0, #68]
 3527 150c 1968     		ldr	r1, [r3]
 3528              	.LVL625:
1073:C:/Users/geoma/Desktop/Scilab/toolboxes/STM32_toolbox_1-1/scicos_blocks/src/c\convert.c ****                 y = Getint8OutPortPtrs(block, 1);
 3529              		.loc 1 1073 0
 3530 150e 036D     		ldr	r3, [r0, #80]
 3531 1510 1868     		ldr	r0, [r3]
 3532              	.LVL626:
1074:C:/Users/geoma/Desktop/Scilab/toolboxes/STM32_toolbox_1-1/scicos_blocks/src/c\convert.c ****                 k = pow(2, 8);
1075:C:/Users/geoma/Desktop/Scilab/toolboxes/STM32_toolbox_1-1/scicos_blocks/src/c\convert.c ****                 for (i = 0; i < m * n; i++)
 3533              		.loc 1 1075 0
 3534 1512 0023     		movs	r3, #0
 3535 1514 08E0     		b	.L300
 3536              	.LVL627:
 3537              	.L303:
1076:C:/Users/geoma/Desktop/Scilab/toolboxes/STM32_toolbox_1-1/scicos_blocks/src/c\convert.c ****                 {
1077:C:/Users/geoma/Desktop/Scilab/toolboxes/STM32_toolbox_1-1/scicos_blocks/src/c\convert.c ****                     if (u[i] > (SCSUINT32_COP)(k / 2 - 1))
 3538              		.loc 1 1077 0
 3539 1516 51F82320 		ldr	r2, [r1, r3, lsl #2]
 3540 151a 7F2A     		cmp	r2, #127
 3541 151c 02D9     		bls	.L301
1078:C:/Users/geoma/Desktop/Scilab/toolboxes/STM32_toolbox_1-1/scicos_blocks/src/c\convert.c ****                     {
1079:C:/Users/geoma/Desktop/Scilab/toolboxes/STM32_toolbox_1-1/scicos_blocks/src/c\convert.c ****                         y[i] = (SCSINT8_COP)(k / 2 - 1);
ARM GAS  C:\Users\geoma\AppData\Local\Temp\ccpZNVPJ.s 			page 84


 3542              		.loc 1 1079 0
 3543 151e 7F22     		movs	r2, #127
 3544 1520 C254     		strb	r2, [r0, r3]
 3545 1522 00E0     		b	.L302
 3546              	.L301:
1080:C:/Users/geoma/Desktop/Scilab/toolboxes/STM32_toolbox_1-1/scicos_blocks/src/c\convert.c ****                     }
1081:C:/Users/geoma/Desktop/Scilab/toolboxes/STM32_toolbox_1-1/scicos_blocks/src/c\convert.c ****                     else
1082:C:/Users/geoma/Desktop/Scilab/toolboxes/STM32_toolbox_1-1/scicos_blocks/src/c\convert.c ****                     {
1083:C:/Users/geoma/Desktop/Scilab/toolboxes/STM32_toolbox_1-1/scicos_blocks/src/c\convert.c ****                         y[i] = (SCSINT8_COP)(u[i]);
 3547              		.loc 1 1083 0
 3548 1524 C254     		strb	r2, [r0, r3]
 3549              	.L302:
1075:C:/Users/geoma/Desktop/Scilab/toolboxes/STM32_toolbox_1-1/scicos_blocks/src/c\convert.c ****                 {
 3550              		.loc 1 1075 0 discriminator 2
 3551 1526 0133     		adds	r3, r3, #1
 3552              	.LVL628:
 3553              	.L300:
1075:C:/Users/geoma/Desktop/Scilab/toolboxes/STM32_toolbox_1-1/scicos_blocks/src/c\convert.c ****                 {
 3554              		.loc 1 1075 0 is_stmt 0 discriminator 1
 3555 1528 0AFB0BF2 		mul	r2, r10, fp
 3556 152c 9A42     		cmp	r2, r3
 3557 152e F2DC     		bgt	.L303
 3558 1530 00F092BC 		b	.L1
 3559              	.LVL629:
 3560              	.L62:
 3561              	.LBE59:
 3562              	.LBB60:
1084:C:/Users/geoma/Desktop/Scilab/toolboxes/STM32_toolbox_1-1/scicos_blocks/src/c\convert.c ****                     }
1085:C:/Users/geoma/Desktop/Scilab/toolboxes/STM32_toolbox_1-1/scicos_blocks/src/c\convert.c ****                 }
1086:C:/Users/geoma/Desktop/Scilab/toolboxes/STM32_toolbox_1-1/scicos_blocks/src/c\convert.c ****                 break;
1087:C:/Users/geoma/Desktop/Scilab/toolboxes/STM32_toolbox_1-1/scicos_blocks/src/c\convert.c ****             }
1088:C:/Users/geoma/Desktop/Scilab/toolboxes/STM32_toolbox_1-1/scicos_blocks/src/c\convert.c ****             case 59:
1089:C:/Users/geoma/Desktop/Scilab/toolboxes/STM32_toolbox_1-1/scicos_blocks/src/c\convert.c ****             {
1090:C:/Users/geoma/Desktop/Scilab/toolboxes/STM32_toolbox_1-1/scicos_blocks/src/c\convert.c ****                 SCSUINT32_COP *u = NULL;
1091:C:/Users/geoma/Desktop/Scilab/toolboxes/STM32_toolbox_1-1/scicos_blocks/src/c\convert.c ****                 SCSUINT16_COP *y = NULL;
1092:C:/Users/geoma/Desktop/Scilab/toolboxes/STM32_toolbox_1-1/scicos_blocks/src/c\convert.c ****                 u = Getuint32InPortPtrs(block, 1);
 3563              		.loc 1 1092 0 is_stmt 1
 3564 1534 436C     		ldr	r3, [r0, #68]
 3565 1536 1968     		ldr	r1, [r3]
 3566              	.LVL630:
1093:C:/Users/geoma/Desktop/Scilab/toolboxes/STM32_toolbox_1-1/scicos_blocks/src/c\convert.c ****                 y = Getuint16OutPortPtrs(block, 1);
 3567              		.loc 1 1093 0
 3568 1538 036D     		ldr	r3, [r0, #80]
 3569 153a 1868     		ldr	r0, [r3]
 3570              	.LVL631:
1094:C:/Users/geoma/Desktop/Scilab/toolboxes/STM32_toolbox_1-1/scicos_blocks/src/c\convert.c ****                 k = pow(2, 16);
1095:C:/Users/geoma/Desktop/Scilab/toolboxes/STM32_toolbox_1-1/scicos_blocks/src/c\convert.c ****                 for (i = 0; i < m * n; i++)
 3571              		.loc 1 1095 0
 3572 153c 0023     		movs	r3, #0
 3573 153e 0CE0     		b	.L304
 3574              	.LVL632:
 3575              	.L307:
1096:C:/Users/geoma/Desktop/Scilab/toolboxes/STM32_toolbox_1-1/scicos_blocks/src/c\convert.c ****                 {
1097:C:/Users/geoma/Desktop/Scilab/toolboxes/STM32_toolbox_1-1/scicos_blocks/src/c\convert.c ****                     if (u[i] > (SCSUINT32_COP)(k / 2 - 1))
 3576              		.loc 1 1097 0
 3577 1540 51F82320 		ldr	r2, [r1, r3, lsl #2]
 3578 1544 B2F5004F 		cmp	r2, #32768
ARM GAS  C:\Users\geoma\AppData\Local\Temp\ccpZNVPJ.s 			page 85


 3579 1548 04D3     		bcc	.L305
1098:C:/Users/geoma/Desktop/Scilab/toolboxes/STM32_toolbox_1-1/scicos_blocks/src/c\convert.c ****                     {
1099:C:/Users/geoma/Desktop/Scilab/toolboxes/STM32_toolbox_1-1/scicos_blocks/src/c\convert.c ****                         y[i] = (SCSUINT16_COP)(k / 2 - 1);
 3580              		.loc 1 1099 0
 3581 154a 47F6FF72 		movw	r2, #32767
 3582 154e 20F81320 		strh	r2, [r0, r3, lsl #1]	@ movhi
 3583 1552 01E0     		b	.L306
 3584              	.L305:
1100:C:/Users/geoma/Desktop/Scilab/toolboxes/STM32_toolbox_1-1/scicos_blocks/src/c\convert.c ****                     }
1101:C:/Users/geoma/Desktop/Scilab/toolboxes/STM32_toolbox_1-1/scicos_blocks/src/c\convert.c ****                     else
1102:C:/Users/geoma/Desktop/Scilab/toolboxes/STM32_toolbox_1-1/scicos_blocks/src/c\convert.c ****                     {
1103:C:/Users/geoma/Desktop/Scilab/toolboxes/STM32_toolbox_1-1/scicos_blocks/src/c\convert.c ****                         y[i] = (SCSUINT16_COP)(u[i]);
 3585              		.loc 1 1103 0
 3586 1554 20F81320 		strh	r2, [r0, r3, lsl #1]	@ movhi
 3587              	.L306:
1095:C:/Users/geoma/Desktop/Scilab/toolboxes/STM32_toolbox_1-1/scicos_blocks/src/c\convert.c ****                 {
 3588              		.loc 1 1095 0 discriminator 2
 3589 1558 0133     		adds	r3, r3, #1
 3590              	.LVL633:
 3591              	.L304:
1095:C:/Users/geoma/Desktop/Scilab/toolboxes/STM32_toolbox_1-1/scicos_blocks/src/c\convert.c ****                 {
 3592              		.loc 1 1095 0 is_stmt 0 discriminator 1
 3593 155a 0AFB0BF2 		mul	r2, r10, fp
 3594 155e 9A42     		cmp	r2, r3
 3595 1560 EEDC     		bgt	.L307
 3596 1562 00F079BC 		b	.L1
 3597              	.LVL634:
 3598              	.L63:
 3599              	.LBE60:
 3600              	.LBB61:
1104:C:/Users/geoma/Desktop/Scilab/toolboxes/STM32_toolbox_1-1/scicos_blocks/src/c\convert.c ****                     }
1105:C:/Users/geoma/Desktop/Scilab/toolboxes/STM32_toolbox_1-1/scicos_blocks/src/c\convert.c ****                 }
1106:C:/Users/geoma/Desktop/Scilab/toolboxes/STM32_toolbox_1-1/scicos_blocks/src/c\convert.c ****                 break;
1107:C:/Users/geoma/Desktop/Scilab/toolboxes/STM32_toolbox_1-1/scicos_blocks/src/c\convert.c ****             }
1108:C:/Users/geoma/Desktop/Scilab/toolboxes/STM32_toolbox_1-1/scicos_blocks/src/c\convert.c ****             case 60:
1109:C:/Users/geoma/Desktop/Scilab/toolboxes/STM32_toolbox_1-1/scicos_blocks/src/c\convert.c ****             {
1110:C:/Users/geoma/Desktop/Scilab/toolboxes/STM32_toolbox_1-1/scicos_blocks/src/c\convert.c ****                 SCSUINT32_COP *u = NULL;
1111:C:/Users/geoma/Desktop/Scilab/toolboxes/STM32_toolbox_1-1/scicos_blocks/src/c\convert.c ****                 SCSUINT8_COP *y = NULL;
1112:C:/Users/geoma/Desktop/Scilab/toolboxes/STM32_toolbox_1-1/scicos_blocks/src/c\convert.c ****                 u = Getuint32InPortPtrs(block, 1);
 3601              		.loc 1 1112 0 is_stmt 1
 3602 1566 436C     		ldr	r3, [r0, #68]
 3603 1568 1968     		ldr	r1, [r3]
 3604              	.LVL635:
1113:C:/Users/geoma/Desktop/Scilab/toolboxes/STM32_toolbox_1-1/scicos_blocks/src/c\convert.c ****                 y = Getuint8OutPortPtrs(block, 1);
 3605              		.loc 1 1113 0
 3606 156a 036D     		ldr	r3, [r0, #80]
 3607 156c 1868     		ldr	r0, [r3]
 3608              	.LVL636:
1114:C:/Users/geoma/Desktop/Scilab/toolboxes/STM32_toolbox_1-1/scicos_blocks/src/c\convert.c ****                 k = pow(2, 8);
1115:C:/Users/geoma/Desktop/Scilab/toolboxes/STM32_toolbox_1-1/scicos_blocks/src/c\convert.c ****                 for (i = 0; i < m * n; i++)
 3609              		.loc 1 1115 0
 3610 156e 0023     		movs	r3, #0
 3611 1570 08E0     		b	.L308
 3612              	.LVL637:
 3613              	.L311:
1116:C:/Users/geoma/Desktop/Scilab/toolboxes/STM32_toolbox_1-1/scicos_blocks/src/c\convert.c ****                 {
1117:C:/Users/geoma/Desktop/Scilab/toolboxes/STM32_toolbox_1-1/scicos_blocks/src/c\convert.c ****                     if (u[i] > (SCSUINT32_COP)(k / 2 - 1))
ARM GAS  C:\Users\geoma\AppData\Local\Temp\ccpZNVPJ.s 			page 86


 3614              		.loc 1 1117 0
 3615 1572 51F82320 		ldr	r2, [r1, r3, lsl #2]
 3616 1576 7F2A     		cmp	r2, #127
 3617 1578 02D9     		bls	.L309
1118:C:/Users/geoma/Desktop/Scilab/toolboxes/STM32_toolbox_1-1/scicos_blocks/src/c\convert.c ****                     {
1119:C:/Users/geoma/Desktop/Scilab/toolboxes/STM32_toolbox_1-1/scicos_blocks/src/c\convert.c ****                         y[i] = (SCSUINT8_COP)(k / 2 - 1);
 3618              		.loc 1 1119 0
 3619 157a 7F22     		movs	r2, #127
 3620 157c C254     		strb	r2, [r0, r3]
 3621 157e 00E0     		b	.L310
 3622              	.L309:
1120:C:/Users/geoma/Desktop/Scilab/toolboxes/STM32_toolbox_1-1/scicos_blocks/src/c\convert.c ****                     }
1121:C:/Users/geoma/Desktop/Scilab/toolboxes/STM32_toolbox_1-1/scicos_blocks/src/c\convert.c ****                     else
1122:C:/Users/geoma/Desktop/Scilab/toolboxes/STM32_toolbox_1-1/scicos_blocks/src/c\convert.c ****                     {
1123:C:/Users/geoma/Desktop/Scilab/toolboxes/STM32_toolbox_1-1/scicos_blocks/src/c\convert.c ****                         y[i] = (SCSUINT8_COP)(u[i]);
 3623              		.loc 1 1123 0
 3624 1580 C254     		strb	r2, [r0, r3]
 3625              	.L310:
1115:C:/Users/geoma/Desktop/Scilab/toolboxes/STM32_toolbox_1-1/scicos_blocks/src/c\convert.c ****                 {
 3626              		.loc 1 1115 0 discriminator 2
 3627 1582 0133     		adds	r3, r3, #1
 3628              	.LVL638:
 3629              	.L308:
1115:C:/Users/geoma/Desktop/Scilab/toolboxes/STM32_toolbox_1-1/scicos_blocks/src/c\convert.c ****                 {
 3630              		.loc 1 1115 0 is_stmt 0 discriminator 1
 3631 1584 0AFB0BF2 		mul	r2, r10, fp
 3632 1588 9A42     		cmp	r2, r3
 3633 158a F2DC     		bgt	.L311
 3634 158c 00F064BC 		b	.L1
 3635              	.LVL639:
 3636              	.L64:
 3637              	.LBE61:
 3638              	.LBB62:
1124:C:/Users/geoma/Desktop/Scilab/toolboxes/STM32_toolbox_1-1/scicos_blocks/src/c\convert.c ****                     }
1125:C:/Users/geoma/Desktop/Scilab/toolboxes/STM32_toolbox_1-1/scicos_blocks/src/c\convert.c ****                 }
1126:C:/Users/geoma/Desktop/Scilab/toolboxes/STM32_toolbox_1-1/scicos_blocks/src/c\convert.c ****                 break;
1127:C:/Users/geoma/Desktop/Scilab/toolboxes/STM32_toolbox_1-1/scicos_blocks/src/c\convert.c ****             }
1128:C:/Users/geoma/Desktop/Scilab/toolboxes/STM32_toolbox_1-1/scicos_blocks/src/c\convert.c ****             case 61:
1129:C:/Users/geoma/Desktop/Scilab/toolboxes/STM32_toolbox_1-1/scicos_blocks/src/c\convert.c ****             {
1130:C:/Users/geoma/Desktop/Scilab/toolboxes/STM32_toolbox_1-1/scicos_blocks/src/c\convert.c ****                 SCSUINT16_COP *u = NULL;
1131:C:/Users/geoma/Desktop/Scilab/toolboxes/STM32_toolbox_1-1/scicos_blocks/src/c\convert.c ****                 SCSINT16_COP *y = NULL;
1132:C:/Users/geoma/Desktop/Scilab/toolboxes/STM32_toolbox_1-1/scicos_blocks/src/c\convert.c ****                 u = Getuint16InPortPtrs(block, 1);
 3639              		.loc 1 1132 0 is_stmt 1
 3640 1590 436C     		ldr	r3, [r0, #68]
 3641 1592 1968     		ldr	r1, [r3]
 3642              	.LVL640:
1133:C:/Users/geoma/Desktop/Scilab/toolboxes/STM32_toolbox_1-1/scicos_blocks/src/c\convert.c ****                 y = Getint16OutPortPtrs(block, 1);
 3643              		.loc 1 1133 0
 3644 1594 036D     		ldr	r3, [r0, #80]
 3645 1596 1868     		ldr	r0, [r3]
 3646              	.LVL641:
1134:C:/Users/geoma/Desktop/Scilab/toolboxes/STM32_toolbox_1-1/scicos_blocks/src/c\convert.c ****                 k = pow(2, 16);
1135:C:/Users/geoma/Desktop/Scilab/toolboxes/STM32_toolbox_1-1/scicos_blocks/src/c\convert.c ****                 for (i = 0; i < m * n; i++)
 3647              		.loc 1 1135 0
 3648 1598 0023     		movs	r3, #0
 3649 159a 0CE0     		b	.L312
 3650              	.LVL642:
ARM GAS  C:\Users\geoma\AppData\Local\Temp\ccpZNVPJ.s 			page 87


 3651              	.L315:
1136:C:/Users/geoma/Desktop/Scilab/toolboxes/STM32_toolbox_1-1/scicos_blocks/src/c\convert.c ****                 {
1137:C:/Users/geoma/Desktop/Scilab/toolboxes/STM32_toolbox_1-1/scicos_blocks/src/c\convert.c ****                     if (u[i] > (SCSUINT16_COP)(k / 2 - 1))
 3652              		.loc 1 1137 0
 3653 159c 31F81320 		ldrh	r2, [r1, r3, lsl #1]
 3654 15a0 B2F5004F 		cmp	r2, #32768
 3655 15a4 04D3     		bcc	.L313
1138:C:/Users/geoma/Desktop/Scilab/toolboxes/STM32_toolbox_1-1/scicos_blocks/src/c\convert.c ****                     {
1139:C:/Users/geoma/Desktop/Scilab/toolboxes/STM32_toolbox_1-1/scicos_blocks/src/c\convert.c ****                         y[i] = (SCSINT16_COP)(k / 2 - 1);
 3656              		.loc 1 1139 0
 3657 15a6 47F6FF72 		movw	r2, #32767
 3658 15aa 20F81320 		strh	r2, [r0, r3, lsl #1]	@ movhi
 3659 15ae 01E0     		b	.L314
 3660              	.L313:
1140:C:/Users/geoma/Desktop/Scilab/toolboxes/STM32_toolbox_1-1/scicos_blocks/src/c\convert.c ****                     }
1141:C:/Users/geoma/Desktop/Scilab/toolboxes/STM32_toolbox_1-1/scicos_blocks/src/c\convert.c ****                     else
1142:C:/Users/geoma/Desktop/Scilab/toolboxes/STM32_toolbox_1-1/scicos_blocks/src/c\convert.c ****                     {
1143:C:/Users/geoma/Desktop/Scilab/toolboxes/STM32_toolbox_1-1/scicos_blocks/src/c\convert.c ****                         y[i] = (SCSINT16_COP)(u[i]);
 3661              		.loc 1 1143 0
 3662 15b0 20F81320 		strh	r2, [r0, r3, lsl #1]	@ movhi
 3663              	.L314:
1135:C:/Users/geoma/Desktop/Scilab/toolboxes/STM32_toolbox_1-1/scicos_blocks/src/c\convert.c ****                 {
 3664              		.loc 1 1135 0 discriminator 2
 3665 15b4 0133     		adds	r3, r3, #1
 3666              	.LVL643:
 3667              	.L312:
1135:C:/Users/geoma/Desktop/Scilab/toolboxes/STM32_toolbox_1-1/scicos_blocks/src/c\convert.c ****                 {
 3668              		.loc 1 1135 0 is_stmt 0 discriminator 1
 3669 15b6 0AFB0BF2 		mul	r2, r10, fp
 3670 15ba 9A42     		cmp	r2, r3
 3671 15bc EEDC     		bgt	.L315
 3672 15be 00F04BBC 		b	.L1
 3673              	.LVL644:
 3674              	.L65:
 3675              	.LBE62:
 3676              	.LBB63:
1144:C:/Users/geoma/Desktop/Scilab/toolboxes/STM32_toolbox_1-1/scicos_blocks/src/c\convert.c ****                     }
1145:C:/Users/geoma/Desktop/Scilab/toolboxes/STM32_toolbox_1-1/scicos_blocks/src/c\convert.c ****                 }
1146:C:/Users/geoma/Desktop/Scilab/toolboxes/STM32_toolbox_1-1/scicos_blocks/src/c\convert.c ****                 break;
1147:C:/Users/geoma/Desktop/Scilab/toolboxes/STM32_toolbox_1-1/scicos_blocks/src/c\convert.c ****             }
1148:C:/Users/geoma/Desktop/Scilab/toolboxes/STM32_toolbox_1-1/scicos_blocks/src/c\convert.c ****             case 62:
1149:C:/Users/geoma/Desktop/Scilab/toolboxes/STM32_toolbox_1-1/scicos_blocks/src/c\convert.c ****             {
1150:C:/Users/geoma/Desktop/Scilab/toolboxes/STM32_toolbox_1-1/scicos_blocks/src/c\convert.c ****                 SCSUINT16_COP *u = NULL;
1151:C:/Users/geoma/Desktop/Scilab/toolboxes/STM32_toolbox_1-1/scicos_blocks/src/c\convert.c ****                 SCSINT8_COP *y = NULL;
1152:C:/Users/geoma/Desktop/Scilab/toolboxes/STM32_toolbox_1-1/scicos_blocks/src/c\convert.c ****                 u = Getuint16InPortPtrs(block, 1);
 3677              		.loc 1 1152 0 is_stmt 1
 3678 15c2 436C     		ldr	r3, [r0, #68]
 3679 15c4 1968     		ldr	r1, [r3]
 3680              	.LVL645:
1153:C:/Users/geoma/Desktop/Scilab/toolboxes/STM32_toolbox_1-1/scicos_blocks/src/c\convert.c ****                 y = Getint8OutPortPtrs(block, 1);
 3681              		.loc 1 1153 0
 3682 15c6 036D     		ldr	r3, [r0, #80]
 3683 15c8 1868     		ldr	r0, [r3]
 3684              	.LVL646:
1154:C:/Users/geoma/Desktop/Scilab/toolboxes/STM32_toolbox_1-1/scicos_blocks/src/c\convert.c ****                 k = pow(2, 8);
1155:C:/Users/geoma/Desktop/Scilab/toolboxes/STM32_toolbox_1-1/scicos_blocks/src/c\convert.c ****                 for (i = 0; i < m * n; i++)
 3685              		.loc 1 1155 0
ARM GAS  C:\Users\geoma\AppData\Local\Temp\ccpZNVPJ.s 			page 88


 3686 15ca 0023     		movs	r3, #0
 3687 15cc 08E0     		b	.L316
 3688              	.LVL647:
 3689              	.L319:
1156:C:/Users/geoma/Desktop/Scilab/toolboxes/STM32_toolbox_1-1/scicos_blocks/src/c\convert.c ****                 {
1157:C:/Users/geoma/Desktop/Scilab/toolboxes/STM32_toolbox_1-1/scicos_blocks/src/c\convert.c ****                     if (u[i] > (SCSUINT16_COP)(k / 2 - 1))
 3690              		.loc 1 1157 0
 3691 15ce 31F81320 		ldrh	r2, [r1, r3, lsl #1]
 3692 15d2 7F2A     		cmp	r2, #127
 3693 15d4 02D9     		bls	.L317
1158:C:/Users/geoma/Desktop/Scilab/toolboxes/STM32_toolbox_1-1/scicos_blocks/src/c\convert.c ****                     {
1159:C:/Users/geoma/Desktop/Scilab/toolboxes/STM32_toolbox_1-1/scicos_blocks/src/c\convert.c ****                         y[i] = (SCSINT8_COP)(k / 2 - 1);
 3694              		.loc 1 1159 0
 3695 15d6 7F22     		movs	r2, #127
 3696 15d8 C254     		strb	r2, [r0, r3]
 3697 15da 00E0     		b	.L318
 3698              	.L317:
1160:C:/Users/geoma/Desktop/Scilab/toolboxes/STM32_toolbox_1-1/scicos_blocks/src/c\convert.c ****                     }
1161:C:/Users/geoma/Desktop/Scilab/toolboxes/STM32_toolbox_1-1/scicos_blocks/src/c\convert.c ****                     else
1162:C:/Users/geoma/Desktop/Scilab/toolboxes/STM32_toolbox_1-1/scicos_blocks/src/c\convert.c ****                     {
1163:C:/Users/geoma/Desktop/Scilab/toolboxes/STM32_toolbox_1-1/scicos_blocks/src/c\convert.c ****                         y[i] = (SCSINT8_COP)(u[i]);
 3699              		.loc 1 1163 0
 3700 15dc C254     		strb	r2, [r0, r3]
 3701              	.L318:
1155:C:/Users/geoma/Desktop/Scilab/toolboxes/STM32_toolbox_1-1/scicos_blocks/src/c\convert.c ****                 {
 3702              		.loc 1 1155 0 discriminator 2
 3703 15de 0133     		adds	r3, r3, #1
 3704              	.LVL648:
 3705              	.L316:
1155:C:/Users/geoma/Desktop/Scilab/toolboxes/STM32_toolbox_1-1/scicos_blocks/src/c\convert.c ****                 {
 3706              		.loc 1 1155 0 is_stmt 0 discriminator 1
 3707 15e0 0AFB0BF2 		mul	r2, r10, fp
 3708 15e4 9A42     		cmp	r2, r3
 3709 15e6 F2DC     		bgt	.L319
 3710 15e8 00F036BC 		b	.L1
 3711              	.LVL649:
 3712              	.L66:
 3713              	.LBE63:
 3714              	.LBB64:
1164:C:/Users/geoma/Desktop/Scilab/toolboxes/STM32_toolbox_1-1/scicos_blocks/src/c\convert.c ****                     }
1165:C:/Users/geoma/Desktop/Scilab/toolboxes/STM32_toolbox_1-1/scicos_blocks/src/c\convert.c ****                 }
1166:C:/Users/geoma/Desktop/Scilab/toolboxes/STM32_toolbox_1-1/scicos_blocks/src/c\convert.c ****                 break;
1167:C:/Users/geoma/Desktop/Scilab/toolboxes/STM32_toolbox_1-1/scicos_blocks/src/c\convert.c ****             }
1168:C:/Users/geoma/Desktop/Scilab/toolboxes/STM32_toolbox_1-1/scicos_blocks/src/c\convert.c ****             case 63:
1169:C:/Users/geoma/Desktop/Scilab/toolboxes/STM32_toolbox_1-1/scicos_blocks/src/c\convert.c ****             {
1170:C:/Users/geoma/Desktop/Scilab/toolboxes/STM32_toolbox_1-1/scicos_blocks/src/c\convert.c ****                 SCSUINT16_COP *u = NULL;
1171:C:/Users/geoma/Desktop/Scilab/toolboxes/STM32_toolbox_1-1/scicos_blocks/src/c\convert.c ****                 SCSUINT8_COP *y = NULL;
1172:C:/Users/geoma/Desktop/Scilab/toolboxes/STM32_toolbox_1-1/scicos_blocks/src/c\convert.c ****                 u = Getuint16InPortPtrs(block, 1);
 3715              		.loc 1 1172 0 is_stmt 1
 3716 15ec 436C     		ldr	r3, [r0, #68]
 3717 15ee 1968     		ldr	r1, [r3]
 3718              	.LVL650:
1173:C:/Users/geoma/Desktop/Scilab/toolboxes/STM32_toolbox_1-1/scicos_blocks/src/c\convert.c ****                 y = Getuint8OutPortPtrs(block, 1);
 3719              		.loc 1 1173 0
 3720 15f0 036D     		ldr	r3, [r0, #80]
 3721 15f2 1868     		ldr	r0, [r3]
 3722              	.LVL651:
ARM GAS  C:\Users\geoma\AppData\Local\Temp\ccpZNVPJ.s 			page 89


1174:C:/Users/geoma/Desktop/Scilab/toolboxes/STM32_toolbox_1-1/scicos_blocks/src/c\convert.c ****                 k = pow(2, 8);
1175:C:/Users/geoma/Desktop/Scilab/toolboxes/STM32_toolbox_1-1/scicos_blocks/src/c\convert.c ****                 for (i = 0; i < m * n; i++)
 3723              		.loc 1 1175 0
 3724 15f4 0023     		movs	r3, #0
 3725 15f6 08E0     		b	.L320
 3726              	.LVL652:
 3727              	.L323:
1176:C:/Users/geoma/Desktop/Scilab/toolboxes/STM32_toolbox_1-1/scicos_blocks/src/c\convert.c ****                 {
1177:C:/Users/geoma/Desktop/Scilab/toolboxes/STM32_toolbox_1-1/scicos_blocks/src/c\convert.c ****                     if (u[i] > (SCSUINT16_COP)(k / 2 - 1))
 3728              		.loc 1 1177 0
 3729 15f8 31F81320 		ldrh	r2, [r1, r3, lsl #1]
 3730 15fc 7F2A     		cmp	r2, #127
 3731 15fe 02D9     		bls	.L321
1178:C:/Users/geoma/Desktop/Scilab/toolboxes/STM32_toolbox_1-1/scicos_blocks/src/c\convert.c ****                     {
1179:C:/Users/geoma/Desktop/Scilab/toolboxes/STM32_toolbox_1-1/scicos_blocks/src/c\convert.c ****                         y[i] = (SCSUINT8_COP)k / 2 - 1;
 3732              		.loc 1 1179 0
 3733 1600 7E22     		movs	r2, #126
 3734 1602 C254     		strb	r2, [r0, r3]
 3735 1604 00E0     		b	.L322
 3736              	.L321:
1180:C:/Users/geoma/Desktop/Scilab/toolboxes/STM32_toolbox_1-1/scicos_blocks/src/c\convert.c ****                     }
1181:C:/Users/geoma/Desktop/Scilab/toolboxes/STM32_toolbox_1-1/scicos_blocks/src/c\convert.c ****                     else
1182:C:/Users/geoma/Desktop/Scilab/toolboxes/STM32_toolbox_1-1/scicos_blocks/src/c\convert.c ****                     {
1183:C:/Users/geoma/Desktop/Scilab/toolboxes/STM32_toolbox_1-1/scicos_blocks/src/c\convert.c ****                         y[i] = (SCSUINT8_COP)(u[i]);
 3737              		.loc 1 1183 0
 3738 1606 C254     		strb	r2, [r0, r3]
 3739              	.L322:
1175:C:/Users/geoma/Desktop/Scilab/toolboxes/STM32_toolbox_1-1/scicos_blocks/src/c\convert.c ****                 {
 3740              		.loc 1 1175 0 discriminator 2
 3741 1608 0133     		adds	r3, r3, #1
 3742              	.LVL653:
 3743              	.L320:
1175:C:/Users/geoma/Desktop/Scilab/toolboxes/STM32_toolbox_1-1/scicos_blocks/src/c\convert.c ****                 {
 3744              		.loc 1 1175 0 is_stmt 0 discriminator 1
 3745 160a 0AFB0BF2 		mul	r2, r10, fp
 3746 160e 9A42     		cmp	r2, r3
 3747 1610 F2DC     		bgt	.L323
 3748 1612 00F021BC 		b	.L1
 3749              	.LVL654:
 3750              	.L67:
 3751              	.LBE64:
 3752              	.LBB65:
1184:C:/Users/geoma/Desktop/Scilab/toolboxes/STM32_toolbox_1-1/scicos_blocks/src/c\convert.c ****                     }
1185:C:/Users/geoma/Desktop/Scilab/toolboxes/STM32_toolbox_1-1/scicos_blocks/src/c\convert.c ****                 }
1186:C:/Users/geoma/Desktop/Scilab/toolboxes/STM32_toolbox_1-1/scicos_blocks/src/c\convert.c ****                 break;
1187:C:/Users/geoma/Desktop/Scilab/toolboxes/STM32_toolbox_1-1/scicos_blocks/src/c\convert.c ****             }
1188:C:/Users/geoma/Desktop/Scilab/toolboxes/STM32_toolbox_1-1/scicos_blocks/src/c\convert.c ****             case 64:
1189:C:/Users/geoma/Desktop/Scilab/toolboxes/STM32_toolbox_1-1/scicos_blocks/src/c\convert.c ****             {
1190:C:/Users/geoma/Desktop/Scilab/toolboxes/STM32_toolbox_1-1/scicos_blocks/src/c\convert.c ****                 SCSUINT8_COP *u = NULL;
1191:C:/Users/geoma/Desktop/Scilab/toolboxes/STM32_toolbox_1-1/scicos_blocks/src/c\convert.c ****                 SCSINT8_COP *y = NULL;
1192:C:/Users/geoma/Desktop/Scilab/toolboxes/STM32_toolbox_1-1/scicos_blocks/src/c\convert.c ****                 u = Getuint8InPortPtrs(block, 1);
 3753              		.loc 1 1192 0 is_stmt 1
 3754 1616 436C     		ldr	r3, [r0, #68]
 3755 1618 1968     		ldr	r1, [r3]
 3756              	.LVL655:
1193:C:/Users/geoma/Desktop/Scilab/toolboxes/STM32_toolbox_1-1/scicos_blocks/src/c\convert.c ****                 y = Getint8OutPortPtrs(block, 1);
 3757              		.loc 1 1193 0
ARM GAS  C:\Users\geoma\AppData\Local\Temp\ccpZNVPJ.s 			page 90


 3758 161a 036D     		ldr	r3, [r0, #80]
 3759 161c 1868     		ldr	r0, [r3]
 3760              	.LVL656:
1194:C:/Users/geoma/Desktop/Scilab/toolboxes/STM32_toolbox_1-1/scicos_blocks/src/c\convert.c ****                 k = pow(2, 8);
1195:C:/Users/geoma/Desktop/Scilab/toolboxes/STM32_toolbox_1-1/scicos_blocks/src/c\convert.c ****                 for (i = 0; i < m * n; i++)
 3761              		.loc 1 1195 0
 3762 161e 0023     		movs	r3, #0
 3763 1620 07E0     		b	.L324
 3764              	.LVL657:
 3765              	.L327:
1196:C:/Users/geoma/Desktop/Scilab/toolboxes/STM32_toolbox_1-1/scicos_blocks/src/c\convert.c ****                 {
1197:C:/Users/geoma/Desktop/Scilab/toolboxes/STM32_toolbox_1-1/scicos_blocks/src/c\convert.c ****                     if (u[i] > (SCSUINT8_COP)(k / 2 - 1))
 3766              		.loc 1 1197 0
 3767 1622 CA5C     		ldrb	r2, [r1, r3]	@ zero_extendqisi2
 3768 1624 7F2A     		cmp	r2, #127
 3769 1626 02D9     		bls	.L325
1198:C:/Users/geoma/Desktop/Scilab/toolboxes/STM32_toolbox_1-1/scicos_blocks/src/c\convert.c ****                     {
1199:C:/Users/geoma/Desktop/Scilab/toolboxes/STM32_toolbox_1-1/scicos_blocks/src/c\convert.c ****                         y[i] = (SCSINT8_COP)(k / 2 - 1);
 3770              		.loc 1 1199 0
 3771 1628 7F22     		movs	r2, #127
 3772 162a C254     		strb	r2, [r0, r3]
 3773 162c 00E0     		b	.L326
 3774              	.L325:
1200:C:/Users/geoma/Desktop/Scilab/toolboxes/STM32_toolbox_1-1/scicos_blocks/src/c\convert.c ****                     }
1201:C:/Users/geoma/Desktop/Scilab/toolboxes/STM32_toolbox_1-1/scicos_blocks/src/c\convert.c ****                     else
1202:C:/Users/geoma/Desktop/Scilab/toolboxes/STM32_toolbox_1-1/scicos_blocks/src/c\convert.c ****                     {
1203:C:/Users/geoma/Desktop/Scilab/toolboxes/STM32_toolbox_1-1/scicos_blocks/src/c\convert.c ****                         y[i] = (SCSINT8_COP)(u[i]);
 3775              		.loc 1 1203 0
 3776 162e C254     		strb	r2, [r0, r3]
 3777              	.L326:
1195:C:/Users/geoma/Desktop/Scilab/toolboxes/STM32_toolbox_1-1/scicos_blocks/src/c\convert.c ****                 {
 3778              		.loc 1 1195 0 discriminator 2
 3779 1630 0133     		adds	r3, r3, #1
 3780              	.LVL658:
 3781              	.L324:
1195:C:/Users/geoma/Desktop/Scilab/toolboxes/STM32_toolbox_1-1/scicos_blocks/src/c\convert.c ****                 {
 3782              		.loc 1 1195 0 is_stmt 0 discriminator 1
 3783 1632 0AFB0BF2 		mul	r2, r10, fp
 3784 1636 9A42     		cmp	r2, r3
 3785 1638 F3DC     		bgt	.L327
 3786 163a 00F00DBC 		b	.L1
 3787              	.LVL659:
 3788              	.L68:
 3789              	.LBE65:
 3790              	.LBB66:
1204:C:/Users/geoma/Desktop/Scilab/toolboxes/STM32_toolbox_1-1/scicos_blocks/src/c\convert.c ****                     }
1205:C:/Users/geoma/Desktop/Scilab/toolboxes/STM32_toolbox_1-1/scicos_blocks/src/c\convert.c ****                 }
1206:C:/Users/geoma/Desktop/Scilab/toolboxes/STM32_toolbox_1-1/scicos_blocks/src/c\convert.c ****                 break;
1207:C:/Users/geoma/Desktop/Scilab/toolboxes/STM32_toolbox_1-1/scicos_blocks/src/c\convert.c ****             }
1208:C:/Users/geoma/Desktop/Scilab/toolboxes/STM32_toolbox_1-1/scicos_blocks/src/c\convert.c ****             case 65:
1209:C:/Users/geoma/Desktop/Scilab/toolboxes/STM32_toolbox_1-1/scicos_blocks/src/c\convert.c ****             {
1210:C:/Users/geoma/Desktop/Scilab/toolboxes/STM32_toolbox_1-1/scicos_blocks/src/c\convert.c ****                 SCSREAL_COP *u = NULL;
1211:C:/Users/geoma/Desktop/Scilab/toolboxes/STM32_toolbox_1-1/scicos_blocks/src/c\convert.c ****                 SCSINT32_COP *y = NULL;
1212:C:/Users/geoma/Desktop/Scilab/toolboxes/STM32_toolbox_1-1/scicos_blocks/src/c\convert.c ****                 u = GetRealInPortPtrs(block, 1);
 3791              		.loc 1 1212 0 is_stmt 1
 3792 163e 436C     		ldr	r3, [r0, #68]
 3793 1640 D3F80090 		ldr	r9, [r3]
ARM GAS  C:\Users\geoma\AppData\Local\Temp\ccpZNVPJ.s 			page 91


 3794              	.LVL660:
1213:C:/Users/geoma/Desktop/Scilab/toolboxes/STM32_toolbox_1-1/scicos_blocks/src/c\convert.c ****                 y = Getint32OutPortPtrs(block, 1);
 3795              		.loc 1 1213 0
 3796 1644 036D     		ldr	r3, [r0, #80]
 3797 1646 1B68     		ldr	r3, [r3]
 3798 1648 0093     		str	r3, [sp]
 3799              	.LVL661:
1214:C:/Users/geoma/Desktop/Scilab/toolboxes/STM32_toolbox_1-1/scicos_blocks/src/c\convert.c ****                 k = pow(2, 32);
1215:C:/Users/geoma/Desktop/Scilab/toolboxes/STM32_toolbox_1-1/scicos_blocks/src/c\convert.c ****                 for (i = 0; i < m * n; i++)
 3800              		.loc 1 1215 0
 3801 164a 0027     		movs	r7, #0
 3802 164c 2AE0     		b	.L328
 3803              	.LVL662:
 3804              	.L333:
1216:C:/Users/geoma/Desktop/Scilab/toolboxes/STM32_toolbox_1-1/scicos_blocks/src/c\convert.c ****                 {
1217:C:/Users/geoma/Desktop/Scilab/toolboxes/STM32_toolbox_1-1/scicos_blocks/src/c\convert.c ****                     if ((u[i] > k / 2 - 1) | (u[i] < -(k / 2)))
 3805              		.loc 1 1217 0
 3806 164e B846     		mov	r8, r7
 3807 1650 09EBC703 		add	r3, r9, r7, lsl #3
 3808 1654 93ED008B 		fldd	d8, [r3]
 3809 1658 4FF00106 		mov	r6, #1
 3810 165c 51EC180B 		fmrrd	r0, r1, d8
 3811 1660 C5A3     		adr	r3, .L540+40
 3812 1662 D3E90023 		ldrd	r2, [r3]
 3813 1666 FFF7FEFF 		bl	__aeabi_dcmpgt
 3814              	.LVL663:
 3815 166a 08B9     		cbnz	r0, .L329
 3816 166c 4FF00006 		mov	r6, #0
 3817              	.L329:
 3818 1670 4FF00105 		mov	r5, #1
 3819 1674 51EC180B 		fmrrd	r0, r1, d8
 3820 1678 0022     		movs	r2, #0
 3821 167a B94B     		ldr	r3, .L540+16
 3822 167c FFF7FEFF 		bl	__aeabi_dcmplt
 3823              	.LVL664:
 3824 1680 08B9     		cbnz	r0, .L330
 3825 1682 4FF00005 		mov	r5, #0
 3826              	.L330:
 3827 1686 3543     		orrs	r5, r5, r6
 3828 1688 15F0FF0F 		tst	r5, #255
 3829 168c 02D0     		beq	.L331
1218:C:/Users/geoma/Desktop/Scilab/toolboxes/STM32_toolbox_1-1/scicos_blocks/src/c\convert.c ****                     {
1219:C:/Users/geoma/Desktop/Scilab/toolboxes/STM32_toolbox_1-1/scicos_blocks/src/c\convert.c ****                         if (flag == 1)
 3830              		.loc 1 1219 0
 3831 168e 012C     		cmp	r4, #1
 3832 1690 07D1     		bne	.L332
 3833 1692 E1E3     		b	.L1
 3834              	.L331:
1220:C:/Users/geoma/Desktop/Scilab/toolboxes/STM32_toolbox_1-1/scicos_blocks/src/c\convert.c ****                         {
1221:C:/Users/geoma/Desktop/Scilab/toolboxes/STM32_toolbox_1-1/scicos_blocks/src/c\convert.c ****                             //scicos_print(_("overflow error"));
1222:C:/Users/geoma/Desktop/Scilab/toolboxes/STM32_toolbox_1-1/scicos_blocks/src/c\convert.c ****                             //set_block_error(-4);
1223:C:/Users/geoma/Desktop/Scilab/toolboxes/STM32_toolbox_1-1/scicos_blocks/src/c\convert.c ****                             return;
1224:C:/Users/geoma/Desktop/Scilab/toolboxes/STM32_toolbox_1-1/scicos_blocks/src/c\convert.c ****                         }
1225:C:/Users/geoma/Desktop/Scilab/toolboxes/STM32_toolbox_1-1/scicos_blocks/src/c\convert.c ****                     }
1226:C:/Users/geoma/Desktop/Scilab/toolboxes/STM32_toolbox_1-1/scicos_blocks/src/c\convert.c ****                     else
1227:C:/Users/geoma/Desktop/Scilab/toolboxes/STM32_toolbox_1-1/scicos_blocks/src/c\convert.c ****                     {
1228:C:/Users/geoma/Desktop/Scilab/toolboxes/STM32_toolbox_1-1/scicos_blocks/src/c\convert.c ****                         y[i] = (SCSINT32_COP)(u[i]);
ARM GAS  C:\Users\geoma\AppData\Local\Temp\ccpZNVPJ.s 			page 92


 3835              		.loc 1 1228 0
 3836 1694 51EC180B 		fmrrd	r0, r1, d8
 3837 1698 FFF7FEFF 		bl	__aeabi_d2iz
 3838              	.LVL665:
 3839 169c 009B     		ldr	r3, [sp]
 3840 169e 43F82800 		str	r0, [r3, r8, lsl #2]
 3841              	.L332:
1215:C:/Users/geoma/Desktop/Scilab/toolboxes/STM32_toolbox_1-1/scicos_blocks/src/c\convert.c ****                 {
 3842              		.loc 1 1215 0 discriminator 2
 3843 16a2 0137     		adds	r7, r7, #1
 3844              	.LVL666:
 3845              	.L328:
1215:C:/Users/geoma/Desktop/Scilab/toolboxes/STM32_toolbox_1-1/scicos_blocks/src/c\convert.c ****                 {
 3846              		.loc 1 1215 0 is_stmt 0 discriminator 1
 3847 16a4 0AFB0BF3 		mul	r3, r10, fp
 3848 16a8 BB42     		cmp	r3, r7
 3849 16aa D0DC     		bgt	.L333
 3850 16ac D4E3     		b	.L1
 3851              	.LVL667:
 3852              	.L69:
 3853              	.LBE66:
 3854              	.LBB67:
1229:C:/Users/geoma/Desktop/Scilab/toolboxes/STM32_toolbox_1-1/scicos_blocks/src/c\convert.c ****                     }
1230:C:/Users/geoma/Desktop/Scilab/toolboxes/STM32_toolbox_1-1/scicos_blocks/src/c\convert.c ****                 }
1231:C:/Users/geoma/Desktop/Scilab/toolboxes/STM32_toolbox_1-1/scicos_blocks/src/c\convert.c ****                 break;
1232:C:/Users/geoma/Desktop/Scilab/toolboxes/STM32_toolbox_1-1/scicos_blocks/src/c\convert.c ****             }
1233:C:/Users/geoma/Desktop/Scilab/toolboxes/STM32_toolbox_1-1/scicos_blocks/src/c\convert.c ****             case 66:
1234:C:/Users/geoma/Desktop/Scilab/toolboxes/STM32_toolbox_1-1/scicos_blocks/src/c\convert.c ****             {
1235:C:/Users/geoma/Desktop/Scilab/toolboxes/STM32_toolbox_1-1/scicos_blocks/src/c\convert.c ****                 SCSREAL_COP *u = NULL;
1236:C:/Users/geoma/Desktop/Scilab/toolboxes/STM32_toolbox_1-1/scicos_blocks/src/c\convert.c ****                 SCSINT16_COP *y = NULL;
1237:C:/Users/geoma/Desktop/Scilab/toolboxes/STM32_toolbox_1-1/scicos_blocks/src/c\convert.c ****                 u = GetRealInPortPtrs(block, 1);
 3855              		.loc 1 1237 0 is_stmt 1
 3856 16ae 436C     		ldr	r3, [r0, #68]
 3857 16b0 D3F80090 		ldr	r9, [r3]
 3858              	.LVL668:
1238:C:/Users/geoma/Desktop/Scilab/toolboxes/STM32_toolbox_1-1/scicos_blocks/src/c\convert.c ****                 y = Getint16OutPortPtrs(block, 1);
 3859              		.loc 1 1238 0
 3860 16b4 036D     		ldr	r3, [r0, #80]
 3861 16b6 1B68     		ldr	r3, [r3]
 3862 16b8 0093     		str	r3, [sp]
 3863              	.LVL669:
1239:C:/Users/geoma/Desktop/Scilab/toolboxes/STM32_toolbox_1-1/scicos_blocks/src/c\convert.c ****                 k = pow(2, 16);
1240:C:/Users/geoma/Desktop/Scilab/toolboxes/STM32_toolbox_1-1/scicos_blocks/src/c\convert.c ****                 for (i = 0; i < m * n; i++)
 3864              		.loc 1 1240 0
 3865 16ba 0027     		movs	r7, #0
 3866 16bc 2AE0     		b	.L334
 3867              	.LVL670:
 3868              	.L339:
1241:C:/Users/geoma/Desktop/Scilab/toolboxes/STM32_toolbox_1-1/scicos_blocks/src/c\convert.c ****                 {
1242:C:/Users/geoma/Desktop/Scilab/toolboxes/STM32_toolbox_1-1/scicos_blocks/src/c\convert.c ****                     if ((u[i] > k / 2 - 1) | (u[i] < -(k / 2)))
 3869              		.loc 1 1242 0
 3870 16be B846     		mov	r8, r7
 3871 16c0 09EBC703 		add	r3, r9, r7, lsl #3
 3872 16c4 93ED008B 		fldd	d8, [r3]
 3873 16c8 4FF00106 		mov	r6, #1
 3874 16cc 51EC180B 		fmrrd	r0, r1, d8
 3875 16d0 9FA3     		adr	r3, .L540
ARM GAS  C:\Users\geoma\AppData\Local\Temp\ccpZNVPJ.s 			page 93


 3876 16d2 D3E90023 		ldrd	r2, [r3]
 3877 16d6 FFF7FEFF 		bl	__aeabi_dcmpgt
 3878              	.LVL671:
 3879 16da 08B9     		cbnz	r0, .L335
 3880 16dc 4FF00006 		mov	r6, #0
 3881              	.L335:
 3882 16e0 4FF00105 		mov	r5, #1
 3883 16e4 51EC180B 		fmrrd	r0, r1, d8
 3884 16e8 0022     		movs	r2, #0
 3885 16ea 9E4B     		ldr	r3, .L540+20
 3886 16ec FFF7FEFF 		bl	__aeabi_dcmplt
 3887              	.LVL672:
 3888 16f0 08B9     		cbnz	r0, .L336
 3889 16f2 4FF00005 		mov	r5, #0
 3890              	.L336:
 3891 16f6 3543     		orrs	r5, r5, r6
 3892 16f8 15F0FF0F 		tst	r5, #255
 3893 16fc 02D0     		beq	.L337
1243:C:/Users/geoma/Desktop/Scilab/toolboxes/STM32_toolbox_1-1/scicos_blocks/src/c\convert.c ****                     {
1244:C:/Users/geoma/Desktop/Scilab/toolboxes/STM32_toolbox_1-1/scicos_blocks/src/c\convert.c ****                         if (flag == 1)
 3894              		.loc 1 1244 0
 3895 16fe 012C     		cmp	r4, #1
 3896 1700 07D1     		bne	.L338
 3897 1702 A9E3     		b	.L1
 3898              	.L337:
1245:C:/Users/geoma/Desktop/Scilab/toolboxes/STM32_toolbox_1-1/scicos_blocks/src/c\convert.c ****                         {
1246:C:/Users/geoma/Desktop/Scilab/toolboxes/STM32_toolbox_1-1/scicos_blocks/src/c\convert.c ****                             //scicos_print(_("overflow error"));
1247:C:/Users/geoma/Desktop/Scilab/toolboxes/STM32_toolbox_1-1/scicos_blocks/src/c\convert.c ****                             //set_block_error(-4);
1248:C:/Users/geoma/Desktop/Scilab/toolboxes/STM32_toolbox_1-1/scicos_blocks/src/c\convert.c ****                             return;
1249:C:/Users/geoma/Desktop/Scilab/toolboxes/STM32_toolbox_1-1/scicos_blocks/src/c\convert.c ****                         }
1250:C:/Users/geoma/Desktop/Scilab/toolboxes/STM32_toolbox_1-1/scicos_blocks/src/c\convert.c ****                     }
1251:C:/Users/geoma/Desktop/Scilab/toolboxes/STM32_toolbox_1-1/scicos_blocks/src/c\convert.c ****                     else
1252:C:/Users/geoma/Desktop/Scilab/toolboxes/STM32_toolbox_1-1/scicos_blocks/src/c\convert.c ****                     {
1253:C:/Users/geoma/Desktop/Scilab/toolboxes/STM32_toolbox_1-1/scicos_blocks/src/c\convert.c ****                         y[i] = (SCSINT16_COP)(u[i]);
 3899              		.loc 1 1253 0
 3900 1704 51EC180B 		fmrrd	r0, r1, d8
 3901 1708 FFF7FEFF 		bl	__aeabi_d2iz
 3902              	.LVL673:
 3903 170c 009B     		ldr	r3, [sp]
 3904 170e 23F81800 		strh	r0, [r3, r8, lsl #1]	@ movhi
 3905              	.L338:
1240:C:/Users/geoma/Desktop/Scilab/toolboxes/STM32_toolbox_1-1/scicos_blocks/src/c\convert.c ****                 {
 3906              		.loc 1 1240 0 discriminator 2
 3907 1712 0137     		adds	r7, r7, #1
 3908              	.LVL674:
 3909              	.L334:
1240:C:/Users/geoma/Desktop/Scilab/toolboxes/STM32_toolbox_1-1/scicos_blocks/src/c\convert.c ****                 {
 3910              		.loc 1 1240 0 is_stmt 0 discriminator 1
 3911 1714 0AFB0BF3 		mul	r3, r10, fp
 3912 1718 BB42     		cmp	r3, r7
 3913 171a D0DC     		bgt	.L339
 3914 171c 9CE3     		b	.L1
 3915              	.LVL675:
 3916              	.L70:
 3917              	.LBE67:
 3918              	.LBB68:
1254:C:/Users/geoma/Desktop/Scilab/toolboxes/STM32_toolbox_1-1/scicos_blocks/src/c\convert.c ****                     }
ARM GAS  C:\Users\geoma\AppData\Local\Temp\ccpZNVPJ.s 			page 94


1255:C:/Users/geoma/Desktop/Scilab/toolboxes/STM32_toolbox_1-1/scicos_blocks/src/c\convert.c ****                 }
1256:C:/Users/geoma/Desktop/Scilab/toolboxes/STM32_toolbox_1-1/scicos_blocks/src/c\convert.c ****                 break;
1257:C:/Users/geoma/Desktop/Scilab/toolboxes/STM32_toolbox_1-1/scicos_blocks/src/c\convert.c ****             }
1258:C:/Users/geoma/Desktop/Scilab/toolboxes/STM32_toolbox_1-1/scicos_blocks/src/c\convert.c ****             case 67:
1259:C:/Users/geoma/Desktop/Scilab/toolboxes/STM32_toolbox_1-1/scicos_blocks/src/c\convert.c ****             {
1260:C:/Users/geoma/Desktop/Scilab/toolboxes/STM32_toolbox_1-1/scicos_blocks/src/c\convert.c ****                 SCSREAL_COP *u = NULL;
1261:C:/Users/geoma/Desktop/Scilab/toolboxes/STM32_toolbox_1-1/scicos_blocks/src/c\convert.c ****                 SCSINT8_COP *y = NULL;
1262:C:/Users/geoma/Desktop/Scilab/toolboxes/STM32_toolbox_1-1/scicos_blocks/src/c\convert.c ****                 u = GetRealInPortPtrs(block, 1);
 3919              		.loc 1 1262 0 is_stmt 1
 3920 171e 436C     		ldr	r3, [r0, #68]
 3921 1720 D3F80090 		ldr	r9, [r3]
 3922              	.LVL676:
1263:C:/Users/geoma/Desktop/Scilab/toolboxes/STM32_toolbox_1-1/scicos_blocks/src/c\convert.c ****                 y = Getint8OutPortPtrs(block, 1);
 3923              		.loc 1 1263 0
 3924 1724 036D     		ldr	r3, [r0, #80]
 3925 1726 1B68     		ldr	r3, [r3]
 3926 1728 0093     		str	r3, [sp]
 3927              	.LVL677:
1264:C:/Users/geoma/Desktop/Scilab/toolboxes/STM32_toolbox_1-1/scicos_blocks/src/c\convert.c ****                 k = pow(2, 8);
1265:C:/Users/geoma/Desktop/Scilab/toolboxes/STM32_toolbox_1-1/scicos_blocks/src/c\convert.c ****                 for (i = 0; i < m * n; i++)
 3928              		.loc 1 1265 0
 3929 172a 0027     		movs	r7, #0
 3930 172c 2AE0     		b	.L340
 3931              	.LVL678:
 3932              	.L345:
1266:C:/Users/geoma/Desktop/Scilab/toolboxes/STM32_toolbox_1-1/scicos_blocks/src/c\convert.c ****                 {
1267:C:/Users/geoma/Desktop/Scilab/toolboxes/STM32_toolbox_1-1/scicos_blocks/src/c\convert.c ****                     if ((u[i] > k / 2 - 1) | (u[i] < -(k / 2)))
 3933              		.loc 1 1267 0
 3934 172e B846     		mov	r8, r7
 3935 1730 09EBC703 		add	r3, r9, r7, lsl #3
 3936 1734 93ED008B 		fldd	d8, [r3]
 3937 1738 4FF00106 		mov	r6, #1
 3938 173c 51EC180B 		fmrrd	r0, r1, d8
 3939 1740 85A3     		adr	r3, .L540+8
 3940 1742 D3E90023 		ldrd	r2, [r3]
 3941 1746 FFF7FEFF 		bl	__aeabi_dcmpgt
 3942              	.LVL679:
 3943 174a 08B9     		cbnz	r0, .L341
 3944 174c 4FF00006 		mov	r6, #0
 3945              	.L341:
 3946 1750 4FF00105 		mov	r5, #1
 3947 1754 51EC180B 		fmrrd	r0, r1, d8
 3948 1758 0022     		movs	r2, #0
 3949 175a 834B     		ldr	r3, .L540+24
 3950 175c FFF7FEFF 		bl	__aeabi_dcmplt
 3951              	.LVL680:
 3952 1760 08B9     		cbnz	r0, .L342
 3953 1762 4FF00005 		mov	r5, #0
 3954              	.L342:
 3955 1766 3543     		orrs	r5, r5, r6
 3956 1768 15F0FF0F 		tst	r5, #255
 3957 176c 02D0     		beq	.L343
1268:C:/Users/geoma/Desktop/Scilab/toolboxes/STM32_toolbox_1-1/scicos_blocks/src/c\convert.c ****                     {
1269:C:/Users/geoma/Desktop/Scilab/toolboxes/STM32_toolbox_1-1/scicos_blocks/src/c\convert.c ****                         if (flag == 1)
 3958              		.loc 1 1269 0
 3959 176e 012C     		cmp	r4, #1
 3960 1770 07D1     		bne	.L344
ARM GAS  C:\Users\geoma\AppData\Local\Temp\ccpZNVPJ.s 			page 95


 3961 1772 71E3     		b	.L1
 3962              	.L343:
1270:C:/Users/geoma/Desktop/Scilab/toolboxes/STM32_toolbox_1-1/scicos_blocks/src/c\convert.c ****                         {
1271:C:/Users/geoma/Desktop/Scilab/toolboxes/STM32_toolbox_1-1/scicos_blocks/src/c\convert.c ****                             //scicos_print(_("overflow error"));
1272:C:/Users/geoma/Desktop/Scilab/toolboxes/STM32_toolbox_1-1/scicos_blocks/src/c\convert.c ****                             //set_block_error(-4);
1273:C:/Users/geoma/Desktop/Scilab/toolboxes/STM32_toolbox_1-1/scicos_blocks/src/c\convert.c ****                             return;
1274:C:/Users/geoma/Desktop/Scilab/toolboxes/STM32_toolbox_1-1/scicos_blocks/src/c\convert.c ****                         }
1275:C:/Users/geoma/Desktop/Scilab/toolboxes/STM32_toolbox_1-1/scicos_blocks/src/c\convert.c ****                     }
1276:C:/Users/geoma/Desktop/Scilab/toolboxes/STM32_toolbox_1-1/scicos_blocks/src/c\convert.c ****                     else
1277:C:/Users/geoma/Desktop/Scilab/toolboxes/STM32_toolbox_1-1/scicos_blocks/src/c\convert.c ****                     {
1278:C:/Users/geoma/Desktop/Scilab/toolboxes/STM32_toolbox_1-1/scicos_blocks/src/c\convert.c ****                         y[i] = (SCSINT8_COP)(u[i]);
 3963              		.loc 1 1278 0
 3964 1774 51EC180B 		fmrrd	r0, r1, d8
 3965 1778 FFF7FEFF 		bl	__aeabi_d2uiz
 3966              	.LVL681:
 3967 177c 009B     		ldr	r3, [sp]
 3968 177e 03F80800 		strb	r0, [r3, r8]
 3969              	.L344:
1265:C:/Users/geoma/Desktop/Scilab/toolboxes/STM32_toolbox_1-1/scicos_blocks/src/c\convert.c ****                 {
 3970              		.loc 1 1265 0 discriminator 2
 3971 1782 0137     		adds	r7, r7, #1
 3972              	.LVL682:
 3973              	.L340:
1265:C:/Users/geoma/Desktop/Scilab/toolboxes/STM32_toolbox_1-1/scicos_blocks/src/c\convert.c ****                 {
 3974              		.loc 1 1265 0 is_stmt 0 discriminator 1
 3975 1784 0AFB0BF3 		mul	r3, r10, fp
 3976 1788 BB42     		cmp	r3, r7
 3977 178a D0DC     		bgt	.L345
 3978 178c 64E3     		b	.L1
 3979              	.LVL683:
 3980              	.L71:
 3981              	.LBE68:
 3982              	.LBB69:
1279:C:/Users/geoma/Desktop/Scilab/toolboxes/STM32_toolbox_1-1/scicos_blocks/src/c\convert.c ****                     }
1280:C:/Users/geoma/Desktop/Scilab/toolboxes/STM32_toolbox_1-1/scicos_blocks/src/c\convert.c ****                 }
1281:C:/Users/geoma/Desktop/Scilab/toolboxes/STM32_toolbox_1-1/scicos_blocks/src/c\convert.c ****                 break;
1282:C:/Users/geoma/Desktop/Scilab/toolboxes/STM32_toolbox_1-1/scicos_blocks/src/c\convert.c ****             }
1283:C:/Users/geoma/Desktop/Scilab/toolboxes/STM32_toolbox_1-1/scicos_blocks/src/c\convert.c ****             case 68:
1284:C:/Users/geoma/Desktop/Scilab/toolboxes/STM32_toolbox_1-1/scicos_blocks/src/c\convert.c ****             {
1285:C:/Users/geoma/Desktop/Scilab/toolboxes/STM32_toolbox_1-1/scicos_blocks/src/c\convert.c ****                 SCSREAL_COP *u = NULL;
1286:C:/Users/geoma/Desktop/Scilab/toolboxes/STM32_toolbox_1-1/scicos_blocks/src/c\convert.c ****                 SCSUINT32_COP *y = NULL;
1287:C:/Users/geoma/Desktop/Scilab/toolboxes/STM32_toolbox_1-1/scicos_blocks/src/c\convert.c ****                 u = GetRealInPortPtrs(block, 1);
 3983              		.loc 1 1287 0 is_stmt 1
 3984 178e 436C     		ldr	r3, [r0, #68]
 3985 1790 D3F80090 		ldr	r9, [r3]
 3986              	.LVL684:
1288:C:/Users/geoma/Desktop/Scilab/toolboxes/STM32_toolbox_1-1/scicos_blocks/src/c\convert.c ****                 y = Getuint32OutPortPtrs(block, 1);
 3987              		.loc 1 1288 0
 3988 1794 036D     		ldr	r3, [r0, #80]
 3989 1796 1B68     		ldr	r3, [r3]
 3990 1798 0093     		str	r3, [sp]
 3991              	.LVL685:
1289:C:/Users/geoma/Desktop/Scilab/toolboxes/STM32_toolbox_1-1/scicos_blocks/src/c\convert.c ****                 k = pow(2, 32);
1290:C:/Users/geoma/Desktop/Scilab/toolboxes/STM32_toolbox_1-1/scicos_blocks/src/c\convert.c ****                 for (i = 0; i < m * n; i++)
 3992              		.loc 1 1290 0
 3993 179a 0027     		movs	r7, #0
 3994 179c 29E0     		b	.L346
ARM GAS  C:\Users\geoma\AppData\Local\Temp\ccpZNVPJ.s 			page 96


 3995              	.LVL686:
 3996              	.L351:
1291:C:/Users/geoma/Desktop/Scilab/toolboxes/STM32_toolbox_1-1/scicos_blocks/src/c\convert.c ****                 {
1292:C:/Users/geoma/Desktop/Scilab/toolboxes/STM32_toolbox_1-1/scicos_blocks/src/c\convert.c ****                     if ((u[i] >= k) | (u[i] < 0))
 3997              		.loc 1 1292 0
 3998 179e B846     		mov	r8, r7
 3999 17a0 09EBC703 		add	r3, r9, r7, lsl #3
 4000 17a4 93ED008B 		fldd	d8, [r3]
 4001 17a8 4FF00106 		mov	r6, #1
 4002 17ac 51EC180B 		fmrrd	r0, r1, d8
 4003 17b0 0022     		movs	r2, #0
 4004 17b2 6E4B     		ldr	r3, .L540+28
 4005 17b4 FFF7FEFF 		bl	__aeabi_dcmpge
 4006              	.LVL687:
 4007 17b8 08B9     		cbnz	r0, .L347
 4008 17ba 4FF00006 		mov	r6, #0
 4009              	.L347:
 4010 17be 4FF00105 		mov	r5, #1
 4011 17c2 51EC180B 		fmrrd	r0, r1, d8
 4012 17c6 0022     		movs	r2, #0
 4013 17c8 0023     		movs	r3, #0
 4014 17ca FFF7FEFF 		bl	__aeabi_dcmplt
 4015              	.LVL688:
 4016 17ce 08B9     		cbnz	r0, .L348
 4017 17d0 4FF00005 		mov	r5, #0
 4018              	.L348:
 4019 17d4 3543     		orrs	r5, r5, r6
 4020 17d6 15F0FF0F 		tst	r5, #255
 4021 17da 02D0     		beq	.L349
1293:C:/Users/geoma/Desktop/Scilab/toolboxes/STM32_toolbox_1-1/scicos_blocks/src/c\convert.c ****                     {
1294:C:/Users/geoma/Desktop/Scilab/toolboxes/STM32_toolbox_1-1/scicos_blocks/src/c\convert.c ****                         if (flag == 1)
 4022              		.loc 1 1294 0
 4023 17dc 012C     		cmp	r4, #1
 4024 17de 07D1     		bne	.L350
 4025 17e0 3AE3     		b	.L1
 4026              	.L349:
1295:C:/Users/geoma/Desktop/Scilab/toolboxes/STM32_toolbox_1-1/scicos_blocks/src/c\convert.c ****                         {
1296:C:/Users/geoma/Desktop/Scilab/toolboxes/STM32_toolbox_1-1/scicos_blocks/src/c\convert.c ****                             //scicos_print(_("overflow error"));
1297:C:/Users/geoma/Desktop/Scilab/toolboxes/STM32_toolbox_1-1/scicos_blocks/src/c\convert.c ****                             //set_block_error(-4);
1298:C:/Users/geoma/Desktop/Scilab/toolboxes/STM32_toolbox_1-1/scicos_blocks/src/c\convert.c ****                             return;
1299:C:/Users/geoma/Desktop/Scilab/toolboxes/STM32_toolbox_1-1/scicos_blocks/src/c\convert.c ****                         }
1300:C:/Users/geoma/Desktop/Scilab/toolboxes/STM32_toolbox_1-1/scicos_blocks/src/c\convert.c ****                     }
1301:C:/Users/geoma/Desktop/Scilab/toolboxes/STM32_toolbox_1-1/scicos_blocks/src/c\convert.c ****                     else
1302:C:/Users/geoma/Desktop/Scilab/toolboxes/STM32_toolbox_1-1/scicos_blocks/src/c\convert.c ****                     {
1303:C:/Users/geoma/Desktop/Scilab/toolboxes/STM32_toolbox_1-1/scicos_blocks/src/c\convert.c ****                         y[i] = (SCSUINT32_COP)(u[i]);
 4027              		.loc 1 1303 0
 4028 17e2 51EC180B 		fmrrd	r0, r1, d8
 4029 17e6 FFF7FEFF 		bl	__aeabi_d2uiz
 4030              	.LVL689:
 4031 17ea 009B     		ldr	r3, [sp]
 4032 17ec 43F82800 		str	r0, [r3, r8, lsl #2]
 4033              	.L350:
1290:C:/Users/geoma/Desktop/Scilab/toolboxes/STM32_toolbox_1-1/scicos_blocks/src/c\convert.c ****                 {
 4034              		.loc 1 1290 0 discriminator 2
 4035 17f0 0137     		adds	r7, r7, #1
 4036              	.LVL690:
 4037              	.L346:
ARM GAS  C:\Users\geoma\AppData\Local\Temp\ccpZNVPJ.s 			page 97


1290:C:/Users/geoma/Desktop/Scilab/toolboxes/STM32_toolbox_1-1/scicos_blocks/src/c\convert.c ****                 {
 4038              		.loc 1 1290 0 is_stmt 0 discriminator 1
 4039 17f2 0AFB0BF3 		mul	r3, r10, fp
 4040 17f6 BB42     		cmp	r3, r7
 4041 17f8 D1DC     		bgt	.L351
 4042 17fa 2DE3     		b	.L1
 4043              	.LVL691:
 4044              	.L72:
 4045              	.LBE69:
 4046              	.LBB70:
1304:C:/Users/geoma/Desktop/Scilab/toolboxes/STM32_toolbox_1-1/scicos_blocks/src/c\convert.c ****                     }
1305:C:/Users/geoma/Desktop/Scilab/toolboxes/STM32_toolbox_1-1/scicos_blocks/src/c\convert.c ****                 }
1306:C:/Users/geoma/Desktop/Scilab/toolboxes/STM32_toolbox_1-1/scicos_blocks/src/c\convert.c ****                 break;
1307:C:/Users/geoma/Desktop/Scilab/toolboxes/STM32_toolbox_1-1/scicos_blocks/src/c\convert.c ****             }
1308:C:/Users/geoma/Desktop/Scilab/toolboxes/STM32_toolbox_1-1/scicos_blocks/src/c\convert.c ****             case 69:
1309:C:/Users/geoma/Desktop/Scilab/toolboxes/STM32_toolbox_1-1/scicos_blocks/src/c\convert.c ****             {
1310:C:/Users/geoma/Desktop/Scilab/toolboxes/STM32_toolbox_1-1/scicos_blocks/src/c\convert.c ****                 SCSREAL_COP *u = NULL;
1311:C:/Users/geoma/Desktop/Scilab/toolboxes/STM32_toolbox_1-1/scicos_blocks/src/c\convert.c ****                 SCSUINT16_COP *y = NULL;
1312:C:/Users/geoma/Desktop/Scilab/toolboxes/STM32_toolbox_1-1/scicos_blocks/src/c\convert.c ****                 u = GetRealInPortPtrs(block, 1);
 4047              		.loc 1 1312 0 is_stmt 1
 4048 17fc 436C     		ldr	r3, [r0, #68]
 4049 17fe D3F80090 		ldr	r9, [r3]
 4050              	.LVL692:
1313:C:/Users/geoma/Desktop/Scilab/toolboxes/STM32_toolbox_1-1/scicos_blocks/src/c\convert.c ****                 y = Getuint16OutPortPtrs(block, 1);
 4051              		.loc 1 1313 0
 4052 1802 036D     		ldr	r3, [r0, #80]
 4053 1804 1B68     		ldr	r3, [r3]
 4054 1806 0093     		str	r3, [sp]
 4055              	.LVL693:
1314:C:/Users/geoma/Desktop/Scilab/toolboxes/STM32_toolbox_1-1/scicos_blocks/src/c\convert.c ****                 k = pow(2, 16);
1315:C:/Users/geoma/Desktop/Scilab/toolboxes/STM32_toolbox_1-1/scicos_blocks/src/c\convert.c ****                 for (i = 0; i < m * n; i++)
 4056              		.loc 1 1315 0
 4057 1808 0027     		movs	r7, #0
 4058 180a 29E0     		b	.L352
 4059              	.LVL694:
 4060              	.L357:
1316:C:/Users/geoma/Desktop/Scilab/toolboxes/STM32_toolbox_1-1/scicos_blocks/src/c\convert.c ****                 {
1317:C:/Users/geoma/Desktop/Scilab/toolboxes/STM32_toolbox_1-1/scicos_blocks/src/c\convert.c ****                     if ((u[i] >= k) | (u[i] < 0))
 4061              		.loc 1 1317 0
 4062 180c B846     		mov	r8, r7
 4063 180e 09EBC703 		add	r3, r9, r7, lsl #3
 4064 1812 93ED008B 		fldd	d8, [r3]
 4065 1816 4FF00106 		mov	r6, #1
 4066 181a 51EC180B 		fmrrd	r0, r1, d8
 4067 181e 0022     		movs	r2, #0
 4068 1820 534B     		ldr	r3, .L540+32
 4069 1822 FFF7FEFF 		bl	__aeabi_dcmpge
 4070              	.LVL695:
 4071 1826 08B9     		cbnz	r0, .L353
 4072 1828 4FF00006 		mov	r6, #0
 4073              	.L353:
 4074 182c 4FF00105 		mov	r5, #1
 4075 1830 51EC180B 		fmrrd	r0, r1, d8
 4076 1834 0022     		movs	r2, #0
 4077 1836 0023     		movs	r3, #0
 4078 1838 FFF7FEFF 		bl	__aeabi_dcmplt
 4079              	.LVL696:
ARM GAS  C:\Users\geoma\AppData\Local\Temp\ccpZNVPJ.s 			page 98


 4080 183c 08B9     		cbnz	r0, .L354
 4081 183e 4FF00005 		mov	r5, #0
 4082              	.L354:
 4083 1842 3543     		orrs	r5, r5, r6
 4084 1844 15F0FF0F 		tst	r5, #255
 4085 1848 02D0     		beq	.L355
1318:C:/Users/geoma/Desktop/Scilab/toolboxes/STM32_toolbox_1-1/scicos_blocks/src/c\convert.c ****                     {
1319:C:/Users/geoma/Desktop/Scilab/toolboxes/STM32_toolbox_1-1/scicos_blocks/src/c\convert.c ****                         if (flag == 1)
 4086              		.loc 1 1319 0
 4087 184a 012C     		cmp	r4, #1
 4088 184c 07D1     		bne	.L356
 4089 184e 03E3     		b	.L1
 4090              	.L355:
1320:C:/Users/geoma/Desktop/Scilab/toolboxes/STM32_toolbox_1-1/scicos_blocks/src/c\convert.c ****                         {
1321:C:/Users/geoma/Desktop/Scilab/toolboxes/STM32_toolbox_1-1/scicos_blocks/src/c\convert.c ****                             //scicos_print(_("overflow error"));
1322:C:/Users/geoma/Desktop/Scilab/toolboxes/STM32_toolbox_1-1/scicos_blocks/src/c\convert.c ****                             //set_block_error(-4);
1323:C:/Users/geoma/Desktop/Scilab/toolboxes/STM32_toolbox_1-1/scicos_blocks/src/c\convert.c ****                             return;
1324:C:/Users/geoma/Desktop/Scilab/toolboxes/STM32_toolbox_1-1/scicos_blocks/src/c\convert.c ****                         }
1325:C:/Users/geoma/Desktop/Scilab/toolboxes/STM32_toolbox_1-1/scicos_blocks/src/c\convert.c ****                     }
1326:C:/Users/geoma/Desktop/Scilab/toolboxes/STM32_toolbox_1-1/scicos_blocks/src/c\convert.c ****                     else
1327:C:/Users/geoma/Desktop/Scilab/toolboxes/STM32_toolbox_1-1/scicos_blocks/src/c\convert.c ****                     {
1328:C:/Users/geoma/Desktop/Scilab/toolboxes/STM32_toolbox_1-1/scicos_blocks/src/c\convert.c ****                         y[i] = (SCSUINT16_COP)(u[i]);
 4091              		.loc 1 1328 0
 4092 1850 51EC180B 		fmrrd	r0, r1, d8
 4093 1854 FFF7FEFF 		bl	__aeabi_d2uiz
 4094              	.LVL697:
 4095 1858 009B     		ldr	r3, [sp]
 4096 185a 23F81800 		strh	r0, [r3, r8, lsl #1]	@ movhi
 4097              	.L356:
1315:C:/Users/geoma/Desktop/Scilab/toolboxes/STM32_toolbox_1-1/scicos_blocks/src/c\convert.c ****                 {
 4098              		.loc 1 1315 0 discriminator 2
 4099 185e 0137     		adds	r7, r7, #1
 4100              	.LVL698:
 4101              	.L352:
1315:C:/Users/geoma/Desktop/Scilab/toolboxes/STM32_toolbox_1-1/scicos_blocks/src/c\convert.c ****                 {
 4102              		.loc 1 1315 0 is_stmt 0 discriminator 1
 4103 1860 0AFB0BF3 		mul	r3, r10, fp
 4104 1864 BB42     		cmp	r3, r7
 4105 1866 D1DC     		bgt	.L357
 4106 1868 F6E2     		b	.L1
 4107              	.LVL699:
 4108              	.L73:
 4109              	.LBE70:
 4110              	.LBB71:
1329:C:/Users/geoma/Desktop/Scilab/toolboxes/STM32_toolbox_1-1/scicos_blocks/src/c\convert.c ****                     }
1330:C:/Users/geoma/Desktop/Scilab/toolboxes/STM32_toolbox_1-1/scicos_blocks/src/c\convert.c ****                 }
1331:C:/Users/geoma/Desktop/Scilab/toolboxes/STM32_toolbox_1-1/scicos_blocks/src/c\convert.c ****                 break;
1332:C:/Users/geoma/Desktop/Scilab/toolboxes/STM32_toolbox_1-1/scicos_blocks/src/c\convert.c ****             }
1333:C:/Users/geoma/Desktop/Scilab/toolboxes/STM32_toolbox_1-1/scicos_blocks/src/c\convert.c ****             case 70:
1334:C:/Users/geoma/Desktop/Scilab/toolboxes/STM32_toolbox_1-1/scicos_blocks/src/c\convert.c ****             {
1335:C:/Users/geoma/Desktop/Scilab/toolboxes/STM32_toolbox_1-1/scicos_blocks/src/c\convert.c ****                 SCSREAL_COP *u = NULL;
1336:C:/Users/geoma/Desktop/Scilab/toolboxes/STM32_toolbox_1-1/scicos_blocks/src/c\convert.c ****                 SCSUINT8_COP *y = NULL;
1337:C:/Users/geoma/Desktop/Scilab/toolboxes/STM32_toolbox_1-1/scicos_blocks/src/c\convert.c ****                 u = GetRealInPortPtrs(block, 1);
 4111              		.loc 1 1337 0 is_stmt 1
 4112 186a 436C     		ldr	r3, [r0, #68]
 4113 186c D3F80090 		ldr	r9, [r3]
 4114              	.LVL700:
ARM GAS  C:\Users\geoma\AppData\Local\Temp\ccpZNVPJ.s 			page 99


1338:C:/Users/geoma/Desktop/Scilab/toolboxes/STM32_toolbox_1-1/scicos_blocks/src/c\convert.c ****                 y = Getuint8OutPortPtrs(block, 1);
 4115              		.loc 1 1338 0
 4116 1870 036D     		ldr	r3, [r0, #80]
 4117 1872 1B68     		ldr	r3, [r3]
 4118 1874 0093     		str	r3, [sp]
 4119              	.LVL701:
1339:C:/Users/geoma/Desktop/Scilab/toolboxes/STM32_toolbox_1-1/scicos_blocks/src/c\convert.c ****                 k = pow(2, 8);
1340:C:/Users/geoma/Desktop/Scilab/toolboxes/STM32_toolbox_1-1/scicos_blocks/src/c\convert.c ****                 for (i = 0; i < m * n; i++)
 4120              		.loc 1 1340 0
 4121 1876 0027     		movs	r7, #0
 4122 1878 29E0     		b	.L358
 4123              	.LVL702:
 4124              	.L363:
1341:C:/Users/geoma/Desktop/Scilab/toolboxes/STM32_toolbox_1-1/scicos_blocks/src/c\convert.c ****                 {
1342:C:/Users/geoma/Desktop/Scilab/toolboxes/STM32_toolbox_1-1/scicos_blocks/src/c\convert.c ****                     if ((u[i] >= k) | (u[i] < 0))
 4125              		.loc 1 1342 0
 4126 187a B846     		mov	r8, r7
 4127 187c 09EBC703 		add	r3, r9, r7, lsl #3
 4128 1880 93ED008B 		fldd	d8, [r3]
 4129 1884 4FF00106 		mov	r6, #1
 4130 1888 51EC180B 		fmrrd	r0, r1, d8
 4131 188c 0022     		movs	r2, #0
 4132 188e 394B     		ldr	r3, .L540+36
 4133 1890 FFF7FEFF 		bl	__aeabi_dcmpge
 4134              	.LVL703:
 4135 1894 08B9     		cbnz	r0, .L359
 4136 1896 4FF00006 		mov	r6, #0
 4137              	.L359:
 4138 189a 4FF00105 		mov	r5, #1
 4139 189e 51EC180B 		fmrrd	r0, r1, d8
 4140 18a2 0022     		movs	r2, #0
 4141 18a4 0023     		movs	r3, #0
 4142 18a6 FFF7FEFF 		bl	__aeabi_dcmplt
 4143              	.LVL704:
 4144 18aa 08B9     		cbnz	r0, .L360
 4145 18ac 4FF00005 		mov	r5, #0
 4146              	.L360:
 4147 18b0 3543     		orrs	r5, r5, r6
 4148 18b2 15F0FF0F 		tst	r5, #255
 4149 18b6 02D0     		beq	.L361
1343:C:/Users/geoma/Desktop/Scilab/toolboxes/STM32_toolbox_1-1/scicos_blocks/src/c\convert.c ****                     {
1344:C:/Users/geoma/Desktop/Scilab/toolboxes/STM32_toolbox_1-1/scicos_blocks/src/c\convert.c ****                         if (flag == 1)
 4150              		.loc 1 1344 0
 4151 18b8 012C     		cmp	r4, #1
 4152 18ba 07D1     		bne	.L362
 4153 18bc CCE2     		b	.L1
 4154              	.L361:
1345:C:/Users/geoma/Desktop/Scilab/toolboxes/STM32_toolbox_1-1/scicos_blocks/src/c\convert.c ****                         {
1346:C:/Users/geoma/Desktop/Scilab/toolboxes/STM32_toolbox_1-1/scicos_blocks/src/c\convert.c ****                             //scicos_print(_("overflow error"));
1347:C:/Users/geoma/Desktop/Scilab/toolboxes/STM32_toolbox_1-1/scicos_blocks/src/c\convert.c ****                             //set_block_error(-4);
1348:C:/Users/geoma/Desktop/Scilab/toolboxes/STM32_toolbox_1-1/scicos_blocks/src/c\convert.c ****                             return;
1349:C:/Users/geoma/Desktop/Scilab/toolboxes/STM32_toolbox_1-1/scicos_blocks/src/c\convert.c ****                         }
1350:C:/Users/geoma/Desktop/Scilab/toolboxes/STM32_toolbox_1-1/scicos_blocks/src/c\convert.c ****                     }
1351:C:/Users/geoma/Desktop/Scilab/toolboxes/STM32_toolbox_1-1/scicos_blocks/src/c\convert.c ****                     else
1352:C:/Users/geoma/Desktop/Scilab/toolboxes/STM32_toolbox_1-1/scicos_blocks/src/c\convert.c ****                     {
1353:C:/Users/geoma/Desktop/Scilab/toolboxes/STM32_toolbox_1-1/scicos_blocks/src/c\convert.c ****                         y[i] = (SCSUINT8_COP)(u[i]);
 4155              		.loc 1 1353 0
ARM GAS  C:\Users\geoma\AppData\Local\Temp\ccpZNVPJ.s 			page 100


 4156 18be 51EC180B 		fmrrd	r0, r1, d8
 4157 18c2 FFF7FEFF 		bl	__aeabi_d2uiz
 4158              	.LVL705:
 4159 18c6 009B     		ldr	r3, [sp]
 4160 18c8 03F80800 		strb	r0, [r3, r8]
 4161              	.L362:
1340:C:/Users/geoma/Desktop/Scilab/toolboxes/STM32_toolbox_1-1/scicos_blocks/src/c\convert.c ****                 {
 4162              		.loc 1 1340 0 discriminator 2
 4163 18cc 0137     		adds	r7, r7, #1
 4164              	.LVL706:
 4165              	.L358:
1340:C:/Users/geoma/Desktop/Scilab/toolboxes/STM32_toolbox_1-1/scicos_blocks/src/c\convert.c ****                 {
 4166              		.loc 1 1340 0 is_stmt 0 discriminator 1
 4167 18ce 0AFB0BF3 		mul	r3, r10, fp
 4168 18d2 BB42     		cmp	r3, r7
 4169 18d4 D1DC     		bgt	.L363
 4170 18d6 BFE2     		b	.L1
 4171              	.LVL707:
 4172              	.L74:
 4173              	.LBE71:
 4174              	.LBB72:
1354:C:/Users/geoma/Desktop/Scilab/toolboxes/STM32_toolbox_1-1/scicos_blocks/src/c\convert.c ****                     }
1355:C:/Users/geoma/Desktop/Scilab/toolboxes/STM32_toolbox_1-1/scicos_blocks/src/c\convert.c ****                 }
1356:C:/Users/geoma/Desktop/Scilab/toolboxes/STM32_toolbox_1-1/scicos_blocks/src/c\convert.c ****                 break;
1357:C:/Users/geoma/Desktop/Scilab/toolboxes/STM32_toolbox_1-1/scicos_blocks/src/c\convert.c ****             }
1358:C:/Users/geoma/Desktop/Scilab/toolboxes/STM32_toolbox_1-1/scicos_blocks/src/c\convert.c ****             case 71:
1359:C:/Users/geoma/Desktop/Scilab/toolboxes/STM32_toolbox_1-1/scicos_blocks/src/c\convert.c ****             {
1360:C:/Users/geoma/Desktop/Scilab/toolboxes/STM32_toolbox_1-1/scicos_blocks/src/c\convert.c ****                 SCSINT32_COP *u = NULL;
1361:C:/Users/geoma/Desktop/Scilab/toolboxes/STM32_toolbox_1-1/scicos_blocks/src/c\convert.c ****                 SCSINT16_COP *y = NULL;
1362:C:/Users/geoma/Desktop/Scilab/toolboxes/STM32_toolbox_1-1/scicos_blocks/src/c\convert.c ****                 u = Getint32InPortPtrs(block, 1);
 4175              		.loc 1 1362 0 is_stmt 1
 4176 18d8 436C     		ldr	r3, [r0, #68]
 4177 18da 1F68     		ldr	r7, [r3]
 4178              	.LVL708:
1363:C:/Users/geoma/Desktop/Scilab/toolboxes/STM32_toolbox_1-1/scicos_blocks/src/c\convert.c ****                 y = Getint16OutPortPtrs(block, 1);
 4179              		.loc 1 1363 0
 4180 18dc 036D     		ldr	r3, [r0, #80]
 4181 18de 1B68     		ldr	r3, [r3]
 4182 18e0 0293     		str	r3, [sp, #8]
 4183              	.LVL709:
1364:C:/Users/geoma/Desktop/Scilab/toolboxes/STM32_toolbox_1-1/scicos_blocks/src/c\convert.c ****                 k = pow(2, 16);
1365:C:/Users/geoma/Desktop/Scilab/toolboxes/STM32_toolbox_1-1/scicos_blocks/src/c\convert.c ****                 for (i = 0; i < m * n; i++)
 4184              		.loc 1 1365 0
 4185 18e2 4FF00009 		mov	r9, #0
 4186 18e6 0494     		str	r4, [sp, #16]
 4187 18e8 2AE0     		b	.L364
 4188              	.LVL710:
 4189              	.L369:
1366:C:/Users/geoma/Desktop/Scilab/toolboxes/STM32_toolbox_1-1/scicos_blocks/src/c\convert.c ****                 {
1367:C:/Users/geoma/Desktop/Scilab/toolboxes/STM32_toolbox_1-1/scicos_blocks/src/c\convert.c ****                     if ((u[i] > k / 2 - 1) | (u[i] < -(k / 2)))
 4190              		.loc 1 1367 0
 4191 18ea 4C46     		mov	r4, r9
 4192 18ec 57F82960 		ldr	r6, [r7, r9, lsl #2]
 4193 18f0 3046     		mov	r0, r6
 4194 18f2 FFF7FEFF 		bl	__aeabi_i2d
 4195              	.LVL711:
 4196 18f6 CDE90001 		strd	r0, [sp]
ARM GAS  C:\Users\geoma\AppData\Local\Temp\ccpZNVPJ.s 			page 101


 4197 18fa 4FF00108 		mov	r8, #1
 4198 18fe 14A3     		adr	r3, .L540
 4199 1900 D3E90023 		ldrd	r2, [r3]
 4200 1904 FFF7FEFF 		bl	__aeabi_dcmpgt
 4201              	.LVL712:
 4202 1908 08B9     		cbnz	r0, .L365
 4203              	.LVL713:
 4204 190a 4FF00008 		mov	r8, #0
 4205              	.L365:
 4206 190e 4FF00105 		mov	r5, #1
 4207 1912 DDE90001 		ldrd	r0, [sp]
 4208 1916 0022     		movs	r2, #0
 4209 1918 124B     		ldr	r3, .L540+20
 4210 191a FFF7FEFF 		bl	__aeabi_dcmplt
 4211              	.LVL714:
 4212 191e 08B9     		cbnz	r0, .L366
 4213 1920 4FF00005 		mov	r5, #0
 4214              	.L366:
 4215 1924 48EA0505 		orr	r5, r8, r5
 4216 1928 15F0FF0F 		tst	r5, #255
 4217 192c 03D0     		beq	.L367
1368:C:/Users/geoma/Desktop/Scilab/toolboxes/STM32_toolbox_1-1/scicos_blocks/src/c\convert.c ****                     {
1369:C:/Users/geoma/Desktop/Scilab/toolboxes/STM32_toolbox_1-1/scicos_blocks/src/c\convert.c ****                         if (flag == 1)
 4218              		.loc 1 1369 0
 4219 192e 049B     		ldr	r3, [sp, #16]
 4220 1930 012B     		cmp	r3, #1
 4221 1932 03D1     		bne	.L368
 4222 1934 90E2     		b	.L1
 4223              	.L367:
1370:C:/Users/geoma/Desktop/Scilab/toolboxes/STM32_toolbox_1-1/scicos_blocks/src/c\convert.c ****                         {
1371:C:/Users/geoma/Desktop/Scilab/toolboxes/STM32_toolbox_1-1/scicos_blocks/src/c\convert.c ****                             //scicos_print(_("overflow error"));
1372:C:/Users/geoma/Desktop/Scilab/toolboxes/STM32_toolbox_1-1/scicos_blocks/src/c\convert.c ****                             //set_block_error(-4);
1373:C:/Users/geoma/Desktop/Scilab/toolboxes/STM32_toolbox_1-1/scicos_blocks/src/c\convert.c ****                             return;
1374:C:/Users/geoma/Desktop/Scilab/toolboxes/STM32_toolbox_1-1/scicos_blocks/src/c\convert.c ****                         }
1375:C:/Users/geoma/Desktop/Scilab/toolboxes/STM32_toolbox_1-1/scicos_blocks/src/c\convert.c ****                     }
1376:C:/Users/geoma/Desktop/Scilab/toolboxes/STM32_toolbox_1-1/scicos_blocks/src/c\convert.c ****                     else
1377:C:/Users/geoma/Desktop/Scilab/toolboxes/STM32_toolbox_1-1/scicos_blocks/src/c\convert.c ****                     {
1378:C:/Users/geoma/Desktop/Scilab/toolboxes/STM32_toolbox_1-1/scicos_blocks/src/c\convert.c ****                         y[i] = (SCSINT16_COP)(u[i]);
 4224              		.loc 1 1378 0
 4225 1936 029B     		ldr	r3, [sp, #8]
 4226 1938 23F81460 		strh	r6, [r3, r4, lsl #1]	@ movhi
 4227              	.L368:
1365:C:/Users/geoma/Desktop/Scilab/toolboxes/STM32_toolbox_1-1/scicos_blocks/src/c\convert.c ****                 {
 4228              		.loc 1 1365 0 discriminator 2
 4229 193c 09F10109 		add	r9, r9, #1
 4230              	.LVL715:
 4231              	.L364:
1365:C:/Users/geoma/Desktop/Scilab/toolboxes/STM32_toolbox_1-1/scicos_blocks/src/c\convert.c ****                 {
 4232              		.loc 1 1365 0 is_stmt 0 discriminator 1
 4233 1940 0AFB0BF3 		mul	r3, r10, fp
 4234 1944 4B45     		cmp	r3, r9
 4235 1946 D0DC     		bgt	.L369
 4236 1948 86E2     		b	.L1
 4237              	.L541:
 4238 194a 00BFAFF3 		.align	3
 4238      0080
 4239              	.L540:
ARM GAS  C:\Users\geoma\AppData\Local\Temp\ccpZNVPJ.s 			page 102


 4240 1950 00000000 		.word	0
 4241 1954 C0FFDF40 		.word	1088421824
 4242 1958 00000000 		.word	0
 4243 195c 00C05F40 		.word	1080016896
 4244 1960 0000E0C1 		.word	-1042284544
 4245 1964 0000E0C0 		.word	-1059061760
 4246 1968 000060C0 		.word	-1067450368
 4247 196c 0000F041 		.word	1106247680
 4248 1970 0000F040 		.word	1089470464
 4249 1974 00007040 		.word	1081081856
 4250 1978 0000C0FF 		.word	-4194304
 4251 197c FFFFDF41 		.word	1105199103
 4252              	.LVL716:
 4253              	.L75:
 4254              	.LBE72:
 4255              	.LBB73:
1379:C:/Users/geoma/Desktop/Scilab/toolboxes/STM32_toolbox_1-1/scicos_blocks/src/c\convert.c ****                     }
1380:C:/Users/geoma/Desktop/Scilab/toolboxes/STM32_toolbox_1-1/scicos_blocks/src/c\convert.c ****                 }
1381:C:/Users/geoma/Desktop/Scilab/toolboxes/STM32_toolbox_1-1/scicos_blocks/src/c\convert.c ****                 break;
1382:C:/Users/geoma/Desktop/Scilab/toolboxes/STM32_toolbox_1-1/scicos_blocks/src/c\convert.c ****             }
1383:C:/Users/geoma/Desktop/Scilab/toolboxes/STM32_toolbox_1-1/scicos_blocks/src/c\convert.c ****             case 72:
1384:C:/Users/geoma/Desktop/Scilab/toolboxes/STM32_toolbox_1-1/scicos_blocks/src/c\convert.c ****             {
1385:C:/Users/geoma/Desktop/Scilab/toolboxes/STM32_toolbox_1-1/scicos_blocks/src/c\convert.c ****                 SCSINT32_COP *u = NULL;
1386:C:/Users/geoma/Desktop/Scilab/toolboxes/STM32_toolbox_1-1/scicos_blocks/src/c\convert.c ****                 SCSINT8_COP *y = NULL;
1387:C:/Users/geoma/Desktop/Scilab/toolboxes/STM32_toolbox_1-1/scicos_blocks/src/c\convert.c ****                 u = Getint32InPortPtrs(block, 1);
 4256              		.loc 1 1387 0 is_stmt 1
 4257 1980 436C     		ldr	r3, [r0, #68]
 4258 1982 1F68     		ldr	r7, [r3]
 4259              	.LVL717:
1388:C:/Users/geoma/Desktop/Scilab/toolboxes/STM32_toolbox_1-1/scicos_blocks/src/c\convert.c ****                 y = Getint8OutPortPtrs(block, 1);
 4260              		.loc 1 1388 0
 4261 1984 036D     		ldr	r3, [r0, #80]
 4262 1986 1B68     		ldr	r3, [r3]
 4263 1988 0293     		str	r3, [sp, #8]
 4264              	.LVL718:
1389:C:/Users/geoma/Desktop/Scilab/toolboxes/STM32_toolbox_1-1/scicos_blocks/src/c\convert.c ****                 k = pow(2, 8);
1390:C:/Users/geoma/Desktop/Scilab/toolboxes/STM32_toolbox_1-1/scicos_blocks/src/c\convert.c ****                 for (i = 0; i < m * n; i++)
 4265              		.loc 1 1390 0
 4266 198a 4FF00009 		mov	r9, #0
 4267 198e 0494     		str	r4, [sp, #16]
 4268 1990 29E0     		b	.L370
 4269              	.LVL719:
 4270              	.L375:
1391:C:/Users/geoma/Desktop/Scilab/toolboxes/STM32_toolbox_1-1/scicos_blocks/src/c\convert.c ****                 {
1392:C:/Users/geoma/Desktop/Scilab/toolboxes/STM32_toolbox_1-1/scicos_blocks/src/c\convert.c ****                     if ((u[i] > k / 2 - 1) | (u[i] < -(k / 2)))
 4271              		.loc 1 1392 0
 4272 1992 4C46     		mov	r4, r9
 4273 1994 57F82960 		ldr	r6, [r7, r9, lsl #2]
 4274 1998 3046     		mov	r0, r6
 4275 199a FFF7FEFF 		bl	__aeabi_i2d
 4276              	.LVL720:
 4277 199e CDE90001 		strd	r0, [sp]
 4278 19a2 4FF00108 		mov	r8, #1
 4279 19a6 B2A3     		adr	r3, .L542
 4280 19a8 D3E90023 		ldrd	r2, [r3]
 4281 19ac FFF7FEFF 		bl	__aeabi_dcmpgt
 4282              	.LVL721:
ARM GAS  C:\Users\geoma\AppData\Local\Temp\ccpZNVPJ.s 			page 103


 4283 19b0 08B9     		cbnz	r0, .L371
 4284              	.LVL722:
 4285 19b2 4FF00008 		mov	r8, #0
 4286              	.L371:
 4287 19b6 4FF00105 		mov	r5, #1
 4288 19ba DDE90001 		ldrd	r0, [sp]
 4289 19be 0022     		movs	r2, #0
 4290 19c0 AF4B     		ldr	r3, .L542+16
 4291 19c2 FFF7FEFF 		bl	__aeabi_dcmplt
 4292              	.LVL723:
 4293 19c6 08B9     		cbnz	r0, .L372
 4294 19c8 4FF00005 		mov	r5, #0
 4295              	.L372:
 4296 19cc 48EA0505 		orr	r5, r8, r5
 4297 19d0 15F0FF0F 		tst	r5, #255
 4298 19d4 03D0     		beq	.L373
1393:C:/Users/geoma/Desktop/Scilab/toolboxes/STM32_toolbox_1-1/scicos_blocks/src/c\convert.c ****                     {
1394:C:/Users/geoma/Desktop/Scilab/toolboxes/STM32_toolbox_1-1/scicos_blocks/src/c\convert.c ****                         if (flag == 1)
 4299              		.loc 1 1394 0
 4300 19d6 049B     		ldr	r3, [sp, #16]
 4301 19d8 012B     		cmp	r3, #1
 4302 19da 02D1     		bne	.L374
 4303 19dc 3CE2     		b	.L1
 4304              	.L373:
1395:C:/Users/geoma/Desktop/Scilab/toolboxes/STM32_toolbox_1-1/scicos_blocks/src/c\convert.c ****                         {
1396:C:/Users/geoma/Desktop/Scilab/toolboxes/STM32_toolbox_1-1/scicos_blocks/src/c\convert.c ****                             //scicos_print(_("overflow error"));
1397:C:/Users/geoma/Desktop/Scilab/toolboxes/STM32_toolbox_1-1/scicos_blocks/src/c\convert.c ****                             //set_block_error(-4);
1398:C:/Users/geoma/Desktop/Scilab/toolboxes/STM32_toolbox_1-1/scicos_blocks/src/c\convert.c ****                             return;
1399:C:/Users/geoma/Desktop/Scilab/toolboxes/STM32_toolbox_1-1/scicos_blocks/src/c\convert.c ****                         }
1400:C:/Users/geoma/Desktop/Scilab/toolboxes/STM32_toolbox_1-1/scicos_blocks/src/c\convert.c ****                     }
1401:C:/Users/geoma/Desktop/Scilab/toolboxes/STM32_toolbox_1-1/scicos_blocks/src/c\convert.c ****                     else
1402:C:/Users/geoma/Desktop/Scilab/toolboxes/STM32_toolbox_1-1/scicos_blocks/src/c\convert.c ****                     {
1403:C:/Users/geoma/Desktop/Scilab/toolboxes/STM32_toolbox_1-1/scicos_blocks/src/c\convert.c ****                         y[i] = (SCSINT8_COP)(u[i]);
 4305              		.loc 1 1403 0
 4306 19de 029B     		ldr	r3, [sp, #8]
 4307 19e0 1E55     		strb	r6, [r3, r4]
 4308              	.L374:
1390:C:/Users/geoma/Desktop/Scilab/toolboxes/STM32_toolbox_1-1/scicos_blocks/src/c\convert.c ****                 {
 4309              		.loc 1 1390 0 discriminator 2
 4310 19e2 09F10109 		add	r9, r9, #1
 4311              	.LVL724:
 4312              	.L370:
1390:C:/Users/geoma/Desktop/Scilab/toolboxes/STM32_toolbox_1-1/scicos_blocks/src/c\convert.c ****                 {
 4313              		.loc 1 1390 0 is_stmt 0 discriminator 1
 4314 19e6 0AFB0BF3 		mul	r3, r10, fp
 4315 19ea 4B45     		cmp	r3, r9
 4316 19ec D1DC     		bgt	.L375
 4317 19ee 33E2     		b	.L1
 4318              	.LVL725:
 4319              	.L76:
 4320              	.LBE73:
 4321              	.LBB74:
1404:C:/Users/geoma/Desktop/Scilab/toolboxes/STM32_toolbox_1-1/scicos_blocks/src/c\convert.c ****                     }
1405:C:/Users/geoma/Desktop/Scilab/toolboxes/STM32_toolbox_1-1/scicos_blocks/src/c\convert.c ****                 }
1406:C:/Users/geoma/Desktop/Scilab/toolboxes/STM32_toolbox_1-1/scicos_blocks/src/c\convert.c ****                 break;
1407:C:/Users/geoma/Desktop/Scilab/toolboxes/STM32_toolbox_1-1/scicos_blocks/src/c\convert.c ****             }
1408:C:/Users/geoma/Desktop/Scilab/toolboxes/STM32_toolbox_1-1/scicos_blocks/src/c\convert.c ****             case 73:
ARM GAS  C:\Users\geoma\AppData\Local\Temp\ccpZNVPJ.s 			page 104


1409:C:/Users/geoma/Desktop/Scilab/toolboxes/STM32_toolbox_1-1/scicos_blocks/src/c\convert.c ****             {
1410:C:/Users/geoma/Desktop/Scilab/toolboxes/STM32_toolbox_1-1/scicos_blocks/src/c\convert.c ****                 SCSINT32_COP *u = NULL;
1411:C:/Users/geoma/Desktop/Scilab/toolboxes/STM32_toolbox_1-1/scicos_blocks/src/c\convert.c ****                 SCSUINT32_COP *y = NULL;
1412:C:/Users/geoma/Desktop/Scilab/toolboxes/STM32_toolbox_1-1/scicos_blocks/src/c\convert.c ****                 u = Getint32InPortPtrs(block, 1);
 4322              		.loc 1 1412 0 is_stmt 1
 4323 19f0 436C     		ldr	r3, [r0, #68]
 4324 19f2 1968     		ldr	r1, [r3]
 4325              	.LVL726:
1413:C:/Users/geoma/Desktop/Scilab/toolboxes/STM32_toolbox_1-1/scicos_blocks/src/c\convert.c ****                 y = Getuint32OutPortPtrs(block, 1);
 4326              		.loc 1 1413 0
 4327 19f4 036D     		ldr	r3, [r0, #80]
 4328 19f6 1868     		ldr	r0, [r3]
 4329              	.LVL727:
1414:C:/Users/geoma/Desktop/Scilab/toolboxes/STM32_toolbox_1-1/scicos_blocks/src/c\convert.c ****                 for (i = 0; i < m * n; i++)
 4330              		.loc 1 1414 0
 4331 19f8 0023     		movs	r3, #0
 4332 19fa 09E0     		b	.L376
 4333              	.LVL728:
 4334              	.L379:
1415:C:/Users/geoma/Desktop/Scilab/toolboxes/STM32_toolbox_1-1/scicos_blocks/src/c\convert.c ****                 {
1416:C:/Users/geoma/Desktop/Scilab/toolboxes/STM32_toolbox_1-1/scicos_blocks/src/c\convert.c ****                     if (u[i] < 0)
 4335              		.loc 1 1416 0
 4336 19fc 51F82320 		ldr	r2, [r1, r3, lsl #2]
 4337 1a00 002A     		cmp	r2, #0
 4338 1a02 02DA     		bge	.L377
1417:C:/Users/geoma/Desktop/Scilab/toolboxes/STM32_toolbox_1-1/scicos_blocks/src/c\convert.c ****                     {
1418:C:/Users/geoma/Desktop/Scilab/toolboxes/STM32_toolbox_1-1/scicos_blocks/src/c\convert.c ****                         if (flag == 1)
 4339              		.loc 1 1418 0
 4340 1a04 012C     		cmp	r4, #1
 4341 1a06 02D1     		bne	.L378
 4342 1a08 26E2     		b	.L1
 4343              	.L377:
1419:C:/Users/geoma/Desktop/Scilab/toolboxes/STM32_toolbox_1-1/scicos_blocks/src/c\convert.c ****                         {
1420:C:/Users/geoma/Desktop/Scilab/toolboxes/STM32_toolbox_1-1/scicos_blocks/src/c\convert.c ****                             //scicos_print(_("overflow error"));
1421:C:/Users/geoma/Desktop/Scilab/toolboxes/STM32_toolbox_1-1/scicos_blocks/src/c\convert.c ****                             //set_block_error(-4);
1422:C:/Users/geoma/Desktop/Scilab/toolboxes/STM32_toolbox_1-1/scicos_blocks/src/c\convert.c ****                             return;
1423:C:/Users/geoma/Desktop/Scilab/toolboxes/STM32_toolbox_1-1/scicos_blocks/src/c\convert.c ****                         }
1424:C:/Users/geoma/Desktop/Scilab/toolboxes/STM32_toolbox_1-1/scicos_blocks/src/c\convert.c ****                     }
1425:C:/Users/geoma/Desktop/Scilab/toolboxes/STM32_toolbox_1-1/scicos_blocks/src/c\convert.c ****                     else
1426:C:/Users/geoma/Desktop/Scilab/toolboxes/STM32_toolbox_1-1/scicos_blocks/src/c\convert.c ****                     {
1427:C:/Users/geoma/Desktop/Scilab/toolboxes/STM32_toolbox_1-1/scicos_blocks/src/c\convert.c ****                         y[i] = (SCSUINT32_COP)(u[i]);
 4344              		.loc 1 1427 0
 4345 1a0a 40F82320 		str	r2, [r0, r3, lsl #2]
 4346              	.L378:
1414:C:/Users/geoma/Desktop/Scilab/toolboxes/STM32_toolbox_1-1/scicos_blocks/src/c\convert.c ****                 {
 4347              		.loc 1 1414 0 discriminator 2
 4348 1a0e 0133     		adds	r3, r3, #1
 4349              	.LVL729:
 4350              	.L376:
1414:C:/Users/geoma/Desktop/Scilab/toolboxes/STM32_toolbox_1-1/scicos_blocks/src/c\convert.c ****                 {
 4351              		.loc 1 1414 0 is_stmt 0 discriminator 1
 4352 1a10 0AFB0BF2 		mul	r2, r10, fp
 4353 1a14 9A42     		cmp	r2, r3
 4354 1a16 F1DC     		bgt	.L379
 4355 1a18 1EE2     		b	.L1
 4356              	.LVL730:
 4357              	.L77:
ARM GAS  C:\Users\geoma\AppData\Local\Temp\ccpZNVPJ.s 			page 105


 4358              	.LBE74:
 4359              	.LBB75:
1428:C:/Users/geoma/Desktop/Scilab/toolboxes/STM32_toolbox_1-1/scicos_blocks/src/c\convert.c ****                     }
1429:C:/Users/geoma/Desktop/Scilab/toolboxes/STM32_toolbox_1-1/scicos_blocks/src/c\convert.c ****                 }
1430:C:/Users/geoma/Desktop/Scilab/toolboxes/STM32_toolbox_1-1/scicos_blocks/src/c\convert.c ****                 break;
1431:C:/Users/geoma/Desktop/Scilab/toolboxes/STM32_toolbox_1-1/scicos_blocks/src/c\convert.c ****             }
1432:C:/Users/geoma/Desktop/Scilab/toolboxes/STM32_toolbox_1-1/scicos_blocks/src/c\convert.c ****             case 74:
1433:C:/Users/geoma/Desktop/Scilab/toolboxes/STM32_toolbox_1-1/scicos_blocks/src/c\convert.c ****             {
1434:C:/Users/geoma/Desktop/Scilab/toolboxes/STM32_toolbox_1-1/scicos_blocks/src/c\convert.c ****                 SCSINT32_COP *u = NULL;
1435:C:/Users/geoma/Desktop/Scilab/toolboxes/STM32_toolbox_1-1/scicos_blocks/src/c\convert.c ****                 SCSUINT16_COP *y = NULL;
1436:C:/Users/geoma/Desktop/Scilab/toolboxes/STM32_toolbox_1-1/scicos_blocks/src/c\convert.c ****                 u = Getint32InPortPtrs(block, 1);
 4360              		.loc 1 1436 0 is_stmt 1
 4361 1a1a 436C     		ldr	r3, [r0, #68]
 4362 1a1c D3F80090 		ldr	r9, [r3]
 4363              	.LVL731:
1437:C:/Users/geoma/Desktop/Scilab/toolboxes/STM32_toolbox_1-1/scicos_blocks/src/c\convert.c ****                 y = Getuint16OutPortPtrs(block, 1);
 4364              		.loc 1 1437 0
 4365 1a20 036D     		ldr	r3, [r0, #80]
 4366 1a22 1B68     		ldr	r3, [r3]
 4367 1a24 0093     		str	r3, [sp]
 4368              	.LVL732:
1438:C:/Users/geoma/Desktop/Scilab/toolboxes/STM32_toolbox_1-1/scicos_blocks/src/c\convert.c ****                 k = pow(2, 16);
1439:C:/Users/geoma/Desktop/Scilab/toolboxes/STM32_toolbox_1-1/scicos_blocks/src/c\convert.c ****                 for (i = 0; i < m * n; i++)
 4369              		.loc 1 1439 0
 4370 1a26 0025     		movs	r5, #0
 4371 1a28 1AE0     		b	.L380
 4372              	.LVL733:
 4373              	.L384:
1440:C:/Users/geoma/Desktop/Scilab/toolboxes/STM32_toolbox_1-1/scicos_blocks/src/c\convert.c ****                 {
1441:C:/Users/geoma/Desktop/Scilab/toolboxes/STM32_toolbox_1-1/scicos_blocks/src/c\convert.c ****                     if ((u[i] >= k) | (u[i] < 0))
 4374              		.loc 1 1441 0
 4375 1a2a A846     		mov	r8, r5
 4376 1a2c 59F82570 		ldr	r7, [r9, r5, lsl #2]
 4377 1a30 3846     		mov	r0, r7
 4378 1a32 FFF7FEFF 		bl	__aeabi_i2d
 4379              	.LVL734:
 4380 1a36 4FF00106 		mov	r6, #1
 4381 1a3a 0022     		movs	r2, #0
 4382 1a3c 914B     		ldr	r3, .L542+20
 4383 1a3e FFF7FEFF 		bl	__aeabi_dcmpge
 4384              	.LVL735:
 4385 1a42 08B9     		cbnz	r0, .L381
 4386 1a44 4FF00006 		mov	r6, #0
 4387              	.L381:
 4388 1a48 46EAD776 		orr	r6, r6, r7, lsr #31
 4389 1a4c 16F0FF0F 		tst	r6, #255
 4390 1a50 02D0     		beq	.L382
1442:C:/Users/geoma/Desktop/Scilab/toolboxes/STM32_toolbox_1-1/scicos_blocks/src/c\convert.c ****                     {
1443:C:/Users/geoma/Desktop/Scilab/toolboxes/STM32_toolbox_1-1/scicos_blocks/src/c\convert.c ****                         if (flag == 1)
 4391              		.loc 1 1443 0
 4392 1a52 012C     		cmp	r4, #1
 4393 1a54 03D1     		bne	.L383
 4394 1a56 FFE1     		b	.L1
 4395              	.L382:
1444:C:/Users/geoma/Desktop/Scilab/toolboxes/STM32_toolbox_1-1/scicos_blocks/src/c\convert.c ****                         {
1445:C:/Users/geoma/Desktop/Scilab/toolboxes/STM32_toolbox_1-1/scicos_blocks/src/c\convert.c ****                             //scicos_print(_("overflow error"));
1446:C:/Users/geoma/Desktop/Scilab/toolboxes/STM32_toolbox_1-1/scicos_blocks/src/c\convert.c ****                             //set_block_error(-4);
ARM GAS  C:\Users\geoma\AppData\Local\Temp\ccpZNVPJ.s 			page 106


1447:C:/Users/geoma/Desktop/Scilab/toolboxes/STM32_toolbox_1-1/scicos_blocks/src/c\convert.c ****                             return;
1448:C:/Users/geoma/Desktop/Scilab/toolboxes/STM32_toolbox_1-1/scicos_blocks/src/c\convert.c ****                         }
1449:C:/Users/geoma/Desktop/Scilab/toolboxes/STM32_toolbox_1-1/scicos_blocks/src/c\convert.c ****                     }
1450:C:/Users/geoma/Desktop/Scilab/toolboxes/STM32_toolbox_1-1/scicos_blocks/src/c\convert.c ****                     else
1451:C:/Users/geoma/Desktop/Scilab/toolboxes/STM32_toolbox_1-1/scicos_blocks/src/c\convert.c ****                     {
1452:C:/Users/geoma/Desktop/Scilab/toolboxes/STM32_toolbox_1-1/scicos_blocks/src/c\convert.c ****                         y[i] = (SCSUINT16_COP)(u[i]);
 4396              		.loc 1 1452 0
 4397 1a58 009B     		ldr	r3, [sp]
 4398 1a5a 23F81870 		strh	r7, [r3, r8, lsl #1]	@ movhi
 4399              	.L383:
1439:C:/Users/geoma/Desktop/Scilab/toolboxes/STM32_toolbox_1-1/scicos_blocks/src/c\convert.c ****                 {
 4400              		.loc 1 1439 0 discriminator 2
 4401 1a5e 0135     		adds	r5, r5, #1
 4402              	.LVL736:
 4403              	.L380:
1439:C:/Users/geoma/Desktop/Scilab/toolboxes/STM32_toolbox_1-1/scicos_blocks/src/c\convert.c ****                 {
 4404              		.loc 1 1439 0 is_stmt 0 discriminator 1
 4405 1a60 0AFB0BF3 		mul	r3, r10, fp
 4406 1a64 AB42     		cmp	r3, r5
 4407 1a66 E0DC     		bgt	.L384
 4408 1a68 F6E1     		b	.L1
 4409              	.LVL737:
 4410              	.L78:
 4411              	.LBE75:
 4412              	.LBB76:
1453:C:/Users/geoma/Desktop/Scilab/toolboxes/STM32_toolbox_1-1/scicos_blocks/src/c\convert.c ****                     }
1454:C:/Users/geoma/Desktop/Scilab/toolboxes/STM32_toolbox_1-1/scicos_blocks/src/c\convert.c ****                 }
1455:C:/Users/geoma/Desktop/Scilab/toolboxes/STM32_toolbox_1-1/scicos_blocks/src/c\convert.c ****                 break;
1456:C:/Users/geoma/Desktop/Scilab/toolboxes/STM32_toolbox_1-1/scicos_blocks/src/c\convert.c ****             }
1457:C:/Users/geoma/Desktop/Scilab/toolboxes/STM32_toolbox_1-1/scicos_blocks/src/c\convert.c ****             case 75:
1458:C:/Users/geoma/Desktop/Scilab/toolboxes/STM32_toolbox_1-1/scicos_blocks/src/c\convert.c ****             {
1459:C:/Users/geoma/Desktop/Scilab/toolboxes/STM32_toolbox_1-1/scicos_blocks/src/c\convert.c ****                 SCSINT32_COP *u = NULL;
1460:C:/Users/geoma/Desktop/Scilab/toolboxes/STM32_toolbox_1-1/scicos_blocks/src/c\convert.c ****                 SCSUINT8_COP *y = NULL;
1461:C:/Users/geoma/Desktop/Scilab/toolboxes/STM32_toolbox_1-1/scicos_blocks/src/c\convert.c ****                 u = Getint32InPortPtrs(block, 1);
 4413              		.loc 1 1461 0 is_stmt 1
 4414 1a6a 436C     		ldr	r3, [r0, #68]
 4415 1a6c D3F80090 		ldr	r9, [r3]
 4416              	.LVL738:
1462:C:/Users/geoma/Desktop/Scilab/toolboxes/STM32_toolbox_1-1/scicos_blocks/src/c\convert.c ****                 y = Getuint8OutPortPtrs(block, 1);
 4417              		.loc 1 1462 0
 4418 1a70 036D     		ldr	r3, [r0, #80]
 4419 1a72 1B68     		ldr	r3, [r3]
 4420 1a74 0093     		str	r3, [sp]
 4421              	.LVL739:
1463:C:/Users/geoma/Desktop/Scilab/toolboxes/STM32_toolbox_1-1/scicos_blocks/src/c\convert.c ****                 k = pow(2, 8);
1464:C:/Users/geoma/Desktop/Scilab/toolboxes/STM32_toolbox_1-1/scicos_blocks/src/c\convert.c ****                 for (i = 0; i < m * n; i++)
 4422              		.loc 1 1464 0
 4423 1a76 0025     		movs	r5, #0
 4424 1a78 1AE0     		b	.L385
 4425              	.LVL740:
 4426              	.L389:
1465:C:/Users/geoma/Desktop/Scilab/toolboxes/STM32_toolbox_1-1/scicos_blocks/src/c\convert.c ****                 {
1466:C:/Users/geoma/Desktop/Scilab/toolboxes/STM32_toolbox_1-1/scicos_blocks/src/c\convert.c ****                     if ((u[i] >= k) | (u[i] < 0))
 4427              		.loc 1 1466 0
 4428 1a7a A846     		mov	r8, r5
 4429 1a7c 59F82570 		ldr	r7, [r9, r5, lsl #2]
 4430 1a80 3846     		mov	r0, r7
ARM GAS  C:\Users\geoma\AppData\Local\Temp\ccpZNVPJ.s 			page 107


 4431 1a82 FFF7FEFF 		bl	__aeabi_i2d
 4432              	.LVL741:
 4433 1a86 4FF00106 		mov	r6, #1
 4434 1a8a 0022     		movs	r2, #0
 4435 1a8c 7E4B     		ldr	r3, .L542+24
 4436 1a8e FFF7FEFF 		bl	__aeabi_dcmpge
 4437              	.LVL742:
 4438 1a92 08B9     		cbnz	r0, .L386
 4439 1a94 4FF00006 		mov	r6, #0
 4440              	.L386:
 4441 1a98 46EAD776 		orr	r6, r6, r7, lsr #31
 4442 1a9c 16F0FF0F 		tst	r6, #255
 4443 1aa0 02D0     		beq	.L387
1467:C:/Users/geoma/Desktop/Scilab/toolboxes/STM32_toolbox_1-1/scicos_blocks/src/c\convert.c ****                     {
1468:C:/Users/geoma/Desktop/Scilab/toolboxes/STM32_toolbox_1-1/scicos_blocks/src/c\convert.c ****                         if (flag == 1)
 4444              		.loc 1 1468 0
 4445 1aa2 012C     		cmp	r4, #1
 4446 1aa4 03D1     		bne	.L388
 4447 1aa6 D7E1     		b	.L1
 4448              	.L387:
1469:C:/Users/geoma/Desktop/Scilab/toolboxes/STM32_toolbox_1-1/scicos_blocks/src/c\convert.c ****                         {
1470:C:/Users/geoma/Desktop/Scilab/toolboxes/STM32_toolbox_1-1/scicos_blocks/src/c\convert.c ****                             //scicos_print(_("overflow error"));
1471:C:/Users/geoma/Desktop/Scilab/toolboxes/STM32_toolbox_1-1/scicos_blocks/src/c\convert.c ****                             //set_block_error(-4);
1472:C:/Users/geoma/Desktop/Scilab/toolboxes/STM32_toolbox_1-1/scicos_blocks/src/c\convert.c ****                             return;
1473:C:/Users/geoma/Desktop/Scilab/toolboxes/STM32_toolbox_1-1/scicos_blocks/src/c\convert.c ****                         }
1474:C:/Users/geoma/Desktop/Scilab/toolboxes/STM32_toolbox_1-1/scicos_blocks/src/c\convert.c ****                     }
1475:C:/Users/geoma/Desktop/Scilab/toolboxes/STM32_toolbox_1-1/scicos_blocks/src/c\convert.c ****                     else
1476:C:/Users/geoma/Desktop/Scilab/toolboxes/STM32_toolbox_1-1/scicos_blocks/src/c\convert.c ****                     {
1477:C:/Users/geoma/Desktop/Scilab/toolboxes/STM32_toolbox_1-1/scicos_blocks/src/c\convert.c ****                         y[i] = (SCSUINT8_COP)(u[i]);
 4449              		.loc 1 1477 0
 4450 1aa8 009B     		ldr	r3, [sp]
 4451 1aaa 03F80870 		strb	r7, [r3, r8]
 4452              	.L388:
1464:C:/Users/geoma/Desktop/Scilab/toolboxes/STM32_toolbox_1-1/scicos_blocks/src/c\convert.c ****                 {
 4453              		.loc 1 1464 0 discriminator 2
 4454 1aae 0135     		adds	r5, r5, #1
 4455              	.LVL743:
 4456              	.L385:
1464:C:/Users/geoma/Desktop/Scilab/toolboxes/STM32_toolbox_1-1/scicos_blocks/src/c\convert.c ****                 {
 4457              		.loc 1 1464 0 is_stmt 0 discriminator 1
 4458 1ab0 0AFB0BF3 		mul	r3, r10, fp
 4459 1ab4 AB42     		cmp	r3, r5
 4460 1ab6 E0DC     		bgt	.L389
 4461 1ab8 CEE1     		b	.L1
 4462              	.LVL744:
 4463              	.L79:
 4464              	.LBE76:
 4465              	.LBB77:
1478:C:/Users/geoma/Desktop/Scilab/toolboxes/STM32_toolbox_1-1/scicos_blocks/src/c\convert.c ****                     }
1479:C:/Users/geoma/Desktop/Scilab/toolboxes/STM32_toolbox_1-1/scicos_blocks/src/c\convert.c ****                 }
1480:C:/Users/geoma/Desktop/Scilab/toolboxes/STM32_toolbox_1-1/scicos_blocks/src/c\convert.c ****                 break;
1481:C:/Users/geoma/Desktop/Scilab/toolboxes/STM32_toolbox_1-1/scicos_blocks/src/c\convert.c ****             }
1482:C:/Users/geoma/Desktop/Scilab/toolboxes/STM32_toolbox_1-1/scicos_blocks/src/c\convert.c ****             case 76:
1483:C:/Users/geoma/Desktop/Scilab/toolboxes/STM32_toolbox_1-1/scicos_blocks/src/c\convert.c ****             {
1484:C:/Users/geoma/Desktop/Scilab/toolboxes/STM32_toolbox_1-1/scicos_blocks/src/c\convert.c ****                 SCSINT16_COP *u = NULL;
1485:C:/Users/geoma/Desktop/Scilab/toolboxes/STM32_toolbox_1-1/scicos_blocks/src/c\convert.c ****                 SCSINT8_COP *y = NULL;
1486:C:/Users/geoma/Desktop/Scilab/toolboxes/STM32_toolbox_1-1/scicos_blocks/src/c\convert.c ****                 u = Getint16InPortPtrs(block, 1);
ARM GAS  C:\Users\geoma\AppData\Local\Temp\ccpZNVPJ.s 			page 108


 4466              		.loc 1 1486 0 is_stmt 1
 4467 1aba 436C     		ldr	r3, [r0, #68]
 4468 1abc 1F68     		ldr	r7, [r3]
 4469              	.LVL745:
1487:C:/Users/geoma/Desktop/Scilab/toolboxes/STM32_toolbox_1-1/scicos_blocks/src/c\convert.c ****                 y = Getint8OutPortPtrs(block, 1);
 4470              		.loc 1 1487 0
 4471 1abe 036D     		ldr	r3, [r0, #80]
 4472 1ac0 1B68     		ldr	r3, [r3]
 4473 1ac2 0293     		str	r3, [sp, #8]
 4474              	.LVL746:
1488:C:/Users/geoma/Desktop/Scilab/toolboxes/STM32_toolbox_1-1/scicos_blocks/src/c\convert.c ****                 k = pow(2, 8);
1489:C:/Users/geoma/Desktop/Scilab/toolboxes/STM32_toolbox_1-1/scicos_blocks/src/c\convert.c ****                 for (i = 0; i < m * n; i++)
 4475              		.loc 1 1489 0
 4476 1ac4 4FF00009 		mov	r9, #0
 4477 1ac8 0494     		str	r4, [sp, #16]
 4478 1aca 29E0     		b	.L390
 4479              	.LVL747:
 4480              	.L395:
1490:C:/Users/geoma/Desktop/Scilab/toolboxes/STM32_toolbox_1-1/scicos_blocks/src/c\convert.c ****                 {
1491:C:/Users/geoma/Desktop/Scilab/toolboxes/STM32_toolbox_1-1/scicos_blocks/src/c\convert.c ****                     if ((u[i] > k / 2 - 1) | (u[i] < -(k / 2)))
 4481              		.loc 1 1491 0
 4482 1acc 4C46     		mov	r4, r9
 4483 1ace 37F81960 		ldrh	r6, [r7, r9, lsl #1]
 4484 1ad2 30B2     		sxth	r0, r6
 4485 1ad4 FFF7FEFF 		bl	__aeabi_i2d
 4486              	.LVL748:
 4487 1ad8 CDE90001 		strd	r0, [sp]
 4488 1adc 4FF00108 		mov	r8, #1
 4489 1ae0 63A3     		adr	r3, .L542
 4490 1ae2 D3E90023 		ldrd	r2, [r3]
 4491 1ae6 FFF7FEFF 		bl	__aeabi_dcmpgt
 4492              	.LVL749:
 4493 1aea 08B9     		cbnz	r0, .L391
 4494              	.LVL750:
 4495 1aec 4FF00008 		mov	r8, #0
 4496              	.L391:
 4497 1af0 4FF00105 		mov	r5, #1
 4498 1af4 DDE90001 		ldrd	r0, [sp]
 4499 1af8 0022     		movs	r2, #0
 4500 1afa 614B     		ldr	r3, .L542+16
 4501 1afc FFF7FEFF 		bl	__aeabi_dcmplt
 4502              	.LVL751:
 4503 1b00 08B9     		cbnz	r0, .L392
 4504 1b02 4FF00005 		mov	r5, #0
 4505              	.L392:
 4506 1b06 48EA0505 		orr	r5, r8, r5
 4507 1b0a 15F0FF0F 		tst	r5, #255
 4508 1b0e 03D0     		beq	.L393
1492:C:/Users/geoma/Desktop/Scilab/toolboxes/STM32_toolbox_1-1/scicos_blocks/src/c\convert.c ****                     {
1493:C:/Users/geoma/Desktop/Scilab/toolboxes/STM32_toolbox_1-1/scicos_blocks/src/c\convert.c ****                         if (flag == 1)
 4509              		.loc 1 1493 0
 4510 1b10 049B     		ldr	r3, [sp, #16]
 4511 1b12 012B     		cmp	r3, #1
 4512 1b14 02D1     		bne	.L394
 4513 1b16 9FE1     		b	.L1
 4514              	.L393:
1494:C:/Users/geoma/Desktop/Scilab/toolboxes/STM32_toolbox_1-1/scicos_blocks/src/c\convert.c ****                         {
ARM GAS  C:\Users\geoma\AppData\Local\Temp\ccpZNVPJ.s 			page 109


1495:C:/Users/geoma/Desktop/Scilab/toolboxes/STM32_toolbox_1-1/scicos_blocks/src/c\convert.c ****                             //scicos_print(_("overflow error"));
1496:C:/Users/geoma/Desktop/Scilab/toolboxes/STM32_toolbox_1-1/scicos_blocks/src/c\convert.c ****                             //set_block_error(-4);
1497:C:/Users/geoma/Desktop/Scilab/toolboxes/STM32_toolbox_1-1/scicos_blocks/src/c\convert.c ****                             return;
1498:C:/Users/geoma/Desktop/Scilab/toolboxes/STM32_toolbox_1-1/scicos_blocks/src/c\convert.c ****                         }
1499:C:/Users/geoma/Desktop/Scilab/toolboxes/STM32_toolbox_1-1/scicos_blocks/src/c\convert.c ****                     }
1500:C:/Users/geoma/Desktop/Scilab/toolboxes/STM32_toolbox_1-1/scicos_blocks/src/c\convert.c ****                     else
1501:C:/Users/geoma/Desktop/Scilab/toolboxes/STM32_toolbox_1-1/scicos_blocks/src/c\convert.c ****                     {
1502:C:/Users/geoma/Desktop/Scilab/toolboxes/STM32_toolbox_1-1/scicos_blocks/src/c\convert.c ****                         y[i] = (SCSINT8_COP)(u[i]);
 4515              		.loc 1 1502 0
 4516 1b18 029B     		ldr	r3, [sp, #8]
 4517 1b1a 1E55     		strb	r6, [r3, r4]
 4518              	.L394:
1489:C:/Users/geoma/Desktop/Scilab/toolboxes/STM32_toolbox_1-1/scicos_blocks/src/c\convert.c ****                 {
 4519              		.loc 1 1489 0 discriminator 2
 4520 1b1c 09F10109 		add	r9, r9, #1
 4521              	.LVL752:
 4522              	.L390:
1489:C:/Users/geoma/Desktop/Scilab/toolboxes/STM32_toolbox_1-1/scicos_blocks/src/c\convert.c ****                 {
 4523              		.loc 1 1489 0 is_stmt 0 discriminator 1
 4524 1b20 0AFB0BF3 		mul	r3, r10, fp
 4525 1b24 4B45     		cmp	r3, r9
 4526 1b26 D1DC     		bgt	.L395
 4527 1b28 96E1     		b	.L1
 4528              	.LVL753:
 4529              	.L80:
 4530              	.LBE77:
 4531              	.LBB78:
1503:C:/Users/geoma/Desktop/Scilab/toolboxes/STM32_toolbox_1-1/scicos_blocks/src/c\convert.c ****                     }
1504:C:/Users/geoma/Desktop/Scilab/toolboxes/STM32_toolbox_1-1/scicos_blocks/src/c\convert.c ****                 }
1505:C:/Users/geoma/Desktop/Scilab/toolboxes/STM32_toolbox_1-1/scicos_blocks/src/c\convert.c ****                 break;
1506:C:/Users/geoma/Desktop/Scilab/toolboxes/STM32_toolbox_1-1/scicos_blocks/src/c\convert.c ****             }
1507:C:/Users/geoma/Desktop/Scilab/toolboxes/STM32_toolbox_1-1/scicos_blocks/src/c\convert.c ****             case 77:
1508:C:/Users/geoma/Desktop/Scilab/toolboxes/STM32_toolbox_1-1/scicos_blocks/src/c\convert.c ****             {
1509:C:/Users/geoma/Desktop/Scilab/toolboxes/STM32_toolbox_1-1/scicos_blocks/src/c\convert.c ****                 SCSINT16_COP *u = NULL;
1510:C:/Users/geoma/Desktop/Scilab/toolboxes/STM32_toolbox_1-1/scicos_blocks/src/c\convert.c ****                 SCSUINT32_COP *y = NULL;
1511:C:/Users/geoma/Desktop/Scilab/toolboxes/STM32_toolbox_1-1/scicos_blocks/src/c\convert.c ****                 u = Getint16InPortPtrs(block, 1);
 4532              		.loc 1 1511 0 is_stmt 1
 4533 1b2a 436C     		ldr	r3, [r0, #68]
 4534 1b2c 1968     		ldr	r1, [r3]
 4535              	.LVL754:
1512:C:/Users/geoma/Desktop/Scilab/toolboxes/STM32_toolbox_1-1/scicos_blocks/src/c\convert.c ****                 y = Getuint32OutPortPtrs(block, 1);
 4536              		.loc 1 1512 0
 4537 1b2e 036D     		ldr	r3, [r0, #80]
 4538 1b30 1868     		ldr	r0, [r3]
 4539              	.LVL755:
1513:C:/Users/geoma/Desktop/Scilab/toolboxes/STM32_toolbox_1-1/scicos_blocks/src/c\convert.c ****                 for (i = 0; i < m * n; i++)
 4540              		.loc 1 1513 0
 4541 1b32 0023     		movs	r3, #0
 4542 1b34 0BE0     		b	.L396
 4543              	.LVL756:
 4544              	.L399:
1514:C:/Users/geoma/Desktop/Scilab/toolboxes/STM32_toolbox_1-1/scicos_blocks/src/c\convert.c ****                 {
1515:C:/Users/geoma/Desktop/Scilab/toolboxes/STM32_toolbox_1-1/scicos_blocks/src/c\convert.c ****                     if (u[i] < 0)
 4545              		.loc 1 1515 0
 4546 1b36 31F81320 		ldrh	r2, [r1, r3, lsl #1]
 4547 1b3a 12F4004F 		tst	r2, #32768
 4548 1b3e 02D0     		beq	.L397
ARM GAS  C:\Users\geoma\AppData\Local\Temp\ccpZNVPJ.s 			page 110


1516:C:/Users/geoma/Desktop/Scilab/toolboxes/STM32_toolbox_1-1/scicos_blocks/src/c\convert.c ****                     {
1517:C:/Users/geoma/Desktop/Scilab/toolboxes/STM32_toolbox_1-1/scicos_blocks/src/c\convert.c ****                         if (flag == 1)
 4549              		.loc 1 1517 0
 4550 1b40 012C     		cmp	r4, #1
 4551 1b42 03D1     		bne	.L398
 4552 1b44 88E1     		b	.L1
 4553              	.L397:
1518:C:/Users/geoma/Desktop/Scilab/toolboxes/STM32_toolbox_1-1/scicos_blocks/src/c\convert.c ****                         {
1519:C:/Users/geoma/Desktop/Scilab/toolboxes/STM32_toolbox_1-1/scicos_blocks/src/c\convert.c ****                             //scicos_print(_("overflow error"));
1520:C:/Users/geoma/Desktop/Scilab/toolboxes/STM32_toolbox_1-1/scicos_blocks/src/c\convert.c ****                             //set_block_error(-4);
1521:C:/Users/geoma/Desktop/Scilab/toolboxes/STM32_toolbox_1-1/scicos_blocks/src/c\convert.c ****                             return;
1522:C:/Users/geoma/Desktop/Scilab/toolboxes/STM32_toolbox_1-1/scicos_blocks/src/c\convert.c ****                         }
1523:C:/Users/geoma/Desktop/Scilab/toolboxes/STM32_toolbox_1-1/scicos_blocks/src/c\convert.c ****                     }
1524:C:/Users/geoma/Desktop/Scilab/toolboxes/STM32_toolbox_1-1/scicos_blocks/src/c\convert.c ****                     else
1525:C:/Users/geoma/Desktop/Scilab/toolboxes/STM32_toolbox_1-1/scicos_blocks/src/c\convert.c ****                     {
1526:C:/Users/geoma/Desktop/Scilab/toolboxes/STM32_toolbox_1-1/scicos_blocks/src/c\convert.c ****                         y[i] = (SCSUINT32_COP)u[i];
 4554              		.loc 1 1526 0
 4555 1b46 12B2     		sxth	r2, r2
 4556 1b48 40F82320 		str	r2, [r0, r3, lsl #2]
 4557              	.L398:
1513:C:/Users/geoma/Desktop/Scilab/toolboxes/STM32_toolbox_1-1/scicos_blocks/src/c\convert.c ****                 {
 4558              		.loc 1 1513 0 discriminator 2
 4559 1b4c 0133     		adds	r3, r3, #1
 4560              	.LVL757:
 4561              	.L396:
1513:C:/Users/geoma/Desktop/Scilab/toolboxes/STM32_toolbox_1-1/scicos_blocks/src/c\convert.c ****                 {
 4562              		.loc 1 1513 0 is_stmt 0 discriminator 1
 4563 1b4e 0AFB0BF2 		mul	r2, r10, fp
 4564 1b52 9A42     		cmp	r2, r3
 4565 1b54 EFDC     		bgt	.L399
 4566 1b56 7FE1     		b	.L1
 4567              	.LVL758:
 4568              	.L81:
 4569              	.LBE78:
 4570              	.LBB79:
1527:C:/Users/geoma/Desktop/Scilab/toolboxes/STM32_toolbox_1-1/scicos_blocks/src/c\convert.c ****                     }
1528:C:/Users/geoma/Desktop/Scilab/toolboxes/STM32_toolbox_1-1/scicos_blocks/src/c\convert.c ****                 }
1529:C:/Users/geoma/Desktop/Scilab/toolboxes/STM32_toolbox_1-1/scicos_blocks/src/c\convert.c ****                 break;
1530:C:/Users/geoma/Desktop/Scilab/toolboxes/STM32_toolbox_1-1/scicos_blocks/src/c\convert.c ****             }
1531:C:/Users/geoma/Desktop/Scilab/toolboxes/STM32_toolbox_1-1/scicos_blocks/src/c\convert.c ****             case 78:
1532:C:/Users/geoma/Desktop/Scilab/toolboxes/STM32_toolbox_1-1/scicos_blocks/src/c\convert.c ****             {
1533:C:/Users/geoma/Desktop/Scilab/toolboxes/STM32_toolbox_1-1/scicos_blocks/src/c\convert.c ****                 SCSINT16_COP *u = NULL;
1534:C:/Users/geoma/Desktop/Scilab/toolboxes/STM32_toolbox_1-1/scicos_blocks/src/c\convert.c ****                 SCSUINT16_COP *y = NULL;
1535:C:/Users/geoma/Desktop/Scilab/toolboxes/STM32_toolbox_1-1/scicos_blocks/src/c\convert.c ****                 u = Getint16InPortPtrs(block, 1);
 4571              		.loc 1 1535 0 is_stmt 1
 4572 1b58 436C     		ldr	r3, [r0, #68]
 4573 1b5a 1968     		ldr	r1, [r3]
 4574              	.LVL759:
1536:C:/Users/geoma/Desktop/Scilab/toolboxes/STM32_toolbox_1-1/scicos_blocks/src/c\convert.c ****                 y = Getuint16OutPortPtrs(block, 1);
 4575              		.loc 1 1536 0
 4576 1b5c 036D     		ldr	r3, [r0, #80]
 4577 1b5e 1868     		ldr	r0, [r3]
 4578              	.LVL760:
1537:C:/Users/geoma/Desktop/Scilab/toolboxes/STM32_toolbox_1-1/scicos_blocks/src/c\convert.c ****                 for (i = 0; i < m * n; i++)
 4579              		.loc 1 1537 0
 4580 1b60 0023     		movs	r3, #0
 4581 1b62 0AE0     		b	.L400
ARM GAS  C:\Users\geoma\AppData\Local\Temp\ccpZNVPJ.s 			page 111


 4582              	.LVL761:
 4583              	.L403:
1538:C:/Users/geoma/Desktop/Scilab/toolboxes/STM32_toolbox_1-1/scicos_blocks/src/c\convert.c ****                 {
1539:C:/Users/geoma/Desktop/Scilab/toolboxes/STM32_toolbox_1-1/scicos_blocks/src/c\convert.c ****                     if (u[i] < 0)
 4584              		.loc 1 1539 0
 4585 1b64 31F81320 		ldrh	r2, [r1, r3, lsl #1]
 4586 1b68 12F4004F 		tst	r2, #32768
 4587 1b6c 02D0     		beq	.L401
1540:C:/Users/geoma/Desktop/Scilab/toolboxes/STM32_toolbox_1-1/scicos_blocks/src/c\convert.c ****                     {
1541:C:/Users/geoma/Desktop/Scilab/toolboxes/STM32_toolbox_1-1/scicos_blocks/src/c\convert.c ****                         if (flag == 1)
 4588              		.loc 1 1541 0
 4589 1b6e 012C     		cmp	r4, #1
 4590 1b70 02D1     		bne	.L402
 4591 1b72 71E1     		b	.L1
 4592              	.L401:
1542:C:/Users/geoma/Desktop/Scilab/toolboxes/STM32_toolbox_1-1/scicos_blocks/src/c\convert.c ****                         {
1543:C:/Users/geoma/Desktop/Scilab/toolboxes/STM32_toolbox_1-1/scicos_blocks/src/c\convert.c ****                             //scicos_print(_("overflow error"));
1544:C:/Users/geoma/Desktop/Scilab/toolboxes/STM32_toolbox_1-1/scicos_blocks/src/c\convert.c ****                             //set_block_error(-4);
1545:C:/Users/geoma/Desktop/Scilab/toolboxes/STM32_toolbox_1-1/scicos_blocks/src/c\convert.c ****                             return;
1546:C:/Users/geoma/Desktop/Scilab/toolboxes/STM32_toolbox_1-1/scicos_blocks/src/c\convert.c ****                         }
1547:C:/Users/geoma/Desktop/Scilab/toolboxes/STM32_toolbox_1-1/scicos_blocks/src/c\convert.c ****                     }
1548:C:/Users/geoma/Desktop/Scilab/toolboxes/STM32_toolbox_1-1/scicos_blocks/src/c\convert.c ****                     else
1549:C:/Users/geoma/Desktop/Scilab/toolboxes/STM32_toolbox_1-1/scicos_blocks/src/c\convert.c ****                     {
1550:C:/Users/geoma/Desktop/Scilab/toolboxes/STM32_toolbox_1-1/scicos_blocks/src/c\convert.c ****                         y[i] = (SCSUINT16_COP)(u[i]);
 4593              		.loc 1 1550 0
 4594 1b74 20F81320 		strh	r2, [r0, r3, lsl #1]	@ movhi
 4595              	.L402:
1537:C:/Users/geoma/Desktop/Scilab/toolboxes/STM32_toolbox_1-1/scicos_blocks/src/c\convert.c ****                 {
 4596              		.loc 1 1537 0 discriminator 2
 4597 1b78 0133     		adds	r3, r3, #1
 4598              	.LVL762:
 4599              	.L400:
1537:C:/Users/geoma/Desktop/Scilab/toolboxes/STM32_toolbox_1-1/scicos_blocks/src/c\convert.c ****                 {
 4600              		.loc 1 1537 0 is_stmt 0 discriminator 1
 4601 1b7a 0AFB0BF2 		mul	r2, r10, fp
 4602 1b7e 9A42     		cmp	r2, r3
 4603 1b80 F0DC     		bgt	.L403
 4604 1b82 69E1     		b	.L1
 4605              	.LVL763:
 4606              	.L82:
 4607              	.LBE79:
 4608              	.LBB80:
1551:C:/Users/geoma/Desktop/Scilab/toolboxes/STM32_toolbox_1-1/scicos_blocks/src/c\convert.c ****                     }
1552:C:/Users/geoma/Desktop/Scilab/toolboxes/STM32_toolbox_1-1/scicos_blocks/src/c\convert.c ****                 }
1553:C:/Users/geoma/Desktop/Scilab/toolboxes/STM32_toolbox_1-1/scicos_blocks/src/c\convert.c ****                 break;
1554:C:/Users/geoma/Desktop/Scilab/toolboxes/STM32_toolbox_1-1/scicos_blocks/src/c\convert.c ****             }
1555:C:/Users/geoma/Desktop/Scilab/toolboxes/STM32_toolbox_1-1/scicos_blocks/src/c\convert.c ****             case 79:
1556:C:/Users/geoma/Desktop/Scilab/toolboxes/STM32_toolbox_1-1/scicos_blocks/src/c\convert.c ****             {
1557:C:/Users/geoma/Desktop/Scilab/toolboxes/STM32_toolbox_1-1/scicos_blocks/src/c\convert.c ****                 SCSINT16_COP *u = NULL;
1558:C:/Users/geoma/Desktop/Scilab/toolboxes/STM32_toolbox_1-1/scicos_blocks/src/c\convert.c ****                 SCSUINT8_COP *y = NULL;
1559:C:/Users/geoma/Desktop/Scilab/toolboxes/STM32_toolbox_1-1/scicos_blocks/src/c\convert.c ****                 u = Getint16InPortPtrs(block, 1);
 4609              		.loc 1 1559 0 is_stmt 1
 4610 1b84 436C     		ldr	r3, [r0, #68]
 4611 1b86 D3F80090 		ldr	r9, [r3]
 4612              	.LVL764:
1560:C:/Users/geoma/Desktop/Scilab/toolboxes/STM32_toolbox_1-1/scicos_blocks/src/c\convert.c ****                 y = Getuint8OutPortPtrs(block, 1);
 4613              		.loc 1 1560 0
ARM GAS  C:\Users\geoma\AppData\Local\Temp\ccpZNVPJ.s 			page 112


 4614 1b8a 036D     		ldr	r3, [r0, #80]
 4615 1b8c 1B68     		ldr	r3, [r3]
 4616 1b8e 0093     		str	r3, [sp]
 4617              	.LVL765:
1561:C:/Users/geoma/Desktop/Scilab/toolboxes/STM32_toolbox_1-1/scicos_blocks/src/c\convert.c ****                 k = pow(2, 8);
1562:C:/Users/geoma/Desktop/Scilab/toolboxes/STM32_toolbox_1-1/scicos_blocks/src/c\convert.c ****                 for (i = 0; i < m * n; i++)
 4618              		.loc 1 1562 0
 4619 1b90 0026     		movs	r6, #0
 4620 1b92 0294     		str	r4, [sp, #8]
 4621 1b94 1BE0     		b	.L404
 4622              	.LVL766:
 4623              	.L408:
1563:C:/Users/geoma/Desktop/Scilab/toolboxes/STM32_toolbox_1-1/scicos_blocks/src/c\convert.c ****                 {
1564:C:/Users/geoma/Desktop/Scilab/toolboxes/STM32_toolbox_1-1/scicos_blocks/src/c\convert.c ****                     if (((u[i] >= k) | (u[i] < 0)) & (flag == 1))
 4624              		.loc 1 1564 0
 4625 1b96 3446     		mov	r4, r6
 4626 1b98 39F81680 		ldrh	r8, [r9, r6, lsl #1]
 4627 1b9c 0FFA88F0 		sxth	r0, r8
 4628 1ba0 FFF7FEFF 		bl	__aeabi_i2d
 4629              	.LVL767:
 4630 1ba4 4FF00107 		mov	r7, #1
 4631 1ba8 0022     		movs	r2, #0
 4632 1baa 374B     		ldr	r3, .L542+24
 4633 1bac FFF7FEFF 		bl	__aeabi_dcmpge
 4634              	.LVL768:
 4635 1bb0 08B9     		cbnz	r0, .L405
 4636              	.LVL769:
 4637 1bb2 4FF00007 		mov	r7, #0
 4638              	.L405:
 4639 1bb6 47EAD837 		orr	r7, r7, r8, lsr #15
 4640 1bba 2F42     		tst	r7, r5
 4641 1bbc 03D0     		beq	.L406
1565:C:/Users/geoma/Desktop/Scilab/toolboxes/STM32_toolbox_1-1/scicos_blocks/src/c\convert.c ****                     {
1566:C:/Users/geoma/Desktop/Scilab/toolboxes/STM32_toolbox_1-1/scicos_blocks/src/c\convert.c ****                         if (flag == 1)
 4642              		.loc 1 1566 0
 4643 1bbe 029B     		ldr	r3, [sp, #8]
 4644 1bc0 012B     		cmp	r3, #1
 4645 1bc2 03D1     		bne	.L407
 4646 1bc4 48E1     		b	.L1
 4647              	.L406:
1567:C:/Users/geoma/Desktop/Scilab/toolboxes/STM32_toolbox_1-1/scicos_blocks/src/c\convert.c ****                         {
1568:C:/Users/geoma/Desktop/Scilab/toolboxes/STM32_toolbox_1-1/scicos_blocks/src/c\convert.c ****                             //scicos_print(_("overflow error"));
1569:C:/Users/geoma/Desktop/Scilab/toolboxes/STM32_toolbox_1-1/scicos_blocks/src/c\convert.c ****                             //set_block_error(-4);
1570:C:/Users/geoma/Desktop/Scilab/toolboxes/STM32_toolbox_1-1/scicos_blocks/src/c\convert.c ****                             return;
1571:C:/Users/geoma/Desktop/Scilab/toolboxes/STM32_toolbox_1-1/scicos_blocks/src/c\convert.c ****                         }
1572:C:/Users/geoma/Desktop/Scilab/toolboxes/STM32_toolbox_1-1/scicos_blocks/src/c\convert.c ****                     }
1573:C:/Users/geoma/Desktop/Scilab/toolboxes/STM32_toolbox_1-1/scicos_blocks/src/c\convert.c ****                     else
1574:C:/Users/geoma/Desktop/Scilab/toolboxes/STM32_toolbox_1-1/scicos_blocks/src/c\convert.c ****                     {
1575:C:/Users/geoma/Desktop/Scilab/toolboxes/STM32_toolbox_1-1/scicos_blocks/src/c\convert.c ****                         y[i] = (SCSUINT8_COP)(u[i]);
 4648              		.loc 1 1575 0
 4649 1bc6 009B     		ldr	r3, [sp]
 4650 1bc8 03F80480 		strb	r8, [r3, r4]
 4651              	.L407:
1562:C:/Users/geoma/Desktop/Scilab/toolboxes/STM32_toolbox_1-1/scicos_blocks/src/c\convert.c ****                 {
 4652              		.loc 1 1562 0 discriminator 2
 4653 1bcc 0136     		adds	r6, r6, #1
 4654              	.LVL770:
ARM GAS  C:\Users\geoma\AppData\Local\Temp\ccpZNVPJ.s 			page 113


 4655              	.L404:
1562:C:/Users/geoma/Desktop/Scilab/toolboxes/STM32_toolbox_1-1/scicos_blocks/src/c\convert.c ****                 {
 4656              		.loc 1 1562 0 is_stmt 0 discriminator 1
 4657 1bce 0AFB0BF3 		mul	r3, r10, fp
 4658 1bd2 B342     		cmp	r3, r6
 4659 1bd4 DFDC     		bgt	.L408
 4660 1bd6 3FE1     		b	.L1
 4661              	.LVL771:
 4662              	.L83:
 4663              	.LBE80:
 4664              	.LBB81:
1576:C:/Users/geoma/Desktop/Scilab/toolboxes/STM32_toolbox_1-1/scicos_blocks/src/c\convert.c ****                     }
1577:C:/Users/geoma/Desktop/Scilab/toolboxes/STM32_toolbox_1-1/scicos_blocks/src/c\convert.c ****                 }
1578:C:/Users/geoma/Desktop/Scilab/toolboxes/STM32_toolbox_1-1/scicos_blocks/src/c\convert.c ****                 break;
1579:C:/Users/geoma/Desktop/Scilab/toolboxes/STM32_toolbox_1-1/scicos_blocks/src/c\convert.c ****             }
1580:C:/Users/geoma/Desktop/Scilab/toolboxes/STM32_toolbox_1-1/scicos_blocks/src/c\convert.c ****             case 80:
1581:C:/Users/geoma/Desktop/Scilab/toolboxes/STM32_toolbox_1-1/scicos_blocks/src/c\convert.c ****             {
1582:C:/Users/geoma/Desktop/Scilab/toolboxes/STM32_toolbox_1-1/scicos_blocks/src/c\convert.c ****                 SCSINT8_COP *u = NULL;
1583:C:/Users/geoma/Desktop/Scilab/toolboxes/STM32_toolbox_1-1/scicos_blocks/src/c\convert.c ****                 SCSUINT32_COP *y = NULL;
1584:C:/Users/geoma/Desktop/Scilab/toolboxes/STM32_toolbox_1-1/scicos_blocks/src/c\convert.c ****                 u = Getint8InPortPtrs(block, 1);
 4665              		.loc 1 1584 0 is_stmt 1
 4666 1bd8 436C     		ldr	r3, [r0, #68]
 4667 1bda 1C68     		ldr	r4, [r3]
 4668              	.LVL772:
1585:C:/Users/geoma/Desktop/Scilab/toolboxes/STM32_toolbox_1-1/scicos_blocks/src/c\convert.c ****                 y = Getuint32OutPortPtrs(block, 1);
 4669              		.loc 1 1585 0
 4670 1bdc 036D     		ldr	r3, [r0, #80]
 4671 1bde 1968     		ldr	r1, [r3]
 4672              	.LVL773:
1586:C:/Users/geoma/Desktop/Scilab/toolboxes/STM32_toolbox_1-1/scicos_blocks/src/c\convert.c ****                 for (i = 0; i < m * n; i++)
 4673              		.loc 1 1586 0
 4674 1be0 0023     		movs	r3, #0
 4675 1be2 03E0     		b	.L409
 4676              	.LVL774:
 4677              	.L410:
1587:C:/Users/geoma/Desktop/Scilab/toolboxes/STM32_toolbox_1-1/scicos_blocks/src/c\convert.c ****                 {
1588:C:/Users/geoma/Desktop/Scilab/toolboxes/STM32_toolbox_1-1/scicos_blocks/src/c\convert.c ****                     if (u[i] < 0)
1589:C:/Users/geoma/Desktop/Scilab/toolboxes/STM32_toolbox_1-1/scicos_blocks/src/c\convert.c ****                     {
1590:C:/Users/geoma/Desktop/Scilab/toolboxes/STM32_toolbox_1-1/scicos_blocks/src/c\convert.c ****                         if (flag == 1)
1591:C:/Users/geoma/Desktop/Scilab/toolboxes/STM32_toolbox_1-1/scicos_blocks/src/c\convert.c ****                         {
1592:C:/Users/geoma/Desktop/Scilab/toolboxes/STM32_toolbox_1-1/scicos_blocks/src/c\convert.c ****                             //scicos_print(_("overflow error"));
1593:C:/Users/geoma/Desktop/Scilab/toolboxes/STM32_toolbox_1-1/scicos_blocks/src/c\convert.c ****                             //set_block_error(-4);
1594:C:/Users/geoma/Desktop/Scilab/toolboxes/STM32_toolbox_1-1/scicos_blocks/src/c\convert.c ****                             return;
1595:C:/Users/geoma/Desktop/Scilab/toolboxes/STM32_toolbox_1-1/scicos_blocks/src/c\convert.c ****                         }
1596:C:/Users/geoma/Desktop/Scilab/toolboxes/STM32_toolbox_1-1/scicos_blocks/src/c\convert.c ****                     }
1597:C:/Users/geoma/Desktop/Scilab/toolboxes/STM32_toolbox_1-1/scicos_blocks/src/c\convert.c ****                     else
1598:C:/Users/geoma/Desktop/Scilab/toolboxes/STM32_toolbox_1-1/scicos_blocks/src/c\convert.c ****                     {
1599:C:/Users/geoma/Desktop/Scilab/toolboxes/STM32_toolbox_1-1/scicos_blocks/src/c\convert.c ****                         y[i] = (SCSUINT32_COP)u[i];
 4678              		.loc 1 1599 0
 4679 1be4 E25C     		ldrb	r2, [r4, r3]	@ zero_extendqisi2
 4680 1be6 41F82320 		str	r2, [r1, r3, lsl #2]
1586:C:/Users/geoma/Desktop/Scilab/toolboxes/STM32_toolbox_1-1/scicos_blocks/src/c\convert.c ****                 for (i = 0; i < m * n; i++)
 4681              		.loc 1 1586 0
 4682 1bea 0133     		adds	r3, r3, #1
 4683              	.LVL775:
 4684              	.L409:
1586:C:/Users/geoma/Desktop/Scilab/toolboxes/STM32_toolbox_1-1/scicos_blocks/src/c\convert.c ****                 for (i = 0; i < m * n; i++)
ARM GAS  C:\Users\geoma\AppData\Local\Temp\ccpZNVPJ.s 			page 114


 4685              		.loc 1 1586 0 is_stmt 0 discriminator 1
 4686 1bec 0AFB0BF2 		mul	r2, r10, fp
 4687 1bf0 9A42     		cmp	r2, r3
 4688 1bf2 F7DC     		bgt	.L410
 4689 1bf4 30E1     		b	.L1
 4690              	.LVL776:
 4691              	.L84:
 4692              	.LBE81:
 4693              	.LBB82:
1600:C:/Users/geoma/Desktop/Scilab/toolboxes/STM32_toolbox_1-1/scicos_blocks/src/c\convert.c ****                     }
1601:C:/Users/geoma/Desktop/Scilab/toolboxes/STM32_toolbox_1-1/scicos_blocks/src/c\convert.c ****                 }
1602:C:/Users/geoma/Desktop/Scilab/toolboxes/STM32_toolbox_1-1/scicos_blocks/src/c\convert.c ****                 break;
1603:C:/Users/geoma/Desktop/Scilab/toolboxes/STM32_toolbox_1-1/scicos_blocks/src/c\convert.c ****             }
1604:C:/Users/geoma/Desktop/Scilab/toolboxes/STM32_toolbox_1-1/scicos_blocks/src/c\convert.c ****             case 81:
1605:C:/Users/geoma/Desktop/Scilab/toolboxes/STM32_toolbox_1-1/scicos_blocks/src/c\convert.c ****             {
1606:C:/Users/geoma/Desktop/Scilab/toolboxes/STM32_toolbox_1-1/scicos_blocks/src/c\convert.c ****                 SCSINT8_COP *u = NULL;
1607:C:/Users/geoma/Desktop/Scilab/toolboxes/STM32_toolbox_1-1/scicos_blocks/src/c\convert.c ****                 SCSUINT16_COP *y = NULL;
1608:C:/Users/geoma/Desktop/Scilab/toolboxes/STM32_toolbox_1-1/scicos_blocks/src/c\convert.c ****                 u = Getint8InPortPtrs(block, 1);
 4694              		.loc 1 1608 0 is_stmt 1
 4695 1bf6 436C     		ldr	r3, [r0, #68]
 4696 1bf8 1C68     		ldr	r4, [r3]
 4697              	.LVL777:
1609:C:/Users/geoma/Desktop/Scilab/toolboxes/STM32_toolbox_1-1/scicos_blocks/src/c\convert.c ****                 y = Getuint16OutPortPtrs(block, 1);
 4698              		.loc 1 1609 0
 4699 1bfa 036D     		ldr	r3, [r0, #80]
 4700 1bfc 1968     		ldr	r1, [r3]
 4701              	.LVL778:
1610:C:/Users/geoma/Desktop/Scilab/toolboxes/STM32_toolbox_1-1/scicos_blocks/src/c\convert.c ****                 for (i = 0; i < m * n; i++)
 4702              		.loc 1 1610 0
 4703 1bfe 0023     		movs	r3, #0
 4704 1c00 03E0     		b	.L411
 4705              	.LVL779:
 4706              	.L412:
1611:C:/Users/geoma/Desktop/Scilab/toolboxes/STM32_toolbox_1-1/scicos_blocks/src/c\convert.c ****                 {
1612:C:/Users/geoma/Desktop/Scilab/toolboxes/STM32_toolbox_1-1/scicos_blocks/src/c\convert.c ****                     if (u[i] < 0)
1613:C:/Users/geoma/Desktop/Scilab/toolboxes/STM32_toolbox_1-1/scicos_blocks/src/c\convert.c ****                     {
1614:C:/Users/geoma/Desktop/Scilab/toolboxes/STM32_toolbox_1-1/scicos_blocks/src/c\convert.c ****                         if (flag == 1)
1615:C:/Users/geoma/Desktop/Scilab/toolboxes/STM32_toolbox_1-1/scicos_blocks/src/c\convert.c ****                         {
1616:C:/Users/geoma/Desktop/Scilab/toolboxes/STM32_toolbox_1-1/scicos_blocks/src/c\convert.c ****                             //scicos_print(_("overflow error"));
1617:C:/Users/geoma/Desktop/Scilab/toolboxes/STM32_toolbox_1-1/scicos_blocks/src/c\convert.c ****                             //set_block_error(-4);
1618:C:/Users/geoma/Desktop/Scilab/toolboxes/STM32_toolbox_1-1/scicos_blocks/src/c\convert.c ****                             return;
1619:C:/Users/geoma/Desktop/Scilab/toolboxes/STM32_toolbox_1-1/scicos_blocks/src/c\convert.c ****                         }
1620:C:/Users/geoma/Desktop/Scilab/toolboxes/STM32_toolbox_1-1/scicos_blocks/src/c\convert.c ****                     }
1621:C:/Users/geoma/Desktop/Scilab/toolboxes/STM32_toolbox_1-1/scicos_blocks/src/c\convert.c ****                     else
1622:C:/Users/geoma/Desktop/Scilab/toolboxes/STM32_toolbox_1-1/scicos_blocks/src/c\convert.c ****                     {
1623:C:/Users/geoma/Desktop/Scilab/toolboxes/STM32_toolbox_1-1/scicos_blocks/src/c\convert.c ****                         y[i] = (SCSUINT16_COP)(u[i]);
 4707              		.loc 1 1623 0
 4708 1c02 E25C     		ldrb	r2, [r4, r3]	@ zero_extendqisi2
 4709 1c04 21F81320 		strh	r2, [r1, r3, lsl #1]	@ movhi
1610:C:/Users/geoma/Desktop/Scilab/toolboxes/STM32_toolbox_1-1/scicos_blocks/src/c\convert.c ****                 for (i = 0; i < m * n; i++)
 4710              		.loc 1 1610 0
 4711 1c08 0133     		adds	r3, r3, #1
 4712              	.LVL780:
 4713              	.L411:
1610:C:/Users/geoma/Desktop/Scilab/toolboxes/STM32_toolbox_1-1/scicos_blocks/src/c\convert.c ****                 for (i = 0; i < m * n; i++)
 4714              		.loc 1 1610 0 is_stmt 0 discriminator 1
 4715 1c0a 0AFB0BF2 		mul	r2, r10, fp
ARM GAS  C:\Users\geoma\AppData\Local\Temp\ccpZNVPJ.s 			page 115


 4716 1c0e 9A42     		cmp	r2, r3
 4717 1c10 F7DC     		bgt	.L412
 4718 1c12 21E1     		b	.L1
 4719              	.LVL781:
 4720              	.L85:
 4721              	.LBE82:
 4722              	.LBB83:
1624:C:/Users/geoma/Desktop/Scilab/toolboxes/STM32_toolbox_1-1/scicos_blocks/src/c\convert.c ****                     }
1625:C:/Users/geoma/Desktop/Scilab/toolboxes/STM32_toolbox_1-1/scicos_blocks/src/c\convert.c ****                 }
1626:C:/Users/geoma/Desktop/Scilab/toolboxes/STM32_toolbox_1-1/scicos_blocks/src/c\convert.c ****                 break;
1627:C:/Users/geoma/Desktop/Scilab/toolboxes/STM32_toolbox_1-1/scicos_blocks/src/c\convert.c ****             }
1628:C:/Users/geoma/Desktop/Scilab/toolboxes/STM32_toolbox_1-1/scicos_blocks/src/c\convert.c ****             case 82:
1629:C:/Users/geoma/Desktop/Scilab/toolboxes/STM32_toolbox_1-1/scicos_blocks/src/c\convert.c ****             {
1630:C:/Users/geoma/Desktop/Scilab/toolboxes/STM32_toolbox_1-1/scicos_blocks/src/c\convert.c ****                 SCSINT8_COP *u = NULL;
1631:C:/Users/geoma/Desktop/Scilab/toolboxes/STM32_toolbox_1-1/scicos_blocks/src/c\convert.c ****                 SCSUINT8_COP *y = NULL;
1632:C:/Users/geoma/Desktop/Scilab/toolboxes/STM32_toolbox_1-1/scicos_blocks/src/c\convert.c ****                 u = Getint8InPortPtrs(block, 1);
 4723              		.loc 1 1632 0 is_stmt 1
 4724 1c14 436C     		ldr	r3, [r0, #68]
 4725 1c16 1C68     		ldr	r4, [r3]
 4726              	.LVL782:
1633:C:/Users/geoma/Desktop/Scilab/toolboxes/STM32_toolbox_1-1/scicos_blocks/src/c\convert.c ****                 y = Getuint8OutPortPtrs(block, 1);
 4727              		.loc 1 1633 0
 4728 1c18 036D     		ldr	r3, [r0, #80]
 4729 1c1a 1968     		ldr	r1, [r3]
 4730              	.LVL783:
1634:C:/Users/geoma/Desktop/Scilab/toolboxes/STM32_toolbox_1-1/scicos_blocks/src/c\convert.c ****                 for (i = 0; i < m * n; i++)
 4731              		.loc 1 1634 0
 4732 1c1c 0023     		movs	r3, #0
 4733 1c1e 02E0     		b	.L413
 4734              	.LVL784:
 4735              	.L414:
1635:C:/Users/geoma/Desktop/Scilab/toolboxes/STM32_toolbox_1-1/scicos_blocks/src/c\convert.c ****                 {
1636:C:/Users/geoma/Desktop/Scilab/toolboxes/STM32_toolbox_1-1/scicos_blocks/src/c\convert.c ****                     if (u[i] < 0)
1637:C:/Users/geoma/Desktop/Scilab/toolboxes/STM32_toolbox_1-1/scicos_blocks/src/c\convert.c ****                     {
1638:C:/Users/geoma/Desktop/Scilab/toolboxes/STM32_toolbox_1-1/scicos_blocks/src/c\convert.c ****                         if (flag == 1)
1639:C:/Users/geoma/Desktop/Scilab/toolboxes/STM32_toolbox_1-1/scicos_blocks/src/c\convert.c ****                         {
1640:C:/Users/geoma/Desktop/Scilab/toolboxes/STM32_toolbox_1-1/scicos_blocks/src/c\convert.c ****                             //scicos_print(_("overflow error"));
1641:C:/Users/geoma/Desktop/Scilab/toolboxes/STM32_toolbox_1-1/scicos_blocks/src/c\convert.c ****                             //set_block_error(-4);
1642:C:/Users/geoma/Desktop/Scilab/toolboxes/STM32_toolbox_1-1/scicos_blocks/src/c\convert.c ****                             return;
1643:C:/Users/geoma/Desktop/Scilab/toolboxes/STM32_toolbox_1-1/scicos_blocks/src/c\convert.c ****                         }
1644:C:/Users/geoma/Desktop/Scilab/toolboxes/STM32_toolbox_1-1/scicos_blocks/src/c\convert.c ****                     }
1645:C:/Users/geoma/Desktop/Scilab/toolboxes/STM32_toolbox_1-1/scicos_blocks/src/c\convert.c ****                     else
1646:C:/Users/geoma/Desktop/Scilab/toolboxes/STM32_toolbox_1-1/scicos_blocks/src/c\convert.c ****                     {
1647:C:/Users/geoma/Desktop/Scilab/toolboxes/STM32_toolbox_1-1/scicos_blocks/src/c\convert.c ****                         y[i] = (SCSUINT8_COP)(u[i]);
 4736              		.loc 1 1647 0
 4737 1c20 E25C     		ldrb	r2, [r4, r3]	@ zero_extendqisi2
 4738 1c22 CA54     		strb	r2, [r1, r3]
1634:C:/Users/geoma/Desktop/Scilab/toolboxes/STM32_toolbox_1-1/scicos_blocks/src/c\convert.c ****                 for (i = 0; i < m * n; i++)
 4739              		.loc 1 1634 0
 4740 1c24 0133     		adds	r3, r3, #1
 4741              	.LVL785:
 4742              	.L413:
1634:C:/Users/geoma/Desktop/Scilab/toolboxes/STM32_toolbox_1-1/scicos_blocks/src/c\convert.c ****                 for (i = 0; i < m * n; i++)
 4743              		.loc 1 1634 0 is_stmt 0 discriminator 1
 4744 1c26 0AFB0BF2 		mul	r2, r10, fp
 4745 1c2a 9A42     		cmp	r2, r3
 4746 1c2c F8DC     		bgt	.L414
ARM GAS  C:\Users\geoma\AppData\Local\Temp\ccpZNVPJ.s 			page 116


 4747 1c2e 13E1     		b	.L1
 4748              	.LVL786:
 4749              	.L86:
 4750              	.LBE83:
 4751              	.LBB84:
1648:C:/Users/geoma/Desktop/Scilab/toolboxes/STM32_toolbox_1-1/scicos_blocks/src/c\convert.c ****                     }
1649:C:/Users/geoma/Desktop/Scilab/toolboxes/STM32_toolbox_1-1/scicos_blocks/src/c\convert.c ****                 }
1650:C:/Users/geoma/Desktop/Scilab/toolboxes/STM32_toolbox_1-1/scicos_blocks/src/c\convert.c ****                 break;
1651:C:/Users/geoma/Desktop/Scilab/toolboxes/STM32_toolbox_1-1/scicos_blocks/src/c\convert.c ****             }
1652:C:/Users/geoma/Desktop/Scilab/toolboxes/STM32_toolbox_1-1/scicos_blocks/src/c\convert.c ****             case 83:
1653:C:/Users/geoma/Desktop/Scilab/toolboxes/STM32_toolbox_1-1/scicos_blocks/src/c\convert.c ****             {
1654:C:/Users/geoma/Desktop/Scilab/toolboxes/STM32_toolbox_1-1/scicos_blocks/src/c\convert.c ****                 SCSINT32_COP *y = NULL;
1655:C:/Users/geoma/Desktop/Scilab/toolboxes/STM32_toolbox_1-1/scicos_blocks/src/c\convert.c ****                 SCSUINT32_COP *u = NULL;
1656:C:/Users/geoma/Desktop/Scilab/toolboxes/STM32_toolbox_1-1/scicos_blocks/src/c\convert.c ****                 u = Getuint32InPortPtrs(block, 1);
 4752              		.loc 1 1656 0 is_stmt 1
 4753 1c30 436C     		ldr	r3, [r0, #68]
 4754 1c32 1F68     		ldr	r7, [r3]
 4755              	.LVL787:
1657:C:/Users/geoma/Desktop/Scilab/toolboxes/STM32_toolbox_1-1/scicos_blocks/src/c\convert.c ****                 y = Getint32OutPortPtrs(block, 1);
 4756              		.loc 1 1657 0
 4757 1c34 036D     		ldr	r3, [r0, #80]
 4758 1c36 D3F80080 		ldr	r8, [r3]
 4759              	.LVL788:
1658:C:/Users/geoma/Desktop/Scilab/toolboxes/STM32_toolbox_1-1/scicos_blocks/src/c\convert.c ****                 k = pow(2, 32);
1659:C:/Users/geoma/Desktop/Scilab/toolboxes/STM32_toolbox_1-1/scicos_blocks/src/c\convert.c ****                 for (i = 0; i < m * n; i++)
 4760              		.loc 1 1659 0
 4761 1c3a 0025     		movs	r5, #0
 4762 1c3c 10E0     		b	.L415
 4763              	.LVL789:
 4764              	.L419:
1660:C:/Users/geoma/Desktop/Scilab/toolboxes/STM32_toolbox_1-1/scicos_blocks/src/c\convert.c ****                 {
1661:C:/Users/geoma/Desktop/Scilab/toolboxes/STM32_toolbox_1-1/scicos_blocks/src/c\convert.c ****                     if (u[i] > (k / 2 - 1))
 4765              		.loc 1 1661 0
 4766 1c3e 57F82560 		ldr	r6, [r7, r5, lsl #2]
 4767 1c42 3046     		mov	r0, r6
 4768 1c44 FFF7FEFF 		bl	__aeabi_ui2d
 4769              	.LVL790:
 4770 1c48 0BA3     		adr	r3, .L542+8
 4771 1c4a D3E90023 		ldrd	r2, [r3]
 4772 1c4e FFF7FEFF 		bl	__aeabi_dcmpgt
 4773              	.LVL791:
 4774 1c52 10B1     		cbz	r0, .L518
1662:C:/Users/geoma/Desktop/Scilab/toolboxes/STM32_toolbox_1-1/scicos_blocks/src/c\convert.c ****                     {
1663:C:/Users/geoma/Desktop/Scilab/toolboxes/STM32_toolbox_1-1/scicos_blocks/src/c\convert.c ****                         if (flag == 1)
 4775              		.loc 1 1663 0
 4776 1c54 012C     		cmp	r4, #1
 4777 1c56 02D1     		bne	.L418
 4778 1c58 FEE0     		b	.L1
 4779              	.L518:
1664:C:/Users/geoma/Desktop/Scilab/toolboxes/STM32_toolbox_1-1/scicos_blocks/src/c\convert.c ****                         {
1665:C:/Users/geoma/Desktop/Scilab/toolboxes/STM32_toolbox_1-1/scicos_blocks/src/c\convert.c ****                             //scicos_print(_("overflow error"));
1666:C:/Users/geoma/Desktop/Scilab/toolboxes/STM32_toolbox_1-1/scicos_blocks/src/c\convert.c ****                             //set_block_error(-4);
1667:C:/Users/geoma/Desktop/Scilab/toolboxes/STM32_toolbox_1-1/scicos_blocks/src/c\convert.c ****                             return;
1668:C:/Users/geoma/Desktop/Scilab/toolboxes/STM32_toolbox_1-1/scicos_blocks/src/c\convert.c ****                         }
1669:C:/Users/geoma/Desktop/Scilab/toolboxes/STM32_toolbox_1-1/scicos_blocks/src/c\convert.c ****                     }
1670:C:/Users/geoma/Desktop/Scilab/toolboxes/STM32_toolbox_1-1/scicos_blocks/src/c\convert.c ****                     else
1671:C:/Users/geoma/Desktop/Scilab/toolboxes/STM32_toolbox_1-1/scicos_blocks/src/c\convert.c ****                     {
ARM GAS  C:\Users\geoma\AppData\Local\Temp\ccpZNVPJ.s 			page 117


1672:C:/Users/geoma/Desktop/Scilab/toolboxes/STM32_toolbox_1-1/scicos_blocks/src/c\convert.c ****                         y[i] = (SCSINT32_COP)(u[i]);
 4780              		.loc 1 1672 0
 4781 1c5a 48F82560 		str	r6, [r8, r5, lsl #2]
 4782              	.L418:
1659:C:/Users/geoma/Desktop/Scilab/toolboxes/STM32_toolbox_1-1/scicos_blocks/src/c\convert.c ****                 {
 4783              		.loc 1 1659 0 discriminator 2
 4784 1c5e 0135     		adds	r5, r5, #1
 4785              	.LVL792:
 4786              	.L415:
1659:C:/Users/geoma/Desktop/Scilab/toolboxes/STM32_toolbox_1-1/scicos_blocks/src/c\convert.c ****                 {
 4787              		.loc 1 1659 0 is_stmt 0 discriminator 1
 4788 1c60 0AFB0BF3 		mul	r3, r10, fp
 4789 1c64 AB42     		cmp	r3, r5
 4790 1c66 EADC     		bgt	.L419
 4791 1c68 F6E0     		b	.L1
 4792              	.L543:
 4793 1c6a 00BFAFF3 		.align	3
 4793      0080
 4794              	.L542:
 4795 1c70 00000000 		.word	0
 4796 1c74 00C05F40 		.word	1080016896
 4797 1c78 0000C0FF 		.word	-4194304
 4798 1c7c FFFFDF41 		.word	1105199103
 4799 1c80 000060C0 		.word	-1067450368
 4800 1c84 0000F040 		.word	1089470464
 4801 1c88 00007040 		.word	1081081856
 4802              	.LVL793:
 4803              	.L87:
 4804              	.LBE84:
 4805              	.LBB85:
1673:C:/Users/geoma/Desktop/Scilab/toolboxes/STM32_toolbox_1-1/scicos_blocks/src/c\convert.c ****                     }
1674:C:/Users/geoma/Desktop/Scilab/toolboxes/STM32_toolbox_1-1/scicos_blocks/src/c\convert.c ****                 }
1675:C:/Users/geoma/Desktop/Scilab/toolboxes/STM32_toolbox_1-1/scicos_blocks/src/c\convert.c ****                 break;
1676:C:/Users/geoma/Desktop/Scilab/toolboxes/STM32_toolbox_1-1/scicos_blocks/src/c\convert.c ****             }
1677:C:/Users/geoma/Desktop/Scilab/toolboxes/STM32_toolbox_1-1/scicos_blocks/src/c\convert.c ****             case 84:
1678:C:/Users/geoma/Desktop/Scilab/toolboxes/STM32_toolbox_1-1/scicos_blocks/src/c\convert.c ****             {
1679:C:/Users/geoma/Desktop/Scilab/toolboxes/STM32_toolbox_1-1/scicos_blocks/src/c\convert.c ****                 SCSUINT32_COP *u = NULL;
1680:C:/Users/geoma/Desktop/Scilab/toolboxes/STM32_toolbox_1-1/scicos_blocks/src/c\convert.c ****                 SCSINT16_COP *y = NULL;
1681:C:/Users/geoma/Desktop/Scilab/toolboxes/STM32_toolbox_1-1/scicos_blocks/src/c\convert.c ****                 u = Getuint32InPortPtrs(block, 1);
 4806              		.loc 1 1681 0 is_stmt 1
 4807 1c8c 436C     		ldr	r3, [r0, #68]
 4808 1c8e 1F68     		ldr	r7, [r3]
 4809              	.LVL794:
1682:C:/Users/geoma/Desktop/Scilab/toolboxes/STM32_toolbox_1-1/scicos_blocks/src/c\convert.c ****                 y = Getint16OutPortPtrs(block, 1);
 4810              		.loc 1 1682 0
 4811 1c90 036D     		ldr	r3, [r0, #80]
 4812 1c92 D3F80080 		ldr	r8, [r3]
 4813              	.LVL795:
1683:C:/Users/geoma/Desktop/Scilab/toolboxes/STM32_toolbox_1-1/scicos_blocks/src/c\convert.c ****                 k = pow(2, 16);
1684:C:/Users/geoma/Desktop/Scilab/toolboxes/STM32_toolbox_1-1/scicos_blocks/src/c\convert.c ****                 for (i = 0; i < m * n; i++)
 4814              		.loc 1 1684 0
 4815 1c96 0025     		movs	r5, #0
 4816 1c98 10E0     		b	.L420
 4817              	.LVL796:
 4818              	.L424:
1685:C:/Users/geoma/Desktop/Scilab/toolboxes/STM32_toolbox_1-1/scicos_blocks/src/c\convert.c ****                 {
1686:C:/Users/geoma/Desktop/Scilab/toolboxes/STM32_toolbox_1-1/scicos_blocks/src/c\convert.c ****                     if (u[i] > (k / 2 - 1))
ARM GAS  C:\Users\geoma\AppData\Local\Temp\ccpZNVPJ.s 			page 118


 4819              		.loc 1 1686 0
 4820 1c9a 57F82560 		ldr	r6, [r7, r5, lsl #2]
 4821 1c9e 3046     		mov	r0, r6
 4822 1ca0 FFF7FEFF 		bl	__aeabi_ui2d
 4823              	.LVL797:
 4824 1ca4 70A3     		adr	r3, .L544
 4825 1ca6 D3E90023 		ldrd	r2, [r3]
 4826 1caa FFF7FEFF 		bl	__aeabi_dcmpgt
 4827              	.LVL798:
 4828 1cae 10B1     		cbz	r0, .L519
1687:C:/Users/geoma/Desktop/Scilab/toolboxes/STM32_toolbox_1-1/scicos_blocks/src/c\convert.c ****                     {
1688:C:/Users/geoma/Desktop/Scilab/toolboxes/STM32_toolbox_1-1/scicos_blocks/src/c\convert.c ****                         if (flag == 1)
 4829              		.loc 1 1688 0
 4830 1cb0 012C     		cmp	r4, #1
 4831 1cb2 02D1     		bne	.L423
 4832 1cb4 D0E0     		b	.L1
 4833              	.L519:
1689:C:/Users/geoma/Desktop/Scilab/toolboxes/STM32_toolbox_1-1/scicos_blocks/src/c\convert.c ****                         {
1690:C:/Users/geoma/Desktop/Scilab/toolboxes/STM32_toolbox_1-1/scicos_blocks/src/c\convert.c ****                             //scicos_print(_("overflow error"));
1691:C:/Users/geoma/Desktop/Scilab/toolboxes/STM32_toolbox_1-1/scicos_blocks/src/c\convert.c ****                             //set_block_error(-4);
1692:C:/Users/geoma/Desktop/Scilab/toolboxes/STM32_toolbox_1-1/scicos_blocks/src/c\convert.c ****                             return;
1693:C:/Users/geoma/Desktop/Scilab/toolboxes/STM32_toolbox_1-1/scicos_blocks/src/c\convert.c ****                         }
1694:C:/Users/geoma/Desktop/Scilab/toolboxes/STM32_toolbox_1-1/scicos_blocks/src/c\convert.c ****                     }
1695:C:/Users/geoma/Desktop/Scilab/toolboxes/STM32_toolbox_1-1/scicos_blocks/src/c\convert.c ****                     else
1696:C:/Users/geoma/Desktop/Scilab/toolboxes/STM32_toolbox_1-1/scicos_blocks/src/c\convert.c ****                     {
1697:C:/Users/geoma/Desktop/Scilab/toolboxes/STM32_toolbox_1-1/scicos_blocks/src/c\convert.c ****                         y[i] = (SCSINT16_COP)(u[i]);
 4834              		.loc 1 1697 0
 4835 1cb6 28F81560 		strh	r6, [r8, r5, lsl #1]	@ movhi
 4836              	.L423:
1684:C:/Users/geoma/Desktop/Scilab/toolboxes/STM32_toolbox_1-1/scicos_blocks/src/c\convert.c ****                 {
 4837              		.loc 1 1684 0 discriminator 2
 4838 1cba 0135     		adds	r5, r5, #1
 4839              	.LVL799:
 4840              	.L420:
1684:C:/Users/geoma/Desktop/Scilab/toolboxes/STM32_toolbox_1-1/scicos_blocks/src/c\convert.c ****                 {
 4841              		.loc 1 1684 0 is_stmt 0 discriminator 1
 4842 1cbc 0AFB0BF3 		mul	r3, r10, fp
 4843 1cc0 AB42     		cmp	r3, r5
 4844 1cc2 EADC     		bgt	.L424
 4845 1cc4 C8E0     		b	.L1
 4846              	.LVL800:
 4847              	.L88:
 4848              	.LBE85:
 4849              	.LBB86:
1698:C:/Users/geoma/Desktop/Scilab/toolboxes/STM32_toolbox_1-1/scicos_blocks/src/c\convert.c ****                     }
1699:C:/Users/geoma/Desktop/Scilab/toolboxes/STM32_toolbox_1-1/scicos_blocks/src/c\convert.c ****                 }
1700:C:/Users/geoma/Desktop/Scilab/toolboxes/STM32_toolbox_1-1/scicos_blocks/src/c\convert.c ****                 break;
1701:C:/Users/geoma/Desktop/Scilab/toolboxes/STM32_toolbox_1-1/scicos_blocks/src/c\convert.c ****             }
1702:C:/Users/geoma/Desktop/Scilab/toolboxes/STM32_toolbox_1-1/scicos_blocks/src/c\convert.c ****             case 85:
1703:C:/Users/geoma/Desktop/Scilab/toolboxes/STM32_toolbox_1-1/scicos_blocks/src/c\convert.c ****             {
1704:C:/Users/geoma/Desktop/Scilab/toolboxes/STM32_toolbox_1-1/scicos_blocks/src/c\convert.c ****                 SCSUINT32_COP *u = NULL;
1705:C:/Users/geoma/Desktop/Scilab/toolboxes/STM32_toolbox_1-1/scicos_blocks/src/c\convert.c ****                 SCSINT8_COP *y = NULL;
1706:C:/Users/geoma/Desktop/Scilab/toolboxes/STM32_toolbox_1-1/scicos_blocks/src/c\convert.c ****                 u = Getuint32InPortPtrs(block, 1);
 4850              		.loc 1 1706 0 is_stmt 1
 4851 1cc6 436C     		ldr	r3, [r0, #68]
 4852 1cc8 1F68     		ldr	r7, [r3]
 4853              	.LVL801:
ARM GAS  C:\Users\geoma\AppData\Local\Temp\ccpZNVPJ.s 			page 119


1707:C:/Users/geoma/Desktop/Scilab/toolboxes/STM32_toolbox_1-1/scicos_blocks/src/c\convert.c ****                 y = Getint8OutPortPtrs(block, 1);
 4854              		.loc 1 1707 0
 4855 1cca 036D     		ldr	r3, [r0, #80]
 4856 1ccc D3F80080 		ldr	r8, [r3]
 4857              	.LVL802:
1708:C:/Users/geoma/Desktop/Scilab/toolboxes/STM32_toolbox_1-1/scicos_blocks/src/c\convert.c ****                 k = pow(2, 8);
1709:C:/Users/geoma/Desktop/Scilab/toolboxes/STM32_toolbox_1-1/scicos_blocks/src/c\convert.c ****                 for (i = 0; i < m * n; i++)
 4858              		.loc 1 1709 0
 4859 1cd0 0025     		movs	r5, #0
 4860 1cd2 10E0     		b	.L425
 4861              	.LVL803:
 4862              	.L429:
1710:C:/Users/geoma/Desktop/Scilab/toolboxes/STM32_toolbox_1-1/scicos_blocks/src/c\convert.c ****                 {
1711:C:/Users/geoma/Desktop/Scilab/toolboxes/STM32_toolbox_1-1/scicos_blocks/src/c\convert.c ****                     if (u[i] > (k / 2 - 1))
 4863              		.loc 1 1711 0
 4864 1cd4 57F82560 		ldr	r6, [r7, r5, lsl #2]
 4865 1cd8 3046     		mov	r0, r6
 4866 1cda FFF7FEFF 		bl	__aeabi_ui2d
 4867              	.LVL804:
 4868 1cde 64A3     		adr	r3, .L544+8
 4869 1ce0 D3E90023 		ldrd	r2, [r3]
 4870 1ce4 FFF7FEFF 		bl	__aeabi_dcmpgt
 4871              	.LVL805:
 4872 1ce8 10B1     		cbz	r0, .L520
1712:C:/Users/geoma/Desktop/Scilab/toolboxes/STM32_toolbox_1-1/scicos_blocks/src/c\convert.c ****                     {
1713:C:/Users/geoma/Desktop/Scilab/toolboxes/STM32_toolbox_1-1/scicos_blocks/src/c\convert.c ****                         if (flag == 1)
 4873              		.loc 1 1713 0
 4874 1cea 012C     		cmp	r4, #1
 4875 1cec 02D1     		bne	.L428
 4876 1cee B3E0     		b	.L1
 4877              	.L520:
1714:C:/Users/geoma/Desktop/Scilab/toolboxes/STM32_toolbox_1-1/scicos_blocks/src/c\convert.c ****                         {
1715:C:/Users/geoma/Desktop/Scilab/toolboxes/STM32_toolbox_1-1/scicos_blocks/src/c\convert.c ****                             //scicos_print(_("overflow error"));
1716:C:/Users/geoma/Desktop/Scilab/toolboxes/STM32_toolbox_1-1/scicos_blocks/src/c\convert.c ****                             //set_block_error(-4);
1717:C:/Users/geoma/Desktop/Scilab/toolboxes/STM32_toolbox_1-1/scicos_blocks/src/c\convert.c ****                             return;
1718:C:/Users/geoma/Desktop/Scilab/toolboxes/STM32_toolbox_1-1/scicos_blocks/src/c\convert.c ****                         }
1719:C:/Users/geoma/Desktop/Scilab/toolboxes/STM32_toolbox_1-1/scicos_blocks/src/c\convert.c ****                     }
1720:C:/Users/geoma/Desktop/Scilab/toolboxes/STM32_toolbox_1-1/scicos_blocks/src/c\convert.c ****                     else
1721:C:/Users/geoma/Desktop/Scilab/toolboxes/STM32_toolbox_1-1/scicos_blocks/src/c\convert.c ****                     {
1722:C:/Users/geoma/Desktop/Scilab/toolboxes/STM32_toolbox_1-1/scicos_blocks/src/c\convert.c ****                         y[i] = (SCSINT8_COP)(u[i]);
 4878              		.loc 1 1722 0
 4879 1cf0 08F80560 		strb	r6, [r8, r5]
 4880              	.L428:
1709:C:/Users/geoma/Desktop/Scilab/toolboxes/STM32_toolbox_1-1/scicos_blocks/src/c\convert.c ****                 {
 4881              		.loc 1 1709 0 discriminator 2
 4882 1cf4 0135     		adds	r5, r5, #1
 4883              	.LVL806:
 4884              	.L425:
1709:C:/Users/geoma/Desktop/Scilab/toolboxes/STM32_toolbox_1-1/scicos_blocks/src/c\convert.c ****                 {
 4885              		.loc 1 1709 0 is_stmt 0 discriminator 1
 4886 1cf6 0AFB0BF3 		mul	r3, r10, fp
 4887 1cfa AB42     		cmp	r3, r5
 4888 1cfc EADC     		bgt	.L429
 4889 1cfe ABE0     		b	.L1
 4890              	.LVL807:
 4891              	.L89:
 4892              	.LBE86:
ARM GAS  C:\Users\geoma\AppData\Local\Temp\ccpZNVPJ.s 			page 120


 4893              	.LBB87:
1723:C:/Users/geoma/Desktop/Scilab/toolboxes/STM32_toolbox_1-1/scicos_blocks/src/c\convert.c ****                     }
1724:C:/Users/geoma/Desktop/Scilab/toolboxes/STM32_toolbox_1-1/scicos_blocks/src/c\convert.c ****                 }
1725:C:/Users/geoma/Desktop/Scilab/toolboxes/STM32_toolbox_1-1/scicos_blocks/src/c\convert.c ****                 break;
1726:C:/Users/geoma/Desktop/Scilab/toolboxes/STM32_toolbox_1-1/scicos_blocks/src/c\convert.c ****             }
1727:C:/Users/geoma/Desktop/Scilab/toolboxes/STM32_toolbox_1-1/scicos_blocks/src/c\convert.c ****             case 86:
1728:C:/Users/geoma/Desktop/Scilab/toolboxes/STM32_toolbox_1-1/scicos_blocks/src/c\convert.c ****             {
1729:C:/Users/geoma/Desktop/Scilab/toolboxes/STM32_toolbox_1-1/scicos_blocks/src/c\convert.c ****                 SCSUINT32_COP *u = NULL;
1730:C:/Users/geoma/Desktop/Scilab/toolboxes/STM32_toolbox_1-1/scicos_blocks/src/c\convert.c ****                 SCSUINT16_COP *y = NULL;
1731:C:/Users/geoma/Desktop/Scilab/toolboxes/STM32_toolbox_1-1/scicos_blocks/src/c\convert.c ****                 u = Getuint32InPortPtrs(block, 1);
 4894              		.loc 1 1731 0 is_stmt 1
 4895 1d00 436C     		ldr	r3, [r0, #68]
 4896 1d02 1F68     		ldr	r7, [r3]
 4897              	.LVL808:
1732:C:/Users/geoma/Desktop/Scilab/toolboxes/STM32_toolbox_1-1/scicos_blocks/src/c\convert.c ****                 y = Getuint16OutPortPtrs(block, 1);
 4898              		.loc 1 1732 0
 4899 1d04 036D     		ldr	r3, [r0, #80]
 4900 1d06 D3F80080 		ldr	r8, [r3]
 4901              	.LVL809:
1733:C:/Users/geoma/Desktop/Scilab/toolboxes/STM32_toolbox_1-1/scicos_blocks/src/c\convert.c ****                 k = pow(2, 16);
1734:C:/Users/geoma/Desktop/Scilab/toolboxes/STM32_toolbox_1-1/scicos_blocks/src/c\convert.c ****                 for (i = 0; i < m * n; i++)
 4902              		.loc 1 1734 0
 4903 1d0a 0025     		movs	r5, #0
 4904 1d0c 10E0     		b	.L430
 4905              	.LVL810:
 4906              	.L434:
1735:C:/Users/geoma/Desktop/Scilab/toolboxes/STM32_toolbox_1-1/scicos_blocks/src/c\convert.c ****                 {
1736:C:/Users/geoma/Desktop/Scilab/toolboxes/STM32_toolbox_1-1/scicos_blocks/src/c\convert.c ****                     if (u[i] > (k / 2 - 1))
 4907              		.loc 1 1736 0
 4908 1d0e 57F82560 		ldr	r6, [r7, r5, lsl #2]
 4909 1d12 3046     		mov	r0, r6
 4910 1d14 FFF7FEFF 		bl	__aeabi_ui2d
 4911              	.LVL811:
 4912 1d18 53A3     		adr	r3, .L544
 4913 1d1a D3E90023 		ldrd	r2, [r3]
 4914 1d1e FFF7FEFF 		bl	__aeabi_dcmpgt
 4915              	.LVL812:
 4916 1d22 10B1     		cbz	r0, .L521
1737:C:/Users/geoma/Desktop/Scilab/toolboxes/STM32_toolbox_1-1/scicos_blocks/src/c\convert.c ****                     {
1738:C:/Users/geoma/Desktop/Scilab/toolboxes/STM32_toolbox_1-1/scicos_blocks/src/c\convert.c ****                         if (flag == 1)
 4917              		.loc 1 1738 0
 4918 1d24 012C     		cmp	r4, #1
 4919 1d26 02D1     		bne	.L433
 4920 1d28 96E0     		b	.L1
 4921              	.L521:
1739:C:/Users/geoma/Desktop/Scilab/toolboxes/STM32_toolbox_1-1/scicos_blocks/src/c\convert.c ****                         {
1740:C:/Users/geoma/Desktop/Scilab/toolboxes/STM32_toolbox_1-1/scicos_blocks/src/c\convert.c ****                             //scicos_print(_("overflow error"));
1741:C:/Users/geoma/Desktop/Scilab/toolboxes/STM32_toolbox_1-1/scicos_blocks/src/c\convert.c ****                             //set_block_error(-4);
1742:C:/Users/geoma/Desktop/Scilab/toolboxes/STM32_toolbox_1-1/scicos_blocks/src/c\convert.c ****                             return;
1743:C:/Users/geoma/Desktop/Scilab/toolboxes/STM32_toolbox_1-1/scicos_blocks/src/c\convert.c ****                         }
1744:C:/Users/geoma/Desktop/Scilab/toolboxes/STM32_toolbox_1-1/scicos_blocks/src/c\convert.c ****                     }
1745:C:/Users/geoma/Desktop/Scilab/toolboxes/STM32_toolbox_1-1/scicos_blocks/src/c\convert.c ****                     else
1746:C:/Users/geoma/Desktop/Scilab/toolboxes/STM32_toolbox_1-1/scicos_blocks/src/c\convert.c ****                     {
1747:C:/Users/geoma/Desktop/Scilab/toolboxes/STM32_toolbox_1-1/scicos_blocks/src/c\convert.c ****                         y[i] = (SCSUINT16_COP)(u[i]);
 4922              		.loc 1 1747 0
 4923 1d2a 28F81560 		strh	r6, [r8, r5, lsl #1]	@ movhi
 4924              	.L433:
ARM GAS  C:\Users\geoma\AppData\Local\Temp\ccpZNVPJ.s 			page 121


1734:C:/Users/geoma/Desktop/Scilab/toolboxes/STM32_toolbox_1-1/scicos_blocks/src/c\convert.c ****                 {
 4925              		.loc 1 1734 0 discriminator 2
 4926 1d2e 0135     		adds	r5, r5, #1
 4927              	.LVL813:
 4928              	.L430:
1734:C:/Users/geoma/Desktop/Scilab/toolboxes/STM32_toolbox_1-1/scicos_blocks/src/c\convert.c ****                 {
 4929              		.loc 1 1734 0 is_stmt 0 discriminator 1
 4930 1d30 0AFB0BF3 		mul	r3, r10, fp
 4931 1d34 AB42     		cmp	r3, r5
 4932 1d36 EADC     		bgt	.L434
 4933 1d38 8EE0     		b	.L1
 4934              	.LVL814:
 4935              	.L90:
 4936              	.LBE87:
 4937              	.LBB88:
1748:C:/Users/geoma/Desktop/Scilab/toolboxes/STM32_toolbox_1-1/scicos_blocks/src/c\convert.c ****                     }
1749:C:/Users/geoma/Desktop/Scilab/toolboxes/STM32_toolbox_1-1/scicos_blocks/src/c\convert.c ****                 }
1750:C:/Users/geoma/Desktop/Scilab/toolboxes/STM32_toolbox_1-1/scicos_blocks/src/c\convert.c ****                 break;
1751:C:/Users/geoma/Desktop/Scilab/toolboxes/STM32_toolbox_1-1/scicos_blocks/src/c\convert.c ****             }
1752:C:/Users/geoma/Desktop/Scilab/toolboxes/STM32_toolbox_1-1/scicos_blocks/src/c\convert.c ****             case 87:
1753:C:/Users/geoma/Desktop/Scilab/toolboxes/STM32_toolbox_1-1/scicos_blocks/src/c\convert.c ****             {
1754:C:/Users/geoma/Desktop/Scilab/toolboxes/STM32_toolbox_1-1/scicos_blocks/src/c\convert.c ****                 SCSUINT32_COP *u = NULL;
1755:C:/Users/geoma/Desktop/Scilab/toolboxes/STM32_toolbox_1-1/scicos_blocks/src/c\convert.c ****                 SCSUINT8_COP *y = NULL;
1756:C:/Users/geoma/Desktop/Scilab/toolboxes/STM32_toolbox_1-1/scicos_blocks/src/c\convert.c ****                 u = Getuint32InPortPtrs(block, 1);
 4938              		.loc 1 1756 0 is_stmt 1
 4939 1d3a 436C     		ldr	r3, [r0, #68]
 4940 1d3c 1F68     		ldr	r7, [r3]
 4941              	.LVL815:
1757:C:/Users/geoma/Desktop/Scilab/toolboxes/STM32_toolbox_1-1/scicos_blocks/src/c\convert.c ****                 y = Getuint8OutPortPtrs(block, 1);
 4942              		.loc 1 1757 0
 4943 1d3e 036D     		ldr	r3, [r0, #80]
 4944 1d40 D3F80080 		ldr	r8, [r3]
 4945              	.LVL816:
1758:C:/Users/geoma/Desktop/Scilab/toolboxes/STM32_toolbox_1-1/scicos_blocks/src/c\convert.c ****                 k = pow(2, 8);
1759:C:/Users/geoma/Desktop/Scilab/toolboxes/STM32_toolbox_1-1/scicos_blocks/src/c\convert.c ****                 for (i = 0; i < m * n; i++)
 4946              		.loc 1 1759 0
 4947 1d44 0025     		movs	r5, #0
 4948 1d46 10E0     		b	.L435
 4949              	.LVL817:
 4950              	.L439:
1760:C:/Users/geoma/Desktop/Scilab/toolboxes/STM32_toolbox_1-1/scicos_blocks/src/c\convert.c ****                 {
1761:C:/Users/geoma/Desktop/Scilab/toolboxes/STM32_toolbox_1-1/scicos_blocks/src/c\convert.c ****                     if (u[i] > (k / 2 - 1))
 4951              		.loc 1 1761 0
 4952 1d48 57F82560 		ldr	r6, [r7, r5, lsl #2]
 4953 1d4c 3046     		mov	r0, r6
 4954 1d4e FFF7FEFF 		bl	__aeabi_ui2d
 4955              	.LVL818:
 4956 1d52 47A3     		adr	r3, .L544+8
 4957 1d54 D3E90023 		ldrd	r2, [r3]
 4958 1d58 FFF7FEFF 		bl	__aeabi_dcmpgt
 4959              	.LVL819:
 4960 1d5c 10B1     		cbz	r0, .L522
1762:C:/Users/geoma/Desktop/Scilab/toolboxes/STM32_toolbox_1-1/scicos_blocks/src/c\convert.c ****                     {
1763:C:/Users/geoma/Desktop/Scilab/toolboxes/STM32_toolbox_1-1/scicos_blocks/src/c\convert.c ****                         if (flag == 1)
 4961              		.loc 1 1763 0
 4962 1d5e 012C     		cmp	r4, #1
 4963 1d60 02D1     		bne	.L438
ARM GAS  C:\Users\geoma\AppData\Local\Temp\ccpZNVPJ.s 			page 122


 4964 1d62 79E0     		b	.L1
 4965              	.L522:
1764:C:/Users/geoma/Desktop/Scilab/toolboxes/STM32_toolbox_1-1/scicos_blocks/src/c\convert.c ****                         {
1765:C:/Users/geoma/Desktop/Scilab/toolboxes/STM32_toolbox_1-1/scicos_blocks/src/c\convert.c ****                             //scicos_print(_("overflow error"));
1766:C:/Users/geoma/Desktop/Scilab/toolboxes/STM32_toolbox_1-1/scicos_blocks/src/c\convert.c ****                             //set_block_error(-4);
1767:C:/Users/geoma/Desktop/Scilab/toolboxes/STM32_toolbox_1-1/scicos_blocks/src/c\convert.c ****                             return;
1768:C:/Users/geoma/Desktop/Scilab/toolboxes/STM32_toolbox_1-1/scicos_blocks/src/c\convert.c ****                         }
1769:C:/Users/geoma/Desktop/Scilab/toolboxes/STM32_toolbox_1-1/scicos_blocks/src/c\convert.c ****                     }
1770:C:/Users/geoma/Desktop/Scilab/toolboxes/STM32_toolbox_1-1/scicos_blocks/src/c\convert.c ****                     else
1771:C:/Users/geoma/Desktop/Scilab/toolboxes/STM32_toolbox_1-1/scicos_blocks/src/c\convert.c ****                     {
1772:C:/Users/geoma/Desktop/Scilab/toolboxes/STM32_toolbox_1-1/scicos_blocks/src/c\convert.c ****                         y[i] = (SCSUINT8_COP)(u[i]);
 4966              		.loc 1 1772 0
 4967 1d64 08F80560 		strb	r6, [r8, r5]
 4968              	.L438:
1759:C:/Users/geoma/Desktop/Scilab/toolboxes/STM32_toolbox_1-1/scicos_blocks/src/c\convert.c ****                 {
 4969              		.loc 1 1759 0 discriminator 2
 4970 1d68 0135     		adds	r5, r5, #1
 4971              	.LVL820:
 4972              	.L435:
1759:C:/Users/geoma/Desktop/Scilab/toolboxes/STM32_toolbox_1-1/scicos_blocks/src/c\convert.c ****                 {
 4973              		.loc 1 1759 0 is_stmt 0 discriminator 1
 4974 1d6a 0AFB0BF3 		mul	r3, r10, fp
 4975 1d6e AB42     		cmp	r3, r5
 4976 1d70 EADC     		bgt	.L439
 4977 1d72 71E0     		b	.L1
 4978              	.LVL821:
 4979              	.L91:
 4980              	.LBE88:
 4981              	.LBB89:
1773:C:/Users/geoma/Desktop/Scilab/toolboxes/STM32_toolbox_1-1/scicos_blocks/src/c\convert.c ****                     }
1774:C:/Users/geoma/Desktop/Scilab/toolboxes/STM32_toolbox_1-1/scicos_blocks/src/c\convert.c ****                 }
1775:C:/Users/geoma/Desktop/Scilab/toolboxes/STM32_toolbox_1-1/scicos_blocks/src/c\convert.c ****                 break;
1776:C:/Users/geoma/Desktop/Scilab/toolboxes/STM32_toolbox_1-1/scicos_blocks/src/c\convert.c ****             }
1777:C:/Users/geoma/Desktop/Scilab/toolboxes/STM32_toolbox_1-1/scicos_blocks/src/c\convert.c ****             case 88:
1778:C:/Users/geoma/Desktop/Scilab/toolboxes/STM32_toolbox_1-1/scicos_blocks/src/c\convert.c ****             {
1779:C:/Users/geoma/Desktop/Scilab/toolboxes/STM32_toolbox_1-1/scicos_blocks/src/c\convert.c ****                 SCSUINT16_COP *u = NULL;
1780:C:/Users/geoma/Desktop/Scilab/toolboxes/STM32_toolbox_1-1/scicos_blocks/src/c\convert.c ****                 SCSINT16_COP *y = NULL;
1781:C:/Users/geoma/Desktop/Scilab/toolboxes/STM32_toolbox_1-1/scicos_blocks/src/c\convert.c ****                 u = Getuint16InPortPtrs(block, 1);
 4982              		.loc 1 1781 0 is_stmt 1
 4983 1d74 436C     		ldr	r3, [r0, #68]
 4984 1d76 1F68     		ldr	r7, [r3]
 4985              	.LVL822:
1782:C:/Users/geoma/Desktop/Scilab/toolboxes/STM32_toolbox_1-1/scicos_blocks/src/c\convert.c ****                 y = Getint16OutPortPtrs(block, 1);
 4986              		.loc 1 1782 0
 4987 1d78 036D     		ldr	r3, [r0, #80]
 4988 1d7a D3F80080 		ldr	r8, [r3]
 4989              	.LVL823:
1783:C:/Users/geoma/Desktop/Scilab/toolboxes/STM32_toolbox_1-1/scicos_blocks/src/c\convert.c ****                 k = pow(2, 16);
1784:C:/Users/geoma/Desktop/Scilab/toolboxes/STM32_toolbox_1-1/scicos_blocks/src/c\convert.c ****                 for (i = 0; i < m * n; i++)
 4990              		.loc 1 1784 0
 4991 1d7e 0025     		movs	r5, #0
 4992 1d80 10E0     		b	.L440
 4993              	.LVL824:
 4994              	.L444:
1785:C:/Users/geoma/Desktop/Scilab/toolboxes/STM32_toolbox_1-1/scicos_blocks/src/c\convert.c ****                 {
1786:C:/Users/geoma/Desktop/Scilab/toolboxes/STM32_toolbox_1-1/scicos_blocks/src/c\convert.c ****                     if (u[i] > (k / 2 - 1))
 4995              		.loc 1 1786 0
ARM GAS  C:\Users\geoma\AppData\Local\Temp\ccpZNVPJ.s 			page 123


 4996 1d82 37F81560 		ldrh	r6, [r7, r5, lsl #1]
 4997 1d86 3046     		mov	r0, r6
 4998 1d88 FFF7FEFF 		bl	__aeabi_i2d
 4999              	.LVL825:
 5000 1d8c 36A3     		adr	r3, .L544
 5001 1d8e D3E90023 		ldrd	r2, [r3]
 5002 1d92 FFF7FEFF 		bl	__aeabi_dcmpgt
 5003              	.LVL826:
 5004 1d96 10B1     		cbz	r0, .L523
1787:C:/Users/geoma/Desktop/Scilab/toolboxes/STM32_toolbox_1-1/scicos_blocks/src/c\convert.c ****                     {
1788:C:/Users/geoma/Desktop/Scilab/toolboxes/STM32_toolbox_1-1/scicos_blocks/src/c\convert.c ****                         if (flag == 1)
 5005              		.loc 1 1788 0
 5006 1d98 012C     		cmp	r4, #1
 5007 1d9a 02D1     		bne	.L443
 5008 1d9c 5CE0     		b	.L1
 5009              	.L523:
1789:C:/Users/geoma/Desktop/Scilab/toolboxes/STM32_toolbox_1-1/scicos_blocks/src/c\convert.c ****                         {
1790:C:/Users/geoma/Desktop/Scilab/toolboxes/STM32_toolbox_1-1/scicos_blocks/src/c\convert.c ****                             //scicos_print(_("overflow error"));
1791:C:/Users/geoma/Desktop/Scilab/toolboxes/STM32_toolbox_1-1/scicos_blocks/src/c\convert.c ****                             //set_block_error(-4);
1792:C:/Users/geoma/Desktop/Scilab/toolboxes/STM32_toolbox_1-1/scicos_blocks/src/c\convert.c ****                             return;
1793:C:/Users/geoma/Desktop/Scilab/toolboxes/STM32_toolbox_1-1/scicos_blocks/src/c\convert.c ****                         }
1794:C:/Users/geoma/Desktop/Scilab/toolboxes/STM32_toolbox_1-1/scicos_blocks/src/c\convert.c ****                     }
1795:C:/Users/geoma/Desktop/Scilab/toolboxes/STM32_toolbox_1-1/scicos_blocks/src/c\convert.c ****                     else
1796:C:/Users/geoma/Desktop/Scilab/toolboxes/STM32_toolbox_1-1/scicos_blocks/src/c\convert.c ****                     {
1797:C:/Users/geoma/Desktop/Scilab/toolboxes/STM32_toolbox_1-1/scicos_blocks/src/c\convert.c ****                         y[i] = (SCSINT16_COP)(u[i]);
 5010              		.loc 1 1797 0
 5011 1d9e 28F81560 		strh	r6, [r8, r5, lsl #1]	@ movhi
 5012              	.L443:
1784:C:/Users/geoma/Desktop/Scilab/toolboxes/STM32_toolbox_1-1/scicos_blocks/src/c\convert.c ****                 {
 5013              		.loc 1 1784 0 discriminator 2
 5014 1da2 0135     		adds	r5, r5, #1
 5015              	.LVL827:
 5016              	.L440:
1784:C:/Users/geoma/Desktop/Scilab/toolboxes/STM32_toolbox_1-1/scicos_blocks/src/c\convert.c ****                 {
 5017              		.loc 1 1784 0 is_stmt 0 discriminator 1
 5018 1da4 0AFB0BF3 		mul	r3, r10, fp
 5019 1da8 AB42     		cmp	r3, r5
 5020 1daa EADC     		bgt	.L444
 5021 1dac 54E0     		b	.L1
 5022              	.LVL828:
 5023              	.L92:
 5024              	.LBE89:
 5025              	.LBB90:
1798:C:/Users/geoma/Desktop/Scilab/toolboxes/STM32_toolbox_1-1/scicos_blocks/src/c\convert.c ****                     }
1799:C:/Users/geoma/Desktop/Scilab/toolboxes/STM32_toolbox_1-1/scicos_blocks/src/c\convert.c ****                 }
1800:C:/Users/geoma/Desktop/Scilab/toolboxes/STM32_toolbox_1-1/scicos_blocks/src/c\convert.c ****                 break;
1801:C:/Users/geoma/Desktop/Scilab/toolboxes/STM32_toolbox_1-1/scicos_blocks/src/c\convert.c ****             }
1802:C:/Users/geoma/Desktop/Scilab/toolboxes/STM32_toolbox_1-1/scicos_blocks/src/c\convert.c ****             case 89:
1803:C:/Users/geoma/Desktop/Scilab/toolboxes/STM32_toolbox_1-1/scicos_blocks/src/c\convert.c ****             {
1804:C:/Users/geoma/Desktop/Scilab/toolboxes/STM32_toolbox_1-1/scicos_blocks/src/c\convert.c ****                 SCSUINT16_COP *u = NULL;
1805:C:/Users/geoma/Desktop/Scilab/toolboxes/STM32_toolbox_1-1/scicos_blocks/src/c\convert.c ****                 SCSINT8_COP *y = NULL;
1806:C:/Users/geoma/Desktop/Scilab/toolboxes/STM32_toolbox_1-1/scicos_blocks/src/c\convert.c ****                 u = Getuint16InPortPtrs(block, 1);
 5026              		.loc 1 1806 0 is_stmt 1
 5027 1dae 436C     		ldr	r3, [r0, #68]
 5028 1db0 1F68     		ldr	r7, [r3]
 5029              	.LVL829:
1807:C:/Users/geoma/Desktop/Scilab/toolboxes/STM32_toolbox_1-1/scicos_blocks/src/c\convert.c ****                 y = Getint8OutPortPtrs(block, 1);
ARM GAS  C:\Users\geoma\AppData\Local\Temp\ccpZNVPJ.s 			page 124


 5030              		.loc 1 1807 0
 5031 1db2 036D     		ldr	r3, [r0, #80]
 5032 1db4 D3F80080 		ldr	r8, [r3]
 5033              	.LVL830:
1808:C:/Users/geoma/Desktop/Scilab/toolboxes/STM32_toolbox_1-1/scicos_blocks/src/c\convert.c ****                 k = pow(2, 8);
1809:C:/Users/geoma/Desktop/Scilab/toolboxes/STM32_toolbox_1-1/scicos_blocks/src/c\convert.c ****                 for (i = 0; i < m * n; i++)
 5034              		.loc 1 1809 0
 5035 1db8 0025     		movs	r5, #0
 5036 1dba 10E0     		b	.L445
 5037              	.LVL831:
 5038              	.L449:
1810:C:/Users/geoma/Desktop/Scilab/toolboxes/STM32_toolbox_1-1/scicos_blocks/src/c\convert.c ****                 {
1811:C:/Users/geoma/Desktop/Scilab/toolboxes/STM32_toolbox_1-1/scicos_blocks/src/c\convert.c ****                     if (u[i] > (k / 2 - 1))
 5039              		.loc 1 1811 0
 5040 1dbc 37F81560 		ldrh	r6, [r7, r5, lsl #1]
 5041 1dc0 3046     		mov	r0, r6
 5042 1dc2 FFF7FEFF 		bl	__aeabi_i2d
 5043              	.LVL832:
 5044 1dc6 2AA3     		adr	r3, .L544+8
 5045 1dc8 D3E90023 		ldrd	r2, [r3]
 5046 1dcc FFF7FEFF 		bl	__aeabi_dcmpgt
 5047              	.LVL833:
 5048 1dd0 10B1     		cbz	r0, .L524
1812:C:/Users/geoma/Desktop/Scilab/toolboxes/STM32_toolbox_1-1/scicos_blocks/src/c\convert.c ****                     {
1813:C:/Users/geoma/Desktop/Scilab/toolboxes/STM32_toolbox_1-1/scicos_blocks/src/c\convert.c ****                         if (flag == 1)
 5049              		.loc 1 1813 0
 5050 1dd2 012C     		cmp	r4, #1
 5051 1dd4 02D1     		bne	.L448
 5052 1dd6 3FE0     		b	.L1
 5053              	.L524:
1814:C:/Users/geoma/Desktop/Scilab/toolboxes/STM32_toolbox_1-1/scicos_blocks/src/c\convert.c ****                         {
1815:C:/Users/geoma/Desktop/Scilab/toolboxes/STM32_toolbox_1-1/scicos_blocks/src/c\convert.c ****                             //scicos_print(_("overflow error"));
1816:C:/Users/geoma/Desktop/Scilab/toolboxes/STM32_toolbox_1-1/scicos_blocks/src/c\convert.c ****                             //set_block_error(-4);
1817:C:/Users/geoma/Desktop/Scilab/toolboxes/STM32_toolbox_1-1/scicos_blocks/src/c\convert.c ****                             return;
1818:C:/Users/geoma/Desktop/Scilab/toolboxes/STM32_toolbox_1-1/scicos_blocks/src/c\convert.c ****                         }
1819:C:/Users/geoma/Desktop/Scilab/toolboxes/STM32_toolbox_1-1/scicos_blocks/src/c\convert.c ****                     }
1820:C:/Users/geoma/Desktop/Scilab/toolboxes/STM32_toolbox_1-1/scicos_blocks/src/c\convert.c ****                     else
1821:C:/Users/geoma/Desktop/Scilab/toolboxes/STM32_toolbox_1-1/scicos_blocks/src/c\convert.c ****                     {
1822:C:/Users/geoma/Desktop/Scilab/toolboxes/STM32_toolbox_1-1/scicos_blocks/src/c\convert.c ****                         y[i] = (SCSINT8_COP)(u[i]);
 5054              		.loc 1 1822 0
 5055 1dd8 08F80560 		strb	r6, [r8, r5]
 5056              	.L448:
1809:C:/Users/geoma/Desktop/Scilab/toolboxes/STM32_toolbox_1-1/scicos_blocks/src/c\convert.c ****                 {
 5057              		.loc 1 1809 0 discriminator 2
 5058 1ddc 0135     		adds	r5, r5, #1
 5059              	.LVL834:
 5060              	.L445:
1809:C:/Users/geoma/Desktop/Scilab/toolboxes/STM32_toolbox_1-1/scicos_blocks/src/c\convert.c ****                 {
 5061              		.loc 1 1809 0 is_stmt 0 discriminator 1
 5062 1dde 0AFB0BF3 		mul	r3, r10, fp
 5063 1de2 AB42     		cmp	r3, r5
 5064 1de4 EADC     		bgt	.L449
 5065 1de6 37E0     		b	.L1
 5066              	.LVL835:
 5067              	.L93:
 5068              	.LBE90:
 5069              	.LBB91:
ARM GAS  C:\Users\geoma\AppData\Local\Temp\ccpZNVPJ.s 			page 125


1823:C:/Users/geoma/Desktop/Scilab/toolboxes/STM32_toolbox_1-1/scicos_blocks/src/c\convert.c ****                     }
1824:C:/Users/geoma/Desktop/Scilab/toolboxes/STM32_toolbox_1-1/scicos_blocks/src/c\convert.c ****                 }
1825:C:/Users/geoma/Desktop/Scilab/toolboxes/STM32_toolbox_1-1/scicos_blocks/src/c\convert.c ****                 break;
1826:C:/Users/geoma/Desktop/Scilab/toolboxes/STM32_toolbox_1-1/scicos_blocks/src/c\convert.c ****             }
1827:C:/Users/geoma/Desktop/Scilab/toolboxes/STM32_toolbox_1-1/scicos_blocks/src/c\convert.c ****             case 90:
1828:C:/Users/geoma/Desktop/Scilab/toolboxes/STM32_toolbox_1-1/scicos_blocks/src/c\convert.c ****             {
1829:C:/Users/geoma/Desktop/Scilab/toolboxes/STM32_toolbox_1-1/scicos_blocks/src/c\convert.c ****                 SCSUINT16_COP *u = NULL;
1830:C:/Users/geoma/Desktop/Scilab/toolboxes/STM32_toolbox_1-1/scicos_blocks/src/c\convert.c ****                 SCSUINT8_COP *y = NULL;
1831:C:/Users/geoma/Desktop/Scilab/toolboxes/STM32_toolbox_1-1/scicos_blocks/src/c\convert.c ****                 u = Getuint16InPortPtrs(block, 1);
 5070              		.loc 1 1831 0 is_stmt 1
 5071 1de8 436C     		ldr	r3, [r0, #68]
 5072 1dea 1F68     		ldr	r7, [r3]
 5073              	.LVL836:
1832:C:/Users/geoma/Desktop/Scilab/toolboxes/STM32_toolbox_1-1/scicos_blocks/src/c\convert.c ****                 y = Getuint8OutPortPtrs(block, 1);
 5074              		.loc 1 1832 0
 5075 1dec 036D     		ldr	r3, [r0, #80]
 5076 1dee D3F80080 		ldr	r8, [r3]
 5077              	.LVL837:
1833:C:/Users/geoma/Desktop/Scilab/toolboxes/STM32_toolbox_1-1/scicos_blocks/src/c\convert.c ****                 k = pow(2, 8);
1834:C:/Users/geoma/Desktop/Scilab/toolboxes/STM32_toolbox_1-1/scicos_blocks/src/c\convert.c ****                 for (i = 0; i < m * n; i++)
 5078              		.loc 1 1834 0
 5079 1df2 0025     		movs	r5, #0
 5080 1df4 10E0     		b	.L450
 5081              	.LVL838:
 5082              	.L454:
1835:C:/Users/geoma/Desktop/Scilab/toolboxes/STM32_toolbox_1-1/scicos_blocks/src/c\convert.c ****                 {
1836:C:/Users/geoma/Desktop/Scilab/toolboxes/STM32_toolbox_1-1/scicos_blocks/src/c\convert.c ****                     if (u[i] > (k / 2 - 1))
 5083              		.loc 1 1836 0
 5084 1df6 37F81560 		ldrh	r6, [r7, r5, lsl #1]
 5085 1dfa 3046     		mov	r0, r6
 5086 1dfc FFF7FEFF 		bl	__aeabi_i2d
 5087              	.LVL839:
 5088 1e00 1BA3     		adr	r3, .L544+8
 5089 1e02 D3E90023 		ldrd	r2, [r3]
 5090 1e06 FFF7FEFF 		bl	__aeabi_dcmpgt
 5091              	.LVL840:
 5092 1e0a 10B1     		cbz	r0, .L525
1837:C:/Users/geoma/Desktop/Scilab/toolboxes/STM32_toolbox_1-1/scicos_blocks/src/c\convert.c ****                     {
1838:C:/Users/geoma/Desktop/Scilab/toolboxes/STM32_toolbox_1-1/scicos_blocks/src/c\convert.c ****                         if (flag == 1)
 5093              		.loc 1 1838 0
 5094 1e0c 012C     		cmp	r4, #1
 5095 1e0e 02D1     		bne	.L453
 5096 1e10 22E0     		b	.L1
 5097              	.L525:
1839:C:/Users/geoma/Desktop/Scilab/toolboxes/STM32_toolbox_1-1/scicos_blocks/src/c\convert.c ****                         {
1840:C:/Users/geoma/Desktop/Scilab/toolboxes/STM32_toolbox_1-1/scicos_blocks/src/c\convert.c ****                             //scicos_print(_("overflow error"));
1841:C:/Users/geoma/Desktop/Scilab/toolboxes/STM32_toolbox_1-1/scicos_blocks/src/c\convert.c ****                             //set_block_error(-4);
1842:C:/Users/geoma/Desktop/Scilab/toolboxes/STM32_toolbox_1-1/scicos_blocks/src/c\convert.c ****                             return;
1843:C:/Users/geoma/Desktop/Scilab/toolboxes/STM32_toolbox_1-1/scicos_blocks/src/c\convert.c ****                         }
1844:C:/Users/geoma/Desktop/Scilab/toolboxes/STM32_toolbox_1-1/scicos_blocks/src/c\convert.c ****                     }
1845:C:/Users/geoma/Desktop/Scilab/toolboxes/STM32_toolbox_1-1/scicos_blocks/src/c\convert.c ****                     else
1846:C:/Users/geoma/Desktop/Scilab/toolboxes/STM32_toolbox_1-1/scicos_blocks/src/c\convert.c ****                     {
1847:C:/Users/geoma/Desktop/Scilab/toolboxes/STM32_toolbox_1-1/scicos_blocks/src/c\convert.c ****                         y[i] = (SCSUINT8_COP)(u[i]);
 5098              		.loc 1 1847 0
 5099 1e12 08F80560 		strb	r6, [r8, r5]
 5100              	.L453:
1834:C:/Users/geoma/Desktop/Scilab/toolboxes/STM32_toolbox_1-1/scicos_blocks/src/c\convert.c ****                 {
ARM GAS  C:\Users\geoma\AppData\Local\Temp\ccpZNVPJ.s 			page 126


 5101              		.loc 1 1834 0 discriminator 2
 5102 1e16 0135     		adds	r5, r5, #1
 5103              	.LVL841:
 5104              	.L450:
1834:C:/Users/geoma/Desktop/Scilab/toolboxes/STM32_toolbox_1-1/scicos_blocks/src/c\convert.c ****                 {
 5105              		.loc 1 1834 0 is_stmt 0 discriminator 1
 5106 1e18 0AFB0BF3 		mul	r3, r10, fp
 5107 1e1c AB42     		cmp	r3, r5
 5108 1e1e EADC     		bgt	.L454
 5109 1e20 1AE0     		b	.L1
 5110              	.LVL842:
 5111              	.L94:
 5112              	.LBE91:
 5113              	.LBB92:
1848:C:/Users/geoma/Desktop/Scilab/toolboxes/STM32_toolbox_1-1/scicos_blocks/src/c\convert.c ****                     }
1849:C:/Users/geoma/Desktop/Scilab/toolboxes/STM32_toolbox_1-1/scicos_blocks/src/c\convert.c ****                 }
1850:C:/Users/geoma/Desktop/Scilab/toolboxes/STM32_toolbox_1-1/scicos_blocks/src/c\convert.c ****                 break;
1851:C:/Users/geoma/Desktop/Scilab/toolboxes/STM32_toolbox_1-1/scicos_blocks/src/c\convert.c ****             }
1852:C:/Users/geoma/Desktop/Scilab/toolboxes/STM32_toolbox_1-1/scicos_blocks/src/c\convert.c ****             case 91:
1853:C:/Users/geoma/Desktop/Scilab/toolboxes/STM32_toolbox_1-1/scicos_blocks/src/c\convert.c ****             {
1854:C:/Users/geoma/Desktop/Scilab/toolboxes/STM32_toolbox_1-1/scicos_blocks/src/c\convert.c ****                 SCSUINT8_COP *u = NULL;
1855:C:/Users/geoma/Desktop/Scilab/toolboxes/STM32_toolbox_1-1/scicos_blocks/src/c\convert.c ****                 SCSINT8_COP *y = NULL;
1856:C:/Users/geoma/Desktop/Scilab/toolboxes/STM32_toolbox_1-1/scicos_blocks/src/c\convert.c ****                 u = Getuint8InPortPtrs(block, 1);
 5114              		.loc 1 1856 0 is_stmt 1
 5115 1e22 436C     		ldr	r3, [r0, #68]
 5116 1e24 1F68     		ldr	r7, [r3]
 5117              	.LVL843:
1857:C:/Users/geoma/Desktop/Scilab/toolboxes/STM32_toolbox_1-1/scicos_blocks/src/c\convert.c ****                 y = Getint8OutPortPtrs(block, 1);
 5118              		.loc 1 1857 0
 5119 1e26 036D     		ldr	r3, [r0, #80]
 5120 1e28 D3F80080 		ldr	r8, [r3]
 5121              	.LVL844:
1858:C:/Users/geoma/Desktop/Scilab/toolboxes/STM32_toolbox_1-1/scicos_blocks/src/c\convert.c ****                 k = pow(2, 8);
1859:C:/Users/geoma/Desktop/Scilab/toolboxes/STM32_toolbox_1-1/scicos_blocks/src/c\convert.c ****                 for (i = 0; i < m * n; i++)
 5122              		.loc 1 1859 0
 5123 1e2c 0025     		movs	r5, #0
 5124 1e2e 0FE0     		b	.L455
 5125              	.LVL845:
 5126              	.L459:
1860:C:/Users/geoma/Desktop/Scilab/toolboxes/STM32_toolbox_1-1/scicos_blocks/src/c\convert.c ****                 {
1861:C:/Users/geoma/Desktop/Scilab/toolboxes/STM32_toolbox_1-1/scicos_blocks/src/c\convert.c ****                     if (u[i] > (k / 2 - 1))
 5127              		.loc 1 1861 0
 5128 1e30 7E5D     		ldrb	r6, [r7, r5]	@ zero_extendqisi2
 5129 1e32 3046     		mov	r0, r6
 5130 1e34 FFF7FEFF 		bl	__aeabi_i2d
 5131              	.LVL846:
 5132 1e38 0DA3     		adr	r3, .L544+8
 5133 1e3a D3E90023 		ldrd	r2, [r3]
 5134 1e3e FFF7FEFF 		bl	__aeabi_dcmpgt
 5135              	.LVL847:
 5136 1e42 10B1     		cbz	r0, .L526
1862:C:/Users/geoma/Desktop/Scilab/toolboxes/STM32_toolbox_1-1/scicos_blocks/src/c\convert.c ****                     {
1863:C:/Users/geoma/Desktop/Scilab/toolboxes/STM32_toolbox_1-1/scicos_blocks/src/c\convert.c ****                         if (flag == 1)
 5137              		.loc 1 1863 0
 5138 1e44 012C     		cmp	r4, #1
 5139 1e46 02D1     		bne	.L458
 5140 1e48 06E0     		b	.L1
ARM GAS  C:\Users\geoma\AppData\Local\Temp\ccpZNVPJ.s 			page 127


 5141              	.L526:
1864:C:/Users/geoma/Desktop/Scilab/toolboxes/STM32_toolbox_1-1/scicos_blocks/src/c\convert.c ****                         {
1865:C:/Users/geoma/Desktop/Scilab/toolboxes/STM32_toolbox_1-1/scicos_blocks/src/c\convert.c ****                             //scicos_print(_("overflow error"));
1866:C:/Users/geoma/Desktop/Scilab/toolboxes/STM32_toolbox_1-1/scicos_blocks/src/c\convert.c ****                             //set_block_error(-4);
1867:C:/Users/geoma/Desktop/Scilab/toolboxes/STM32_toolbox_1-1/scicos_blocks/src/c\convert.c ****                             return;
1868:C:/Users/geoma/Desktop/Scilab/toolboxes/STM32_toolbox_1-1/scicos_blocks/src/c\convert.c ****                         }
1869:C:/Users/geoma/Desktop/Scilab/toolboxes/STM32_toolbox_1-1/scicos_blocks/src/c\convert.c ****                     }
1870:C:/Users/geoma/Desktop/Scilab/toolboxes/STM32_toolbox_1-1/scicos_blocks/src/c\convert.c ****                     else
1871:C:/Users/geoma/Desktop/Scilab/toolboxes/STM32_toolbox_1-1/scicos_blocks/src/c\convert.c ****                     {
1872:C:/Users/geoma/Desktop/Scilab/toolboxes/STM32_toolbox_1-1/scicos_blocks/src/c\convert.c ****                         y[i] = (SCSINT8_COP)(u[i]);
 5142              		.loc 1 1872 0
 5143 1e4a 08F80560 		strb	r6, [r8, r5]
 5144              	.L458:
1859:C:/Users/geoma/Desktop/Scilab/toolboxes/STM32_toolbox_1-1/scicos_blocks/src/c\convert.c ****                 {
 5145              		.loc 1 1859 0 discriminator 2
 5146 1e4e 0135     		adds	r5, r5, #1
 5147              	.LVL848:
 5148              	.L455:
1859:C:/Users/geoma/Desktop/Scilab/toolboxes/STM32_toolbox_1-1/scicos_blocks/src/c\convert.c ****                 {
 5149              		.loc 1 1859 0 is_stmt 0 discriminator 1
 5150 1e50 0AFB0BF3 		mul	r3, r10, fp
 5151 1e54 AB42     		cmp	r3, r5
 5152 1e56 EBDC     		bgt	.L459
 5153              	.LVL849:
 5154              	.L1:
 5155              	.LBE92:
1873:C:/Users/geoma/Desktop/Scilab/toolboxes/STM32_toolbox_1-1/scicos_blocks/src/c\convert.c ****                     }
1874:C:/Users/geoma/Desktop/Scilab/toolboxes/STM32_toolbox_1-1/scicos_blocks/src/c\convert.c ****                 }
1875:C:/Users/geoma/Desktop/Scilab/toolboxes/STM32_toolbox_1-1/scicos_blocks/src/c\convert.c ****                 break;
1876:C:/Users/geoma/Desktop/Scilab/toolboxes/STM32_toolbox_1-1/scicos_blocks/src/c\convert.c ****             }
1877:C:/Users/geoma/Desktop/Scilab/toolboxes/STM32_toolbox_1-1/scicos_blocks/src/c\convert.c ****         }
1878:C:/Users/geoma/Desktop/Scilab/toolboxes/STM32_toolbox_1-1/scicos_blocks/src/c\convert.c ****     }
1879:C:/Users/geoma/Desktop/Scilab/toolboxes/STM32_toolbox_1-1/scicos_blocks/src/c\convert.c **** }
 5156              		.loc 1 1879 0 is_stmt 1
 5157 1e58 2BB0     		add	sp, sp, #172
 5158              	.LCFI3:
 5159              		.cfi_def_cfa_offset 44
 5160              		@ sp needed
 5161 1e5a BDEC028B 		fldmfdd	sp!, {d8}
 5162              	.LCFI4:
 5163              		.cfi_restore 80
 5164              		.cfi_restore 81
 5165              		.cfi_def_cfa_offset 36
 5166 1e5e BDE8F08F 		pop	{r4, r5, r6, r7, r8, r9, r10, fp, pc}
 5167              	.LVL850:
 5168              	.L545:
 5169 1e62 00BFAFF3 		.align	3
 5169      0080
 5170              	.L544:
 5171 1e68 00000000 		.word	0
 5172 1e6c C0FFDF40 		.word	1088421824
 5173 1e70 00000000 		.word	0
 5174 1e74 00C05F40 		.word	1080016896
 5175              		.cfi_endproc
 5176              	.LFE156:
 5178              		.text
 5179              	.Letext0:
ARM GAS  C:\Users\geoma\AppData\Local\Temp\ccpZNVPJ.s 			page 128


 5180              		.file 2 "c:\\program files (x86)\\gnu tools arm embedded\\4.9 2015q2\\arm-none-eabi\\include\\mach
 5181              		.file 3 "c:\\program files (x86)\\gnu tools arm embedded\\4.9 2015q2\\arm-none-eabi\\include\\sys\
 5182              		.file 4 "../../toolboxes/STM32_toolbox_1-1/scicos_blocks/includes/scicos_block4.h"
 5183              		.file 5 "Drivers/CMSIS/Include/core_cm4.h"
ARM GAS  C:\Users\geoma\AppData\Local\Temp\ccpZNVPJ.s 			page 129


DEFINED SYMBOLS
                            *ABS*:00000000 convert.c
C:\Users\geoma\AppData\Local\Temp\ccpZNVPJ.s:30     .text.convert:00000000 $t
C:\Users\geoma\AppData\Local\Temp\ccpZNVPJ.s:35     .text.convert:00000000 convert
C:\Users\geoma\AppData\Local\Temp\ccpZNVPJ.s:99     .text.convert:00000048 $d
C:\Users\geoma\AppData\Local\Temp\ccpZNVPJ.s:190    .text.convert:000000fe $t
C:\Users\geoma\AppData\Local\Temp\ccpZNVPJ.s:722    .text.convert:00000498 $d
C:\Users\geoma\AppData\Local\Temp\ccpZNVPJ.s:740    .text.convert:000004d4 $t
C:\Users\geoma\AppData\Local\Temp\ccpZNVPJ.s:1227   .text.convert:00000808 $d
C:\Users\geoma\AppData\Local\Temp\ccpZNVPJ.s:1244   .text.convert:00000838 $t
C:\Users\geoma\AppData\Local\Temp\ccpZNVPJ.s:1817   .text.convert:00000b68 $d
C:\Users\geoma\AppData\Local\Temp\ccpZNVPJ.s:1827   .text.convert:00000b84 $t
C:\Users\geoma\AppData\Local\Temp\ccpZNVPJ.s:2371   .text.convert:00000ed0 $d
C:\Users\geoma\AppData\Local\Temp\ccpZNVPJ.s:2384   .text.convert:00000ef8 $t
C:\Users\geoma\AppData\Local\Temp\ccpZNVPJ.s:2900   .text.convert:000011d0 $d
C:\Users\geoma\AppData\Local\Temp\ccpZNVPJ.s:2917   .text.convert:00001208 $t
C:\Users\geoma\AppData\Local\Temp\ccpZNVPJ.s:3507   .text.convert:000014f4 $d
C:\Users\geoma\AppData\Local\Temp\ccpZNVPJ.s:3510   .text.convert:000014f8 $t
C:\Users\geoma\AppData\Local\Temp\ccpZNVPJ.s:4240   .text.convert:00001950 $d
C:\Users\geoma\AppData\Local\Temp\ccpZNVPJ.s:4257   .text.convert:00001980 $t
C:\Users\geoma\AppData\Local\Temp\ccpZNVPJ.s:4795   .text.convert:00001c70 $d
C:\Users\geoma\AppData\Local\Temp\ccpZNVPJ.s:4807   .text.convert:00001c8c $t
C:\Users\geoma\AppData\Local\Temp\ccpZNVPJ.s:5171   .text.convert:00001e68 $d
                     .debug_frame:00000010 $d

UNDEFINED SYMBOLS
__aeabi_dmul
__aeabi_d2iz
__aeabi_i2d
__aeabi_dsub
__aeabi_dcmpgt
__aeabi_dcmpge
__aeabi_d2uiz
__aeabi_ui2d
__aeabi_dcmplt
memcpy
