ARM GAS  C:\Users\geoma\AppData\Local\Temp\ccpZNVPJ.s 			page 1


   1              		.syntax unified
   2              		.cpu cortex-m4
   3              		.eabi_attribute 27, 1
   4              		.eabi_attribute 28, 1
   5              		.fpu fpv4-sp-d16
   6              		.eabi_attribute 20, 1
   7              		.eabi_attribute 21, 1
   8              		.eabi_attribute 23, 3
   9              		.eabi_attribute 24, 1
  10              		.eabi_attribute 25, 1
  11              		.eabi_attribute 26, 1
  12              		.eabi_attribute 30, 1
  13              		.eabi_attribute 34, 1
  14              		.eabi_attribute 18, 4
  15              		.thumb
  16              		.file	"convert.c"
  17              		.text
  18              	.Ltext0:
  19              		.cfi_sections	.debug_frame
  20              		.global	__aeabi_dmul
  21              		.global	__aeabi_d2iz
  22              		.global	__aeabi_i2d
  23              		.global	__aeabi_dsub
  24              		.global	__aeabi_dcmpgt
  25              		.global	__aeabi_dcmpge
  26              		.global	__aeabi_d2uiz
  27              		.global	__aeabi_ui2d
  28              		.global	__aeabi_dcmplt
  29              		.section	.text.convert,"ax",%progbits
  30              		.align	2
  31              		.global	convert
  32              		.thumb
  33              		.thumb_func
  35              	convert:
  36              	.LFB156:
  37              		.file 1 "C:/Users/geoma/Desktop/Scilab/toolboxes/STM32_toolbox_1-1/scicos_blocks/src/c/convert.c"
   1:C:/Users/geoma/Desktop/Scilab/toolboxes/STM32_toolbox_1-1/scicos_blocks/src/c\convert.c **** /*  Scicos
   2:C:/Users/geoma/Desktop/Scilab/toolboxes/STM32_toolbox_1-1/scicos_blocks/src/c\convert.c **** *
   3:C:/Users/geoma/Desktop/Scilab/toolboxes/STM32_toolbox_1-1/scicos_blocks/src/c\convert.c **** *  Copyright (C) INRIA - METALAU Project <scicos@inria.fr>
   4:C:/Users/geoma/Desktop/Scilab/toolboxes/STM32_toolbox_1-1/scicos_blocks/src/c\convert.c **** *
   5:C:/Users/geoma/Desktop/Scilab/toolboxes/STM32_toolbox_1-1/scicos_blocks/src/c\convert.c **** * This program is free software; you can redistribute it and/or modify
   6:C:/Users/geoma/Desktop/Scilab/toolboxes/STM32_toolbox_1-1/scicos_blocks/src/c\convert.c **** * it under the terms of the GNU General Public License as published by
   7:C:/Users/geoma/Desktop/Scilab/toolboxes/STM32_toolbox_1-1/scicos_blocks/src/c\convert.c **** * the Free Software Foundation; either version 2 of the License, or
   8:C:/Users/geoma/Desktop/Scilab/toolboxes/STM32_toolbox_1-1/scicos_blocks/src/c\convert.c **** * (at your option) any later version.
   9:C:/Users/geoma/Desktop/Scilab/toolboxes/STM32_toolbox_1-1/scicos_blocks/src/c\convert.c **** *
  10:C:/Users/geoma/Desktop/Scilab/toolboxes/STM32_toolbox_1-1/scicos_blocks/src/c\convert.c **** * This program is distributed in the hope that it will be useful,
  11:C:/Users/geoma/Desktop/Scilab/toolboxes/STM32_toolbox_1-1/scicos_blocks/src/c\convert.c **** * but WITHOUT ANY WARRANTY; without even the implied warranty of
  12:C:/Users/geoma/Desktop/Scilab/toolboxes/STM32_toolbox_1-1/scicos_blocks/src/c\convert.c **** * MERCHANTABILITY or FITNESS FOR A PARTICULAR PURPOSE.  See the
  13:C:/Users/geoma/Desktop/Scilab/toolboxes/STM32_toolbox_1-1/scicos_blocks/src/c\convert.c **** * GNU General Public License for more details.
  14:C:/Users/geoma/Desktop/Scilab/toolboxes/STM32_toolbox_1-1/scicos_blocks/src/c\convert.c **** *
  15:C:/Users/geoma/Desktop/Scilab/toolboxes/STM32_toolbox_1-1/scicos_blocks/src/c\convert.c **** * You should have received a copy of the GNU General Public License
  16:C:/Users/geoma/Desktop/Scilab/toolboxes/STM32_toolbox_1-1/scicos_blocks/src/c\convert.c **** * along with this program; if not, write to the Free Software
  17:C:/Users/geoma/Desktop/Scilab/toolboxes/STM32_toolbox_1-1/scicos_blocks/src/c\convert.c **** * Foundation, Inc., 51 Franklin Street, Fifth Floor, Boston, MA 02110-1301, USA.
  18:C:/Users/geoma/Desktop/Scilab/toolboxes/STM32_toolbox_1-1/scicos_blocks/src/c\convert.c **** *
  19:C:/Users/geoma/Desktop/Scilab/toolboxes/STM32_toolbox_1-1/scicos_blocks/src/c\convert.c **** * See the file ./license.txt
  20:C:/Users/geoma/Desktop/Scilab/toolboxes/STM32_toolbox_1-1/scicos_blocks/src/c\convert.c **** */
  21:C:/Users/geoma/Desktop/Scilab/toolboxes/STM32_toolbox_1-1/scicos_blocks/src/c\convert.c **** /*--------------------------------------------------------------------------*/
ARM GAS  C:\Users\geoma\AppData\Local\Temp\ccpZNVPJ.s 			page 2


  22:C:/Users/geoma/Desktop/Scilab/toolboxes/STM32_toolbox_1-1/scicos_blocks/src/c\convert.c **** #ifndef __aeabi_assert
  23:C:/Users/geoma/Desktop/Scilab/toolboxes/STM32_toolbox_1-1/scicos_blocks/src/c\convert.c **** #define __aeabi_assert assert_failed
  24:C:/Users/geoma/Desktop/Scilab/toolboxes/STM32_toolbox_1-1/scicos_blocks/src/c\convert.c **** #endif
  25:C:/Users/geoma/Desktop/Scilab/toolboxes/STM32_toolbox_1-1/scicos_blocks/src/c\convert.c **** #include <math.h>
  26:C:/Users/geoma/Desktop/Scilab/toolboxes/STM32_toolbox_1-1/scicos_blocks/src/c\convert.c **** #include <string.h>
  27:C:/Users/geoma/Desktop/Scilab/toolboxes/STM32_toolbox_1-1/scicos_blocks/src/c\convert.c **** //#include <memory.h>
  28:C:/Users/geoma/Desktop/Scilab/toolboxes/STM32_toolbox_1-1/scicos_blocks/src/c\convert.c **** //#include "scicos.h"
  29:C:/Users/geoma/Desktop/Scilab/toolboxes/STM32_toolbox_1-1/scicos_blocks/src/c\convert.c **** //#include "machine.h"
  30:C:/Users/geoma/Desktop/Scilab/toolboxes/STM32_toolbox_1-1/scicos_blocks/src/c\convert.c **** #include "scicos_block4.h"
  31:C:/Users/geoma/Desktop/Scilab/toolboxes/STM32_toolbox_1-1/scicos_blocks/src/c\convert.c **** //#include "localization.h"
  32:C:/Users/geoma/Desktop/Scilab/toolboxes/STM32_toolbox_1-1/scicos_blocks/src/c\convert.c **** //#include "MALLOC.h"
  33:C:/Users/geoma/Desktop/Scilab/toolboxes/STM32_toolbox_1-1/scicos_blocks/src/c\convert.c **** #include "dynlib_scicos_blocks.h"
  34:C:/Users/geoma/Desktop/Scilab/toolboxes/STM32_toolbox_1-1/scicos_blocks/src/c\convert.c **** 
  35:C:/Users/geoma/Desktop/Scilab/toolboxes/STM32_toolbox_1-1/scicos_blocks/src/c\convert.c **** 
  36:C:/Users/geoma/Desktop/Scilab/toolboxes/STM32_toolbox_1-1/scicos_blocks/src/c\convert.c **** /*--------------------------------------------------------------------------*/
  37:C:/Users/geoma/Desktop/Scilab/toolboxes/STM32_toolbox_1-1/scicos_blocks/src/c\convert.c **** SCICOS_BLOCKS_IMPEXP void convert(scicos_block *block, int flag)
  38:C:/Users/geoma/Desktop/Scilab/toolboxes/STM32_toolbox_1-1/scicos_blocks/src/c\convert.c **** {
  38              		.loc 1 38 0
  39              		.cfi_startproc
  40              		@ args = 0, pretend = 0, frame = 168
  41              		@ frame_needed = 0, uses_anonymous_args = 0
  42              	.LVL0:
  43 0000 2DE9F04F 		push	{r4, r5, r6, r7, r8, r9, r10, fp, lr}
  44              	.LCFI0:
  45              		.cfi_def_cfa_offset 36
  46              		.cfi_offset 4, -36
  47              		.cfi_offset 5, -32
  48              		.cfi_offset 6, -28
  49              		.cfi_offset 7, -24
  50              		.cfi_offset 8, -20
  51              		.cfi_offset 9, -16
  52              		.cfi_offset 10, -12
  53              		.cfi_offset 11, -8
  54              		.cfi_offset 14, -4
  55 0004 2DED028B 		fstmfdd	sp!, {d8}
  56              	.LCFI1:
  57              		.cfi_def_cfa_offset 44
  58              		.cfi_offset 80, -44
  59              		.cfi_offset 81, -40
  60 0008 ABB0     		sub	sp, sp, #172
  61              	.LCFI2:
  62              		.cfi_def_cfa_offset 216
  63              	.LVL1:
  39:C:/Users/geoma/Desktop/Scilab/toolboxes/STM32_toolbox_1-1/scicos_blocks/src/c\convert.c ****     int m = 0, n = 0, i = 0;
  40:C:/Users/geoma/Desktop/Scilab/toolboxes/STM32_toolbox_1-1/scicos_blocks/src/c\convert.c ****     int *ipar = NULL;
  41:C:/Users/geoma/Desktop/Scilab/toolboxes/STM32_toolbox_1-1/scicos_blocks/src/c\convert.c ****     double v = 0., w = 0., k = 0.;
  42:C:/Users/geoma/Desktop/Scilab/toolboxes/STM32_toolbox_1-1/scicos_blocks/src/c\convert.c **** 
  43:C:/Users/geoma/Desktop/Scilab/toolboxes/STM32_toolbox_1-1/scicos_blocks/src/c\convert.c ****     m = GetInPortRows(block, 1);
  64              		.loc 1 43 0
  65 000a 036C     		ldr	r3, [r0, #64]
  66 000c D3F800B0 		ldr	fp, [r3]
  67              	.LVL2:
  44:C:/Users/geoma/Desktop/Scilab/toolboxes/STM32_toolbox_1-1/scicos_blocks/src/c\convert.c ****     n = GetInPortCols(block, 1);
  68              		.loc 1 44 0
  69 0010 C26B     		ldr	r2, [r0, #60]
  70 0012 53F822A0 		ldr	r10, [r3, r2, lsl #2]
  71              	.LVL3:
ARM GAS  C:\Users\geoma\AppData\Local\Temp\ccpZNVPJ.s 			page 3


  45:C:/Users/geoma/Desktop/Scilab/toolboxes/STM32_toolbox_1-1/scicos_blocks/src/c\convert.c ****     ipar = GetIparPtrs(block);
  72              		.loc 1 45 0
  73 0016 826E     		ldr	r2, [r0, #104]
  74              	.LVL4:
  46:C:/Users/geoma/Desktop/Scilab/toolboxes/STM32_toolbox_1-1/scicos_blocks/src/c\convert.c **** 
  47:C:/Users/geoma/Desktop/Scilab/toolboxes/STM32_toolbox_1-1/scicos_blocks/src/c\convert.c **** //RP_MODIF    if ((flag == 1) | (flag == 6))
  48:C:/Users/geoma/Desktop/Scilab/toolboxes/STM32_toolbox_1-1/scicos_blocks/src/c\convert.c ****     if ((flag == 1) | (flag == 4) | (flag == 6))
  75              		.loc 1 48 0
  76 0018 0129     		cmp	r1, #1
  77 001a 14BF     		ite	ne
  78 001c 0025     		movne	r5, #0
  79 001e 0125     		moveq	r5, #1
  80 0020 0429     		cmp	r1, #4
  81 0022 14BF     		ite	ne
  82 0024 2B46     		movne	r3, r5
  83 0026 45F00103 		orreq	r3, r5, #1
  84 002a 0629     		cmp	r1, #6
  85 002c 08BF     		it	eq
  86 002e 43F00103 		orreq	r3, r3, #1
  87 0032 002B     		cmp	r3, #0
  88 0034 01F01087 		beq	.L1
  89 0038 0C46     		mov	r4, r1
  49:C:/Users/geoma/Desktop/Scilab/toolboxes/STM32_toolbox_1-1/scicos_blocks/src/c\convert.c ****     {
  50:C:/Users/geoma/Desktop/Scilab/toolboxes/STM32_toolbox_1-1/scicos_blocks/src/c\convert.c ****         switch (*ipar)
  90              		.loc 1 50 0
  91 003a 1268     		ldr	r2, [r2]
  92              	.LVL5:
  93 003c 531E     		subs	r3, r2, #1
  94 003e 5A2B     		cmp	r3, #90
  95 0040 01F20A87 		bhi	.L1
  96 0044 DFE813F0 		tbh	[pc, r3, lsl #1]
  97              	.LVL6:
  98              	.L4:
  99 0048 5B00     		.2byte	(.L3-.L4)/2
 100 004a 8900     		.2byte	(.L5-.L4)/2
 101 004c 1101     		.2byte	(.L6-.L4)/2
 102 004e 9901     		.2byte	(.L7-.L4)/2
 103 0050 2102     		.2byte	(.L8-.L4)/2
 104 0052 6902     		.2byte	(.L9-.L4)/2
 105 0054 9202     		.2byte	(.L10-.L4)/2
 106 0056 BA02     		.2byte	(.L11-.L4)/2
 107 0058 CF02     		.2byte	(.L12-.L4)/2
 108 005a 5703     		.2byte	(.L13-.L4)/2
 109 005c F803     		.2byte	(.L14-.L4)/2
 110 005e 2204     		.2byte	(.L15-.L4)/2
 111 0060 4C04     		.2byte	(.L16-.L4)/2
 112 0062 6104     		.2byte	(.L17-.L4)/2
 113 0064 7204     		.2byte	(.L18-.L4)/2
 114 0066 FA04     		.2byte	(.L19-.L4)/2
 115 0068 0B05     		.2byte	(.L20-.L4)/2
 116 006a 3505     		.2byte	(.L21-.L4)/2
 117 006c 4905     		.2byte	(.L22-.L4)/2
 118 006e 5905     		.2byte	(.L23-.L4)/2
 119 0070 6905     		.2byte	(.L24-.L4)/2
 120 0072 7905     		.2byte	(.L25-.L4)/2
 121 0074 8905     		.2byte	(.L26-.L4)/2
 122 0076 AD05     		.2byte	(.L27-.L4)/2
ARM GAS  C:\Users\geoma\AppData\Local\Temp\ccpZNVPJ.s 			page 4


 123 0078 0406     		.2byte	(.L28-.L4)/2
 124 007a 5B06     		.2byte	(.L29-.L4)/2
 125 007c 8506     		.2byte	(.L30-.L4)/2
 126 007e AF06     		.2byte	(.L31-.L4)/2
 127 0080 C406     		.2byte	(.L32-.L4)/2
 128 0082 D506     		.2byte	(.L33-.L4)/2
 129 0084 2C07     		.2byte	(.L34-.L4)/2
 130 0086 3D07     		.2byte	(.L35-.L4)/2
 131 0088 7B07     		.2byte	(.L36-.L4)/2
 132 008a 8F07     		.2byte	(.L37-.L4)/2
 133 008c 9F07     		.2byte	(.L38-.L4)/2
 134 008e AF07     		.2byte	(.L39-.L4)/2
 135 0090 BF07     		.2byte	(.L40-.L4)/2
 136 0092 CF07     		.2byte	(.L41-.L4)/2
 137 0094 FF07     		.2byte	(.L42-.L4)/2
 138 0096 3008     		.2byte	(.L43-.L4)/2
 139 0098 5F08     		.2byte	(.L44-.L4)/2
 140 009a 8E08     		.2byte	(.L45-.L4)/2
 141 009c BD08     		.2byte	(.L46-.L4)/2
 142 009e 0709     		.2byte	(.L47-.L4)/2
 143 00a0 2809     		.2byte	(.L48-.L4)/2
 144 00a2 4309     		.2byte	(.L49-.L4)/2
 145 00a4 5A09     		.2byte	(.L50-.L4)/2
 146 00a6 7909     		.2byte	(.L51-.L4)/2
 147 00a8 9309     		.2byte	(.L52-.L4)/2
 148 00aa B009     		.2byte	(.L53-.L4)/2
 149 00ac C909     		.2byte	(.L54-.L4)/2
 150 00ae E109     		.2byte	(.L55-.L4)/2
 151 00b0 FD09     		.2byte	(.L56-.L4)/2
 152 00b2 0D0A     		.2byte	(.L57-.L4)/2
 153 00b4 1D0A     		.2byte	(.L58-.L4)/2
 154 00b6 2C0A     		.2byte	(.L59-.L4)/2
 155 00b8 450A     		.2byte	(.L60-.L4)/2
 156 00ba 610A     		.2byte	(.L61-.L4)/2
 157 00bc 760A     		.2byte	(.L62-.L4)/2
 158 00be 8F0A     		.2byte	(.L63-.L4)/2
 159 00c0 A40A     		.2byte	(.L64-.L4)/2
 160 00c2 BD0A     		.2byte	(.L65-.L4)/2
 161 00c4 D20A     		.2byte	(.L66-.L4)/2
 162 00c6 E70A     		.2byte	(.L67-.L4)/2
 163 00c8 FB0A     		.2byte	(.L68-.L4)/2
 164 00ca 330B     		.2byte	(.L69-.L4)/2
 165 00cc 6B0B     		.2byte	(.L70-.L4)/2
 166 00ce A30B     		.2byte	(.L71-.L4)/2
 167 00d0 DA0B     		.2byte	(.L72-.L4)/2
 168 00d2 110C     		.2byte	(.L73-.L4)/2
 169 00d4 480C     		.2byte	(.L74-.L4)/2
 170 00d6 9C0C     		.2byte	(.L75-.L4)/2
 171 00d8 D40C     		.2byte	(.L76-.L4)/2
 172 00da E90C     		.2byte	(.L77-.L4)/2
 173 00dc 110D     		.2byte	(.L78-.L4)/2
 174 00de 390D     		.2byte	(.L79-.L4)/2
 175 00e0 710D     		.2byte	(.L80-.L4)/2
 176 00e2 880D     		.2byte	(.L81-.L4)/2
 177 00e4 9E0D     		.2byte	(.L82-.L4)/2
 178 00e6 C80D     		.2byte	(.L83-.L4)/2
 179 00e8 D70D     		.2byte	(.L84-.L4)/2
ARM GAS  C:\Users\geoma\AppData\Local\Temp\ccpZNVPJ.s 			page 5


 180 00ea E60D     		.2byte	(.L85-.L4)/2
 181 00ec F40D     		.2byte	(.L86-.L4)/2
 182 00ee 220E     		.2byte	(.L87-.L4)/2
 183 00f0 3F0E     		.2byte	(.L88-.L4)/2
 184 00f2 5C0E     		.2byte	(.L89-.L4)/2
 185 00f4 790E     		.2byte	(.L90-.L4)/2
 186 00f6 960E     		.2byte	(.L91-.L4)/2
 187 00f8 B30E     		.2byte	(.L92-.L4)/2
 188 00fa D00E     		.2byte	(.L93-.L4)/2
 189 00fc ED0E     		.2byte	(.L94-.L4)/2
 190              		.p2align 1
 191              	.L3:
 192              	.LBB2:
  51:C:/Users/geoma/Desktop/Scilab/toolboxes/STM32_toolbox_1-1/scicos_blocks/src/c\convert.c ****         {
  52:C:/Users/geoma/Desktop/Scilab/toolboxes/STM32_toolbox_1-1/scicos_blocks/src/c\convert.c ****             case 1:
  53:C:/Users/geoma/Desktop/Scilab/toolboxes/STM32_toolbox_1-1/scicos_blocks/src/c\convert.c ****             {
  54:C:/Users/geoma/Desktop/Scilab/toolboxes/STM32_toolbox_1-1/scicos_blocks/src/c\convert.c ****                 void *u = NULL, *y = NULL;
  55:C:/Users/geoma/Desktop/Scilab/toolboxes/STM32_toolbox_1-1/scicos_blocks/src/c\convert.c ****                 int so;
  56:C:/Users/geoma/Desktop/Scilab/toolboxes/STM32_toolbox_1-1/scicos_blocks/src/c\convert.c ****                 so = GetSizeOfOut(block, 1);
 193              		.loc 1 56 0
 194 00fe C36C     		ldr	r3, [r0, #76]
 195 0100 816C     		ldr	r1, [r0, #72]
 196 0102 53F83130 		ldr	r3, [r3, r1, lsl #3]
 197 0106 0A2B     		cmp	r3, #10
 198 0108 1AD0     		beq	.L460
 199              		.loc 1 56 0 is_stmt 0 discriminator 1
 200 010a 0B2B     		cmp	r3, #11
 201 010c 16D0     		beq	.L461
 202              		.loc 1 56 0 discriminator 3
 203 010e 40F22B31 		movw	r1, #811
 204 0112 8B42     		cmp	r3, r1
 205 0114 18BF     		it	ne
 206 0116 512B     		cmpne	r3, #81
 207 0118 13D0     		beq	.L95
 208              		.loc 1 56 0 discriminator 6
 209 011a B3F54B7F 		cmp	r3, #812
 210 011e 18BF     		it	ne
 211 0120 522B     		cmpne	r3, #82
 212 0122 09D0     		beq	.L462
 213              		.loc 1 56 0 discriminator 9
 214 0124 40F22E32 		movw	r2, #814
 215 0128 9342     		cmp	r3, r2
 216 012a 18BF     		it	ne
 217 012c 542B     		cmpne	r3, #84
 218 012e 01D1     		bne	.L463
 219              		.loc 1 56 0
 220 0130 0422     		movs	r2, #4
 221 0132 06E0     		b	.L95
 222              	.L463:
 223 0134 0022     		movs	r2, #0
 224 0136 04E0     		b	.L95
 225              	.L462:
 226 0138 0222     		movs	r2, #2
 227 013a 02E0     		b	.L95
 228              	.L461:
 229 013c 1022     		movs	r2, #16
 230 013e 00E0     		b	.L95
ARM GAS  C:\Users\geoma\AppData\Local\Temp\ccpZNVPJ.s 			page 6


 231              	.L460:
 232 0140 0822     		movs	r2, #8
 233              	.L95:
 234              	.LVL7:
  57:C:/Users/geoma/Desktop/Scilab/toolboxes/STM32_toolbox_1-1/scicos_blocks/src/c\convert.c ****                 u = GetInPortPtrs(block, 1);
 235              		.loc 1 57 0 is_stmt 1 discriminator 20
 236 0142 416C     		ldr	r1, [r0, #68]
 237              	.LVL8:
  58:C:/Users/geoma/Desktop/Scilab/toolboxes/STM32_toolbox_1-1/scicos_blocks/src/c\convert.c ****                 y = GetOutPortPtrs(block, 1);
 238              		.loc 1 58 0 discriminator 20
 239 0144 006D     		ldr	r0, [r0, #80]
 240              	.LVL9:
  59:C:/Users/geoma/Desktop/Scilab/toolboxes/STM32_toolbox_1-1/scicos_blocks/src/c\convert.c ****                 memcpy(y, u, m * n * so);
 241              		.loc 1 59 0 discriminator 20
 242 0146 0AFB0BF3 		mul	r3, r10, fp
 243 014a 0068     		ldr	r0, [r0]
 244              	.LVL10:
 245 014c 0968     		ldr	r1, [r1]
 246              	.LVL11:
 247 014e 03FB02F2 		mul	r2, r3, r2
 248              	.LVL12:
 249 0152 FFF7FEFF 		bl	memcpy
 250              	.LVL13:
  60:C:/Users/geoma/Desktop/Scilab/toolboxes/STM32_toolbox_1-1/scicos_blocks/src/c\convert.c ****                 break;
 251              		.loc 1 60 0 discriminator 20
 252 0156 01F07FBE 		b	.L1
 253              	.LVL14:
 254              	.L5:
 255              	.LBE2:
 256              	.LBB3:
  61:C:/Users/geoma/Desktop/Scilab/toolboxes/STM32_toolbox_1-1/scicos_blocks/src/c\convert.c ****             }
  62:C:/Users/geoma/Desktop/Scilab/toolboxes/STM32_toolbox_1-1/scicos_blocks/src/c\convert.c ****             case 2:
  63:C:/Users/geoma/Desktop/Scilab/toolboxes/STM32_toolbox_1-1/scicos_blocks/src/c\convert.c ****             {
  64:C:/Users/geoma/Desktop/Scilab/toolboxes/STM32_toolbox_1-1/scicos_blocks/src/c\convert.c ****                 SCSREAL_COP *u = NULL;
  65:C:/Users/geoma/Desktop/Scilab/toolboxes/STM32_toolbox_1-1/scicos_blocks/src/c\convert.c ****                 SCSINT32_COP *y = NULL;
  66:C:/Users/geoma/Desktop/Scilab/toolboxes/STM32_toolbox_1-1/scicos_blocks/src/c\convert.c ****                 u = GetRealInPortPtrs(block, 1);
 257              		.loc 1 66 0
 258 015a 436C     		ldr	r3, [r0, #68]
 259 015c D3F80090 		ldr	r9, [r3]
 260              	.LVL15:
  67:C:/Users/geoma/Desktop/Scilab/toolboxes/STM32_toolbox_1-1/scicos_blocks/src/c\convert.c ****                 y = Getint32OutPortPtrs(block, 1);
 261              		.loc 1 67 0
 262 0160 036D     		ldr	r3, [r0, #80]
 263 0162 D3F80080 		ldr	r8, [r3]
 264              	.LVL16:
  68:C:/Users/geoma/Desktop/Scilab/toolboxes/STM32_toolbox_1-1/scicos_blocks/src/c\convert.c ****                 k = pow(2, 32);
  69:C:/Users/geoma/Desktop/Scilab/toolboxes/STM32_toolbox_1-1/scicos_blocks/src/c\convert.c ****                 for (i = 0; i < m * n; i++)
 265              		.loc 1 69 0
 266 0166 0026     		movs	r6, #0
 267 0168 79E0     		b	.L100
 268              	.LVL17:
 269              	.L105:
  70:C:/Users/geoma/Desktop/Scilab/toolboxes/STM32_toolbox_1-1/scicos_blocks/src/c\convert.c ****                 {
  71:C:/Users/geoma/Desktop/Scilab/toolboxes/STM32_toolbox_1-1/scicos_blocks/src/c\convert.c ****                     v = (double)u[i];
 270              		.loc 1 71 0
 271 016a 3746     		mov	r7, r6
 272 016c 09EBC603 		add	r3, r9, r6, lsl #3
ARM GAS  C:\Users\geoma\AppData\Local\Temp\ccpZNVPJ.s 			page 7


 273 0170 D3E90045 		ldrd	r4, [r3]
 274              	.LVL18:
  72:C:/Users/geoma/Desktop/Scilab/toolboxes/STM32_toolbox_1-1/scicos_blocks/src/c\convert.c ****                     w = v - (double)((int)(v / k)) * k;
 275              		.loc 1 72 0
 276 0174 2046     		mov	r0, r4
 277 0176 2946     		mov	r1, r5
 278 0178 0022     		movs	r2, #0
 279 017a CD4B     		ldr	r3, .L528+24
 280 017c FFF7FEFF 		bl	__aeabi_dmul
 281              	.LVL19:
 282 0180 FFF7FEFF 		bl	__aeabi_d2iz
 283              	.LVL20:
 284 0184 FFF7FEFF 		bl	__aeabi_i2d
 285              	.LVL21:
 286 0188 0022     		movs	r2, #0
 287 018a CA4B     		ldr	r3, .L528+28
 288 018c FFF7FEFF 		bl	__aeabi_dmul
 289              	.LVL22:
 290 0190 0246     		mov	r2, r0
 291 0192 0B46     		mov	r3, r1
 292 0194 2046     		mov	r0, r4
 293 0196 2946     		mov	r1, r5
 294 0198 FFF7FEFF 		bl	__aeabi_dsub
 295              	.LVL23:
 296 019c 0446     		mov	r4, r0
 297              	.LVL24:
 298 019e 0D46     		mov	r5, r1
 299              	.LVL25:
  73:C:/Users/geoma/Desktop/Scilab/toolboxes/STM32_toolbox_1-1/scicos_blocks/src/c\convert.c ****                     if (fabs(w) > k / 2 - 1)
 300              		.loc 1 73 0
 301 01a0 0090     		str	r0, [sp]
 302 01a2 21F00043 		bic	r3, r1, #-2147483648
 303 01a6 0193     		str	r3, [sp, #4]
 304 01a8 DDE90001 		ldrd	r0, [sp]
 305 01ac BAA3     		adr	r3, .L528
 306 01ae D3E90023 		ldrd	r2, [r3]
 307 01b2 FFF7FEFF 		bl	__aeabi_dcmpgt
 308              	.LVL26:
 309 01b6 0028     		cmp	r0, #0
 310 01b8 4AD0     		beq	.L101
  74:C:/Users/geoma/Desktop/Scilab/toolboxes/STM32_toolbox_1-1/scicos_blocks/src/c\convert.c ****                     {
  75:C:/Users/geoma/Desktop/Scilab/toolboxes/STM32_toolbox_1-1/scicos_blocks/src/c\convert.c ****                         if (w >= 0)
 311              		.loc 1 75 0
 312 01ba 2046     		mov	r0, r4
 313 01bc 2946     		mov	r1, r5
 314 01be 0022     		movs	r2, #0
 315 01c0 0023     		movs	r3, #0
 316 01c2 FFF7FEFF 		bl	__aeabi_dcmpge
 317              	.LVL27:
 318 01c6 08B3     		cbz	r0, .L500
  76:C:/Users/geoma/Desktop/Scilab/toolboxes/STM32_toolbox_1-1/scicos_blocks/src/c\convert.c ****                         {
  77:C:/Users/geoma/Desktop/Scilab/toolboxes/STM32_toolbox_1-1/scicos_blocks/src/c\convert.c ****                             w = (-k / 2 + fabs(w - (double)((int)(w / (k / 2))) * (k / 2)));
 319              		.loc 1 77 0
 320 01c8 2046     		mov	r0, r4
 321 01ca 2946     		mov	r1, r5
 322 01cc 0022     		movs	r2, #0
 323 01ce 4FF07853 		mov	r3, #1040187392
ARM GAS  C:\Users\geoma\AppData\Local\Temp\ccpZNVPJ.s 			page 8


 324 01d2 FFF7FEFF 		bl	__aeabi_dmul
 325              	.LVL28:
 326 01d6 FFF7FEFF 		bl	__aeabi_d2iz
 327              	.LVL29:
 328 01da FFF7FEFF 		bl	__aeabi_i2d
 329              	.LVL30:
 330 01de 0022     		movs	r2, #0
 331 01e0 B54B     		ldr	r3, .L528+32
 332 01e2 FFF7FEFF 		bl	__aeabi_dmul
 333              	.LVL31:
 334 01e6 0246     		mov	r2, r0
 335 01e8 0B46     		mov	r3, r1
 336 01ea 2046     		mov	r0, r4
 337 01ec 2946     		mov	r1, r5
 338 01ee FFF7FEFF 		bl	__aeabi_dsub
 339              	.LVL32:
 340 01f2 1290     		str	r0, [sp, #72]
 341 01f4 21F00043 		bic	r3, r1, #-2147483648
 342 01f8 1393     		str	r3, [sp, #76]
 343 01fa DDE91201 		ldrd	r0, [sp, #72]
 344 01fe 0022     		movs	r2, #0
 345 0200 AD4B     		ldr	r3, .L528+32
 346 0202 FFF7FEFF 		bl	__aeabi_dsub
 347              	.LVL33:
 348 0206 0446     		mov	r4, r0
 349              	.LVL34:
 350 0208 0D46     		mov	r5, r1
 351              	.LVL35:
 352 020a 21E0     		b	.L101
 353              	.L500:
  78:C:/Users/geoma/Desktop/Scilab/toolboxes/STM32_toolbox_1-1/scicos_blocks/src/c\convert.c ****                         }
  79:C:/Users/geoma/Desktop/Scilab/toolboxes/STM32_toolbox_1-1/scicos_blocks/src/c\convert.c ****                         else
  80:C:/Users/geoma/Desktop/Scilab/toolboxes/STM32_toolbox_1-1/scicos_blocks/src/c\convert.c ****                         {
  81:C:/Users/geoma/Desktop/Scilab/toolboxes/STM32_toolbox_1-1/scicos_blocks/src/c\convert.c ****                             w = -(-(k / 2) + fabs(w - (double)((int)(w / (k / 2))) * (k / 2)));
 354              		.loc 1 81 0
 355 020c 2046     		mov	r0, r4
 356 020e 2946     		mov	r1, r5
 357 0210 0022     		movs	r2, #0
 358 0212 4FF07853 		mov	r3, #1040187392
 359 0216 FFF7FEFF 		bl	__aeabi_dmul
 360              	.LVL36:
 361 021a FFF7FEFF 		bl	__aeabi_d2iz
 362              	.LVL37:
 363 021e FFF7FEFF 		bl	__aeabi_i2d
 364              	.LVL38:
 365 0222 0022     		movs	r2, #0
 366 0224 A44B     		ldr	r3, .L528+32
 367 0226 FFF7FEFF 		bl	__aeabi_dmul
 368              	.LVL39:
 369 022a 0246     		mov	r2, r0
 370 022c 0B46     		mov	r3, r1
 371 022e 2046     		mov	r0, r4
 372 0230 2946     		mov	r1, r5
 373 0232 FFF7FEFF 		bl	__aeabi_dsub
 374              	.LVL40:
 375 0236 1E90     		str	r0, [sp, #120]
 376 0238 21F00043 		bic	r3, r1, #-2147483648
ARM GAS  C:\Users\geoma\AppData\Local\Temp\ccpZNVPJ.s 			page 9


 377 023c 1F93     		str	r3, [sp, #124]
 378 023e DDE91E01 		ldrd	r0, [sp, #120]
 379 0242 0022     		movs	r2, #0
 380 0244 9C4B     		ldr	r3, .L528+32
 381 0246 FFF7FEFF 		bl	__aeabi_dsub
 382              	.LVL41:
 383 024a 0446     		mov	r4, r0
 384              	.LVL42:
 385 024c 01F10045 		add	r5, r1, #-2147483648
 386              	.LVL43:
 387              	.L101:
  82:C:/Users/geoma/Desktop/Scilab/toolboxes/STM32_toolbox_1-1/scicos_blocks/src/c\convert.c ****                         }
  83:C:/Users/geoma/Desktop/Scilab/toolboxes/STM32_toolbox_1-1/scicos_blocks/src/c\convert.c ****                     }
  84:C:/Users/geoma/Desktop/Scilab/toolboxes/STM32_toolbox_1-1/scicos_blocks/src/c\convert.c ****                     y[i] = (SCSINT32_COP)w;
 388              		.loc 1 84 0 discriminator 2
 389 0250 2046     		mov	r0, r4
 390 0252 2946     		mov	r1, r5
 391 0254 FFF7FEFF 		bl	__aeabi_d2iz
 392              	.LVL44:
 393 0258 48F82700 		str	r0, [r8, r7, lsl #2]
  69:C:/Users/geoma/Desktop/Scilab/toolboxes/STM32_toolbox_1-1/scicos_blocks/src/c\convert.c ****                 {
 394              		.loc 1 69 0 discriminator 2
 395 025c 0136     		adds	r6, r6, #1
 396              	.LVL45:
 397              	.L100:
  69:C:/Users/geoma/Desktop/Scilab/toolboxes/STM32_toolbox_1-1/scicos_blocks/src/c\convert.c ****                 {
 398              		.loc 1 69 0 is_stmt 0 discriminator 1
 399 025e 0AFB0BF3 		mul	r3, r10, fp
 400 0262 B342     		cmp	r3, r6
 401 0264 81DC     		bgt	.L105
 402 0266 01F0F7BD 		b	.L1
 403              	.LVL46:
 404              	.L6:
 405              	.LBE3:
 406              	.LBB4:
  85:C:/Users/geoma/Desktop/Scilab/toolboxes/STM32_toolbox_1-1/scicos_blocks/src/c\convert.c ****                 }
  86:C:/Users/geoma/Desktop/Scilab/toolboxes/STM32_toolbox_1-1/scicos_blocks/src/c\convert.c ****                 break;
  87:C:/Users/geoma/Desktop/Scilab/toolboxes/STM32_toolbox_1-1/scicos_blocks/src/c\convert.c ****             }
  88:C:/Users/geoma/Desktop/Scilab/toolboxes/STM32_toolbox_1-1/scicos_blocks/src/c\convert.c ****             case 3:
  89:C:/Users/geoma/Desktop/Scilab/toolboxes/STM32_toolbox_1-1/scicos_blocks/src/c\convert.c ****             {
  90:C:/Users/geoma/Desktop/Scilab/toolboxes/STM32_toolbox_1-1/scicos_blocks/src/c\convert.c ****                 SCSREAL_COP *u = NULL;
  91:C:/Users/geoma/Desktop/Scilab/toolboxes/STM32_toolbox_1-1/scicos_blocks/src/c\convert.c ****                 SCSINT16_COP *y = NULL;
  92:C:/Users/geoma/Desktop/Scilab/toolboxes/STM32_toolbox_1-1/scicos_blocks/src/c\convert.c ****                 u = GetRealInPortPtrs(block, 1);
 407              		.loc 1 92 0 is_stmt 1
 408 026a 436C     		ldr	r3, [r0, #68]
 409 026c D3F80090 		ldr	r9, [r3]
 410              	.LVL47:
  93:C:/Users/geoma/Desktop/Scilab/toolboxes/STM32_toolbox_1-1/scicos_blocks/src/c\convert.c ****                 y = Getint16OutPortPtrs(block, 1);
 411              		.loc 1 93 0
 412 0270 036D     		ldr	r3, [r0, #80]
 413 0272 D3F80080 		ldr	r8, [r3]
 414              	.LVL48:
  94:C:/Users/geoma/Desktop/Scilab/toolboxes/STM32_toolbox_1-1/scicos_blocks/src/c\convert.c ****                 k = pow(2, 16);
  95:C:/Users/geoma/Desktop/Scilab/toolboxes/STM32_toolbox_1-1/scicos_blocks/src/c\convert.c ****                 for (i = 0; i < m * n; i++)
 415              		.loc 1 95 0
 416 0276 0026     		movs	r6, #0
 417 0278 79E0     		b	.L106
ARM GAS  C:\Users\geoma\AppData\Local\Temp\ccpZNVPJ.s 			page 10


 418              	.LVL49:
 419              	.L111:
  96:C:/Users/geoma/Desktop/Scilab/toolboxes/STM32_toolbox_1-1/scicos_blocks/src/c\convert.c ****                 {
  97:C:/Users/geoma/Desktop/Scilab/toolboxes/STM32_toolbox_1-1/scicos_blocks/src/c\convert.c ****                     v = (double)u[i];
 420              		.loc 1 97 0
 421 027a 3746     		mov	r7, r6
 422 027c 09EBC603 		add	r3, r9, r6, lsl #3
 423 0280 D3E90045 		ldrd	r4, [r3]
 424              	.LVL50:
  98:C:/Users/geoma/Desktop/Scilab/toolboxes/STM32_toolbox_1-1/scicos_blocks/src/c\convert.c ****                     w = v - (double)((int)(v / k)) * k;
 425              		.loc 1 98 0
 426 0284 2046     		mov	r0, r4
 427 0286 2946     		mov	r1, r5
 428 0288 0022     		movs	r2, #0
 429 028a 8C4B     		ldr	r3, .L528+36
 430 028c FFF7FEFF 		bl	__aeabi_dmul
 431              	.LVL51:
 432 0290 FFF7FEFF 		bl	__aeabi_d2iz
 433              	.LVL52:
 434 0294 FFF7FEFF 		bl	__aeabi_i2d
 435              	.LVL53:
 436 0298 0022     		movs	r2, #0
 437 029a 894B     		ldr	r3, .L528+40
 438 029c FFF7FEFF 		bl	__aeabi_dmul
 439              	.LVL54:
 440 02a0 0246     		mov	r2, r0
 441 02a2 0B46     		mov	r3, r1
 442 02a4 2046     		mov	r0, r4
 443 02a6 2946     		mov	r1, r5
 444 02a8 FFF7FEFF 		bl	__aeabi_dsub
 445              	.LVL55:
 446 02ac 0446     		mov	r4, r0
 447              	.LVL56:
 448 02ae 0D46     		mov	r5, r1
 449              	.LVL57:
  99:C:/Users/geoma/Desktop/Scilab/toolboxes/STM32_toolbox_1-1/scicos_blocks/src/c\convert.c ****                     if (fabs(w) > k / 2 - 1)
 450              		.loc 1 99 0
 451 02b0 0290     		str	r0, [sp, #8]
 452 02b2 21F00043 		bic	r3, r1, #-2147483648
 453 02b6 0393     		str	r3, [sp, #12]
 454 02b8 DDE90201 		ldrd	r0, [sp, #8]
 455 02bc 78A3     		adr	r3, .L528+8
 456 02be D3E90023 		ldrd	r2, [r3]
 457 02c2 FFF7FEFF 		bl	__aeabi_dcmpgt
 458              	.LVL58:
 459 02c6 0028     		cmp	r0, #0
 460 02c8 4AD0     		beq	.L107
 100:C:/Users/geoma/Desktop/Scilab/toolboxes/STM32_toolbox_1-1/scicos_blocks/src/c\convert.c ****                     {
 101:C:/Users/geoma/Desktop/Scilab/toolboxes/STM32_toolbox_1-1/scicos_blocks/src/c\convert.c ****                         if (w >= 0)
 461              		.loc 1 101 0
 462 02ca 2046     		mov	r0, r4
 463 02cc 2946     		mov	r1, r5
 464 02ce 0022     		movs	r2, #0
 465 02d0 0023     		movs	r3, #0
 466 02d2 FFF7FEFF 		bl	__aeabi_dcmpge
 467              	.LVL59:
 468 02d6 08B3     		cbz	r0, .L501
ARM GAS  C:\Users\geoma\AppData\Local\Temp\ccpZNVPJ.s 			page 11


 102:C:/Users/geoma/Desktop/Scilab/toolboxes/STM32_toolbox_1-1/scicos_blocks/src/c\convert.c ****                         {
 103:C:/Users/geoma/Desktop/Scilab/toolboxes/STM32_toolbox_1-1/scicos_blocks/src/c\convert.c ****                             w = (-k / 2 + fabs(w - (double)((int)(w / (k / 2))) * (k / 2)));
 469              		.loc 1 103 0
 470 02d8 2046     		mov	r0, r4
 471 02da 2946     		mov	r1, r5
 472 02dc 0022     		movs	r2, #0
 473 02de 4FF07C53 		mov	r3, #1056964608
 474 02e2 FFF7FEFF 		bl	__aeabi_dmul
 475              	.LVL60:
 476 02e6 FFF7FEFF 		bl	__aeabi_d2iz
 477              	.LVL61:
 478 02ea FFF7FEFF 		bl	__aeabi_i2d
 479              	.LVL62:
 480 02ee 0022     		movs	r2, #0
 481 02f0 744B     		ldr	r3, .L528+44
 482 02f2 FFF7FEFF 		bl	__aeabi_dmul
 483              	.LVL63:
 484 02f6 0246     		mov	r2, r0
 485 02f8 0B46     		mov	r3, r1
 486 02fa 2046     		mov	r0, r4
 487 02fc 2946     		mov	r1, r5
 488 02fe FFF7FEFF 		bl	__aeabi_dsub
 489              	.LVL64:
 490 0302 1490     		str	r0, [sp, #80]
 491 0304 21F00043 		bic	r3, r1, #-2147483648
 492 0308 1593     		str	r3, [sp, #84]
 493 030a DDE91401 		ldrd	r0, [sp, #80]
 494 030e 0022     		movs	r2, #0
 495 0310 6C4B     		ldr	r3, .L528+44
 496 0312 FFF7FEFF 		bl	__aeabi_dsub
 497              	.LVL65:
 498 0316 0446     		mov	r4, r0
 499              	.LVL66:
 500 0318 0D46     		mov	r5, r1
 501              	.LVL67:
 502 031a 21E0     		b	.L107
 503              	.L501:
 104:C:/Users/geoma/Desktop/Scilab/toolboxes/STM32_toolbox_1-1/scicos_blocks/src/c\convert.c ****                         }
 105:C:/Users/geoma/Desktop/Scilab/toolboxes/STM32_toolbox_1-1/scicos_blocks/src/c\convert.c ****                         else
 106:C:/Users/geoma/Desktop/Scilab/toolboxes/STM32_toolbox_1-1/scicos_blocks/src/c\convert.c ****                         {
 107:C:/Users/geoma/Desktop/Scilab/toolboxes/STM32_toolbox_1-1/scicos_blocks/src/c\convert.c ****                             w = -(-(k / 2) + fabs(w - (double)((int)(w / (k / 2))) * (k / 2)));
 504              		.loc 1 107 0
 505 031c 2046     		mov	r0, r4
 506 031e 2946     		mov	r1, r5
 507 0320 0022     		movs	r2, #0
 508 0322 4FF07C53 		mov	r3, #1056964608
 509 0326 FFF7FEFF 		bl	__aeabi_dmul
 510              	.LVL68:
 511 032a FFF7FEFF 		bl	__aeabi_d2iz
 512              	.LVL69:
 513 032e FFF7FEFF 		bl	__aeabi_i2d
 514              	.LVL70:
 515 0332 0022     		movs	r2, #0
 516 0334 634B     		ldr	r3, .L528+44
 517 0336 FFF7FEFF 		bl	__aeabi_dmul
 518              	.LVL71:
 519 033a 0246     		mov	r2, r0
ARM GAS  C:\Users\geoma\AppData\Local\Temp\ccpZNVPJ.s 			page 12


 520 033c 0B46     		mov	r3, r1
 521 033e 2046     		mov	r0, r4
 522 0340 2946     		mov	r1, r5
 523 0342 FFF7FEFF 		bl	__aeabi_dsub
 524              	.LVL72:
 525 0346 2090     		str	r0, [sp, #128]
 526 0348 21F00043 		bic	r3, r1, #-2147483648
 527 034c 2193     		str	r3, [sp, #132]
 528 034e DDE92001 		ldrd	r0, [sp, #128]
 529 0352 0022     		movs	r2, #0
 530 0354 5B4B     		ldr	r3, .L528+44
 531 0356 FFF7FEFF 		bl	__aeabi_dsub
 532              	.LVL73:
 533 035a 0446     		mov	r4, r0
 534              	.LVL74:
 535 035c 01F10045 		add	r5, r1, #-2147483648
 536              	.LVL75:
 537              	.L107:
 108:C:/Users/geoma/Desktop/Scilab/toolboxes/STM32_toolbox_1-1/scicos_blocks/src/c\convert.c ****                         }
 109:C:/Users/geoma/Desktop/Scilab/toolboxes/STM32_toolbox_1-1/scicos_blocks/src/c\convert.c ****                     }
 110:C:/Users/geoma/Desktop/Scilab/toolboxes/STM32_toolbox_1-1/scicos_blocks/src/c\convert.c ****                     y[i] = (SCSINT16_COP)w;
 538              		.loc 1 110 0 discriminator 2
 539 0360 2046     		mov	r0, r4
 540 0362 2946     		mov	r1, r5
 541 0364 FFF7FEFF 		bl	__aeabi_d2iz
 542              	.LVL76:
 543 0368 28F81700 		strh	r0, [r8, r7, lsl #1]	@ movhi
  95:C:/Users/geoma/Desktop/Scilab/toolboxes/STM32_toolbox_1-1/scicos_blocks/src/c\convert.c ****                 {
 544              		.loc 1 95 0 discriminator 2
 545 036c 0136     		adds	r6, r6, #1
 546              	.LVL77:
 547              	.L106:
  95:C:/Users/geoma/Desktop/Scilab/toolboxes/STM32_toolbox_1-1/scicos_blocks/src/c\convert.c ****                 {
 548              		.loc 1 95 0 is_stmt 0 discriminator 1
 549 036e 0AFB0BF3 		mul	r3, r10, fp
 550 0372 B342     		cmp	r3, r6
 551 0374 81DC     		bgt	.L111
 552 0376 01F06FBD 		b	.L1
 553              	.LVL78:
 554              	.L7:
 555              	.LBE4:
 556              	.LBB5:
 111:C:/Users/geoma/Desktop/Scilab/toolboxes/STM32_toolbox_1-1/scicos_blocks/src/c\convert.c ****                 }
 112:C:/Users/geoma/Desktop/Scilab/toolboxes/STM32_toolbox_1-1/scicos_blocks/src/c\convert.c ****                 break;
 113:C:/Users/geoma/Desktop/Scilab/toolboxes/STM32_toolbox_1-1/scicos_blocks/src/c\convert.c ****             }
 114:C:/Users/geoma/Desktop/Scilab/toolboxes/STM32_toolbox_1-1/scicos_blocks/src/c\convert.c ****             case 4:
 115:C:/Users/geoma/Desktop/Scilab/toolboxes/STM32_toolbox_1-1/scicos_blocks/src/c\convert.c ****             {
 116:C:/Users/geoma/Desktop/Scilab/toolboxes/STM32_toolbox_1-1/scicos_blocks/src/c\convert.c ****                 SCSREAL_COP *u = NULL;
 117:C:/Users/geoma/Desktop/Scilab/toolboxes/STM32_toolbox_1-1/scicos_blocks/src/c\convert.c ****                 SCSINT8_COP *y = NULL;
 118:C:/Users/geoma/Desktop/Scilab/toolboxes/STM32_toolbox_1-1/scicos_blocks/src/c\convert.c ****                 u = GetRealInPortPtrs(block, 1);
 557              		.loc 1 118 0 is_stmt 1
 558 037a 436C     		ldr	r3, [r0, #68]
 559 037c D3F80090 		ldr	r9, [r3]
 560              	.LVL79:
 119:C:/Users/geoma/Desktop/Scilab/toolboxes/STM32_toolbox_1-1/scicos_blocks/src/c\convert.c ****                 y = Getint8OutPortPtrs(block, 1);
 561              		.loc 1 119 0
 562 0380 036D     		ldr	r3, [r0, #80]
ARM GAS  C:\Users\geoma\AppData\Local\Temp\ccpZNVPJ.s 			page 13


 563 0382 D3F80080 		ldr	r8, [r3]
 564              	.LVL80:
 120:C:/Users/geoma/Desktop/Scilab/toolboxes/STM32_toolbox_1-1/scicos_blocks/src/c\convert.c ****                 k = pow(2, 8);
 121:C:/Users/geoma/Desktop/Scilab/toolboxes/STM32_toolbox_1-1/scicos_blocks/src/c\convert.c ****                 for (i = 0; i < m * n; i++)
 565              		.loc 1 121 0
 566 0386 0026     		movs	r6, #0
 567 0388 79E0     		b	.L112
 568              	.LVL81:
 569              	.L117:
 122:C:/Users/geoma/Desktop/Scilab/toolboxes/STM32_toolbox_1-1/scicos_blocks/src/c\convert.c ****                 {
 123:C:/Users/geoma/Desktop/Scilab/toolboxes/STM32_toolbox_1-1/scicos_blocks/src/c\convert.c ****                     v = (double)u[i];
 570              		.loc 1 123 0
 571 038a 3746     		mov	r7, r6
 572 038c 09EBC603 		add	r3, r9, r6, lsl #3
 573 0390 D3E90045 		ldrd	r4, [r3]
 574              	.LVL82:
 124:C:/Users/geoma/Desktop/Scilab/toolboxes/STM32_toolbox_1-1/scicos_blocks/src/c\convert.c ****                     w = v - (double)((int)(v / k)) * k;
 575              		.loc 1 124 0
 576 0394 2046     		mov	r0, r4
 577 0396 2946     		mov	r1, r5
 578 0398 0022     		movs	r2, #0
 579 039a 4B4B     		ldr	r3, .L528+48
 580 039c FFF7FEFF 		bl	__aeabi_dmul
 581              	.LVL83:
 582 03a0 FFF7FEFF 		bl	__aeabi_d2iz
 583              	.LVL84:
 584 03a4 FFF7FEFF 		bl	__aeabi_i2d
 585              	.LVL85:
 586 03a8 0022     		movs	r2, #0
 587 03aa 484B     		ldr	r3, .L528+52
 588 03ac FFF7FEFF 		bl	__aeabi_dmul
 589              	.LVL86:
 590 03b0 0246     		mov	r2, r0
 591 03b2 0B46     		mov	r3, r1
 592 03b4 2046     		mov	r0, r4
 593 03b6 2946     		mov	r1, r5
 594 03b8 FFF7FEFF 		bl	__aeabi_dsub
 595              	.LVL87:
 596 03bc 0446     		mov	r4, r0
 597              	.LVL88:
 598 03be 0D46     		mov	r5, r1
 599              	.LVL89:
 125:C:/Users/geoma/Desktop/Scilab/toolboxes/STM32_toolbox_1-1/scicos_blocks/src/c\convert.c ****                     if (fabs(w) > k / 2 - 1)
 600              		.loc 1 125 0
 601 03c0 0490     		str	r0, [sp, #16]
 602 03c2 21F00043 		bic	r3, r1, #-2147483648
 603 03c6 0593     		str	r3, [sp, #20]
 604 03c8 DDE90401 		ldrd	r0, [sp, #16]
 605 03cc 36A3     		adr	r3, .L528+16
 606 03ce D3E90023 		ldrd	r2, [r3]
 607 03d2 FFF7FEFF 		bl	__aeabi_dcmpgt
 608              	.LVL90:
 609 03d6 0028     		cmp	r0, #0
 610 03d8 4AD0     		beq	.L113
 126:C:/Users/geoma/Desktop/Scilab/toolboxes/STM32_toolbox_1-1/scicos_blocks/src/c\convert.c ****                     {
 127:C:/Users/geoma/Desktop/Scilab/toolboxes/STM32_toolbox_1-1/scicos_blocks/src/c\convert.c ****                         if (w >= 0)
 611              		.loc 1 127 0
ARM GAS  C:\Users\geoma\AppData\Local\Temp\ccpZNVPJ.s 			page 14


 612 03da 2046     		mov	r0, r4
 613 03dc 2946     		mov	r1, r5
 614 03de 0022     		movs	r2, #0
 615 03e0 0023     		movs	r3, #0
 616 03e2 FFF7FEFF 		bl	__aeabi_dcmpge
 617              	.LVL91:
 618 03e6 08B3     		cbz	r0, .L502
 128:C:/Users/geoma/Desktop/Scilab/toolboxes/STM32_toolbox_1-1/scicos_blocks/src/c\convert.c ****                         {
 129:C:/Users/geoma/Desktop/Scilab/toolboxes/STM32_toolbox_1-1/scicos_blocks/src/c\convert.c ****                             w = (-k / 2 + fabs(w - (double)((int)(w / (k / 2))) * (k / 2)));
 619              		.loc 1 129 0
 620 03e8 2046     		mov	r0, r4
 621 03ea 2946     		mov	r1, r5
 622 03ec 0022     		movs	r2, #0
 623 03ee 4FF07E53 		mov	r3, #1065353216
 624 03f2 FFF7FEFF 		bl	__aeabi_dmul
 625              	.LVL92:
 626 03f6 FFF7FEFF 		bl	__aeabi_d2iz
 627              	.LVL93:
 628 03fa FFF7FEFF 		bl	__aeabi_i2d
 629              	.LVL94:
 630 03fe 0022     		movs	r2, #0
 631 0400 334B     		ldr	r3, .L528+56
 632 0402 FFF7FEFF 		bl	__aeabi_dmul
 633              	.LVL95:
 634 0406 0246     		mov	r2, r0
 635 0408 0B46     		mov	r3, r1
 636 040a 2046     		mov	r0, r4
 637 040c 2946     		mov	r1, r5
 638 040e FFF7FEFF 		bl	__aeabi_dsub
 639              	.LVL96:
 640 0412 1690     		str	r0, [sp, #88]
 641 0414 21F00043 		bic	r3, r1, #-2147483648
 642 0418 1793     		str	r3, [sp, #92]
 643 041a DDE91601 		ldrd	r0, [sp, #88]
 644 041e 0022     		movs	r2, #0
 645 0420 2B4B     		ldr	r3, .L528+56
 646 0422 FFF7FEFF 		bl	__aeabi_dsub
 647              	.LVL97:
 648 0426 0446     		mov	r4, r0
 649              	.LVL98:
 650 0428 0D46     		mov	r5, r1
 651              	.LVL99:
 652 042a 21E0     		b	.L113
 653              	.L502:
 130:C:/Users/geoma/Desktop/Scilab/toolboxes/STM32_toolbox_1-1/scicos_blocks/src/c\convert.c ****                         }
 131:C:/Users/geoma/Desktop/Scilab/toolboxes/STM32_toolbox_1-1/scicos_blocks/src/c\convert.c ****                         else
 132:C:/Users/geoma/Desktop/Scilab/toolboxes/STM32_toolbox_1-1/scicos_blocks/src/c\convert.c ****                         {
 133:C:/Users/geoma/Desktop/Scilab/toolboxes/STM32_toolbox_1-1/scicos_blocks/src/c\convert.c ****                             w = -(-(k / 2) + fabs(w - (double)((int)(w / (k / 2))) * (k / 2)));
 654              		.loc 1 133 0
 655 042c 2046     		mov	r0, r4
 656 042e 2946     		mov	r1, r5
 657 0430 0022     		movs	r2, #0
 658 0432 4FF07E53 		mov	r3, #1065353216
 659 0436 FFF7FEFF 		bl	__aeabi_dmul
 660              	.LVL100:
 661 043a FFF7FEFF 		bl	__aeabi_d2iz
 662              	.LVL101:
ARM GAS  C:\Users\geoma\AppData\Local\Temp\ccpZNVPJ.s 			page 15


 663 043e FFF7FEFF 		bl	__aeabi_i2d
 664              	.LVL102:
 665 0442 0022     		movs	r2, #0
 666 0444 224B     		ldr	r3, .L528+56
 667 0446 FFF7FEFF 		bl	__aeabi_dmul
 668              	.LVL103:
 669 044a 0246     		mov	r2, r0
 670 044c 0B46     		mov	r3, r1
 671 044e 2046     		mov	r0, r4
 672 0450 2946     		mov	r1, r5
 673 0452 FFF7FEFF 		bl	__aeabi_dsub
 674              	.LVL104:
 675 0456 2290     		str	r0, [sp, #136]
 676 0458 21F00043 		bic	r3, r1, #-2147483648
 677 045c 2393     		str	r3, [sp, #140]
 678 045e DDE92201 		ldrd	r0, [sp, #136]
 679 0462 0022     		movs	r2, #0
 680 0464 1A4B     		ldr	r3, .L528+56
 681 0466 FFF7FEFF 		bl	__aeabi_dsub
 682              	.LVL105:
 683 046a 0446     		mov	r4, r0
 684              	.LVL106:
 685 046c 01F10045 		add	r5, r1, #-2147483648
 686              	.LVL107:
 687              	.L113:
 134:C:/Users/geoma/Desktop/Scilab/toolboxes/STM32_toolbox_1-1/scicos_blocks/src/c\convert.c ****                         }
 135:C:/Users/geoma/Desktop/Scilab/toolboxes/STM32_toolbox_1-1/scicos_blocks/src/c\convert.c ****                     }
 136:C:/Users/geoma/Desktop/Scilab/toolboxes/STM32_toolbox_1-1/scicos_blocks/src/c\convert.c ****                     y[i] = (SCSINT8_COP)w;
 688              		.loc 1 136 0 discriminator 2
 689 0470 2046     		mov	r0, r4
 690 0472 2946     		mov	r1, r5
 691 0474 FFF7FEFF 		bl	__aeabi_d2uiz
 692              	.LVL108:
 693 0478 08F80700 		strb	r0, [r8, r7]
 121:C:/Users/geoma/Desktop/Scilab/toolboxes/STM32_toolbox_1-1/scicos_blocks/src/c\convert.c ****                 {
 694              		.loc 1 121 0 discriminator 2
 695 047c 0136     		adds	r6, r6, #1
 696              	.LVL109:
 697              	.L112:
 121:C:/Users/geoma/Desktop/Scilab/toolboxes/STM32_toolbox_1-1/scicos_blocks/src/c\convert.c ****                 {
 698              		.loc 1 121 0 is_stmt 0 discriminator 1
 699 047e 0AFB0BF3 		mul	r3, r10, fp
 700 0482 B342     		cmp	r3, r6
 701 0484 81DC     		bgt	.L117
 702 0486 01F0E7BC 		b	.L1
 703              	.LVL110:
 704              	.L8:
 705              	.LBE5:
 706              	.LBB6:
 137:C:/Users/geoma/Desktop/Scilab/toolboxes/STM32_toolbox_1-1/scicos_blocks/src/c\convert.c ****                 }
 138:C:/Users/geoma/Desktop/Scilab/toolboxes/STM32_toolbox_1-1/scicos_blocks/src/c\convert.c ****                 break;
 139:C:/Users/geoma/Desktop/Scilab/toolboxes/STM32_toolbox_1-1/scicos_blocks/src/c\convert.c ****             }
 140:C:/Users/geoma/Desktop/Scilab/toolboxes/STM32_toolbox_1-1/scicos_blocks/src/c\convert.c ****             case 5:
 141:C:/Users/geoma/Desktop/Scilab/toolboxes/STM32_toolbox_1-1/scicos_blocks/src/c\convert.c ****             {
 142:C:/Users/geoma/Desktop/Scilab/toolboxes/STM32_toolbox_1-1/scicos_blocks/src/c\convert.c ****                 SCSREAL_COP *u = NULL;
 143:C:/Users/geoma/Desktop/Scilab/toolboxes/STM32_toolbox_1-1/scicos_blocks/src/c\convert.c ****                 SCSUINT32_COP *y = NULL;
 144:C:/Users/geoma/Desktop/Scilab/toolboxes/STM32_toolbox_1-1/scicos_blocks/src/c\convert.c ****                 u = GetRealInPortPtrs(block, 1);
ARM GAS  C:\Users\geoma\AppData\Local\Temp\ccpZNVPJ.s 			page 16


 707              		.loc 1 144 0 is_stmt 1
 708 048a 436C     		ldr	r3, [r0, #68]
 709 048c 1E68     		ldr	r6, [r3]
 710              	.LVL111:
 145:C:/Users/geoma/Desktop/Scilab/toolboxes/STM32_toolbox_1-1/scicos_blocks/src/c\convert.c ****                 y = Getuint32OutPortPtrs(block, 1);
 711              		.loc 1 145 0
 712 048e 036D     		ldr	r3, [r0, #80]
 713 0490 1D68     		ldr	r5, [r3]
 714              	.LVL112:
 146:C:/Users/geoma/Desktop/Scilab/toolboxes/STM32_toolbox_1-1/scicos_blocks/src/c\convert.c ****                 k = pow(2, 32);
 147:C:/Users/geoma/Desktop/Scilab/toolboxes/STM32_toolbox_1-1/scicos_blocks/src/c\convert.c ****                 for (i = 0; i < m * n; i++)
 715              		.loc 1 147 0
 716 0492 0024     		movs	r4, #0
 717              	.LVL113:
 718 0494 3BE0     		b	.L118
 719              	.L529:
 720 0496 00BF     		.align	3
 721              	.L528:
 722 0498 0000C0FF 		.word	-4194304
 723 049c FFFFDF41 		.word	1105199103
 724 04a0 00000000 		.word	0
 725 04a4 C0FFDF40 		.word	1088421824
 726 04a8 00000000 		.word	0
 727 04ac 00C05F40 		.word	1080016896
 728 04b0 0000F03D 		.word	1039138816
 729 04b4 0000F041 		.word	1106247680
 730 04b8 0000E041 		.word	1105199104
 731 04bc 0000F03E 		.word	1055916032
 732 04c0 0000F040 		.word	1089470464
 733 04c4 0000E040 		.word	1088421888
 734 04c8 0000703F 		.word	1064304640
 735 04cc 00007040 		.word	1081081856
 736 04d0 00006040 		.word	1080033280
 737              	.LVL114:
 738              	.L119:
 148:C:/Users/geoma/Desktop/Scilab/toolboxes/STM32_toolbox_1-1/scicos_blocks/src/c\convert.c ****                 {
 149:C:/Users/geoma/Desktop/Scilab/toolboxes/STM32_toolbox_1-1/scicos_blocks/src/c\convert.c ****                     v = (double)u[i];
 739              		.loc 1 149 0 discriminator 3
 740 04d4 06EBC403 		add	r3, r6, r4, lsl #3
 741 04d8 D3E90089 		ldrd	r8, [r3]
 742              	.LVL115:
 150:C:/Users/geoma/Desktop/Scilab/toolboxes/STM32_toolbox_1-1/scicos_blocks/src/c\convert.c ****                     w = v - (double)((int)(v / k)) * k;
 743              		.loc 1 150 0 discriminator 3
 744 04dc 4046     		mov	r0, r8
 745 04de 4946     		mov	r1, r9
 746 04e0 0022     		movs	r2, #0
 747 04e2 CD4B     		ldr	r3, .L530+16
 748 04e4 FFF7FEFF 		bl	__aeabi_dmul
 749              	.LVL116:
 750 04e8 FFF7FEFF 		bl	__aeabi_d2iz
 751              	.LVL117:
 752 04ec FFF7FEFF 		bl	__aeabi_i2d
 753              	.LVL118:
 754 04f0 0022     		movs	r2, #0
 755 04f2 CA4B     		ldr	r3, .L530+20
 756 04f4 FFF7FEFF 		bl	__aeabi_dmul
 757              	.LVL119:
ARM GAS  C:\Users\geoma\AppData\Local\Temp\ccpZNVPJ.s 			page 17


 758 04f8 0246     		mov	r2, r0
 759 04fa 0B46     		mov	r3, r1
 760 04fc 4046     		mov	r0, r8
 761 04fe 4946     		mov	r1, r9
 762 0500 FFF7FEFF 		bl	__aeabi_dsub
 763              	.LVL120:
 151:C:/Users/geoma/Desktop/Scilab/toolboxes/STM32_toolbox_1-1/scicos_blocks/src/c\convert.c ****                     y[i] = (SCSUINT32_COP)w;
 764              		.loc 1 151 0 discriminator 3
 765 0504 FFF7FEFF 		bl	__aeabi_d2uiz
 766              	.LVL121:
 767 0508 45F82400 		str	r0, [r5, r4, lsl #2]
 147:C:/Users/geoma/Desktop/Scilab/toolboxes/STM32_toolbox_1-1/scicos_blocks/src/c\convert.c ****                 {
 768              		.loc 1 147 0 discriminator 3
 769 050c 0134     		adds	r4, r4, #1
 770              	.LVL122:
 771              	.L118:
 147:C:/Users/geoma/Desktop/Scilab/toolboxes/STM32_toolbox_1-1/scicos_blocks/src/c\convert.c ****                 {
 772              		.loc 1 147 0 is_stmt 0 discriminator 1
 773 050e 0AFB0BF3 		mul	r3, r10, fp
 774 0512 A342     		cmp	r3, r4
 775 0514 DEDC     		bgt	.L119
 776 0516 01F09FBC 		b	.L1
 777              	.LVL123:
 778              	.L9:
 779              	.LBE6:
 780              	.LBB7:
 152:C:/Users/geoma/Desktop/Scilab/toolboxes/STM32_toolbox_1-1/scicos_blocks/src/c\convert.c ****                 }
 153:C:/Users/geoma/Desktop/Scilab/toolboxes/STM32_toolbox_1-1/scicos_blocks/src/c\convert.c ****                 break;
 154:C:/Users/geoma/Desktop/Scilab/toolboxes/STM32_toolbox_1-1/scicos_blocks/src/c\convert.c ****             }
 155:C:/Users/geoma/Desktop/Scilab/toolboxes/STM32_toolbox_1-1/scicos_blocks/src/c\convert.c ****             case 6:
 156:C:/Users/geoma/Desktop/Scilab/toolboxes/STM32_toolbox_1-1/scicos_blocks/src/c\convert.c ****             {
 157:C:/Users/geoma/Desktop/Scilab/toolboxes/STM32_toolbox_1-1/scicos_blocks/src/c\convert.c ****                 SCSREAL_COP *u = NULL;
 158:C:/Users/geoma/Desktop/Scilab/toolboxes/STM32_toolbox_1-1/scicos_blocks/src/c\convert.c ****                 SCSUINT16_COP *y = NULL;
 159:C:/Users/geoma/Desktop/Scilab/toolboxes/STM32_toolbox_1-1/scicos_blocks/src/c\convert.c ****                 u = GetRealInPortPtrs(block, 1);
 781              		.loc 1 159 0 is_stmt 1
 782 051a 436C     		ldr	r3, [r0, #68]
 783 051c 1E68     		ldr	r6, [r3]
 784              	.LVL124:
 160:C:/Users/geoma/Desktop/Scilab/toolboxes/STM32_toolbox_1-1/scicos_blocks/src/c\convert.c ****                 y = Getuint16OutPortPtrs(block, 1);
 785              		.loc 1 160 0
 786 051e 036D     		ldr	r3, [r0, #80]
 787 0520 1D68     		ldr	r5, [r3]
 788              	.LVL125:
 161:C:/Users/geoma/Desktop/Scilab/toolboxes/STM32_toolbox_1-1/scicos_blocks/src/c\convert.c ****                 k = pow(2, 16);
 162:C:/Users/geoma/Desktop/Scilab/toolboxes/STM32_toolbox_1-1/scicos_blocks/src/c\convert.c ****                 for (i = 0; i < m * n; i++)
 789              		.loc 1 162 0
 790 0522 0024     		movs	r4, #0
 791              	.LVL126:
 792 0524 1CE0     		b	.L120
 793              	.LVL127:
 794              	.L121:
 163:C:/Users/geoma/Desktop/Scilab/toolboxes/STM32_toolbox_1-1/scicos_blocks/src/c\convert.c ****                 {
 164:C:/Users/geoma/Desktop/Scilab/toolboxes/STM32_toolbox_1-1/scicos_blocks/src/c\convert.c ****                     v = (double)u[i];
 795              		.loc 1 164 0 discriminator 3
 796 0526 06EBC403 		add	r3, r6, r4, lsl #3
 797 052a D3E90089 		ldrd	r8, [r3]
 798              	.LVL128:
ARM GAS  C:\Users\geoma\AppData\Local\Temp\ccpZNVPJ.s 			page 18


 165:C:/Users/geoma/Desktop/Scilab/toolboxes/STM32_toolbox_1-1/scicos_blocks/src/c\convert.c ****                     w = v - (double)((int)(v / k)) * k;
 799              		.loc 1 165 0 discriminator 3
 800 052e 4046     		mov	r0, r8
 801 0530 4946     		mov	r1, r9
 802 0532 0022     		movs	r2, #0
 803 0534 BA4B     		ldr	r3, .L530+24
 804 0536 FFF7FEFF 		bl	__aeabi_dmul
 805              	.LVL129:
 806 053a FFF7FEFF 		bl	__aeabi_d2iz
 807              	.LVL130:
 808 053e FFF7FEFF 		bl	__aeabi_i2d
 809              	.LVL131:
 810 0542 0022     		movs	r2, #0
 811 0544 B74B     		ldr	r3, .L530+28
 812 0546 FFF7FEFF 		bl	__aeabi_dmul
 813              	.LVL132:
 814 054a 0246     		mov	r2, r0
 815 054c 0B46     		mov	r3, r1
 816 054e 4046     		mov	r0, r8
 817 0550 4946     		mov	r1, r9
 818 0552 FFF7FEFF 		bl	__aeabi_dsub
 819              	.LVL133:
 166:C:/Users/geoma/Desktop/Scilab/toolboxes/STM32_toolbox_1-1/scicos_blocks/src/c\convert.c ****                     y[i] = (SCSUINT16_COP)w;
 820              		.loc 1 166 0 discriminator 3
 821 0556 FFF7FEFF 		bl	__aeabi_d2uiz
 822              	.LVL134:
 823 055a 25F81400 		strh	r0, [r5, r4, lsl #1]	@ movhi
 162:C:/Users/geoma/Desktop/Scilab/toolboxes/STM32_toolbox_1-1/scicos_blocks/src/c\convert.c ****                 {
 824              		.loc 1 162 0 discriminator 3
 825 055e 0134     		adds	r4, r4, #1
 826              	.LVL135:
 827              	.L120:
 162:C:/Users/geoma/Desktop/Scilab/toolboxes/STM32_toolbox_1-1/scicos_blocks/src/c\convert.c ****                 {
 828              		.loc 1 162 0 is_stmt 0 discriminator 1
 829 0560 0AFB0BF3 		mul	r3, r10, fp
 830 0564 A342     		cmp	r3, r4
 831 0566 DEDC     		bgt	.L121
 832 0568 01F076BC 		b	.L1
 833              	.LVL136:
 834              	.L10:
 835              	.LBE7:
 836              	.LBB8:
 167:C:/Users/geoma/Desktop/Scilab/toolboxes/STM32_toolbox_1-1/scicos_blocks/src/c\convert.c ****                 }
 168:C:/Users/geoma/Desktop/Scilab/toolboxes/STM32_toolbox_1-1/scicos_blocks/src/c\convert.c ****                 break;
 169:C:/Users/geoma/Desktop/Scilab/toolboxes/STM32_toolbox_1-1/scicos_blocks/src/c\convert.c ****             }
 170:C:/Users/geoma/Desktop/Scilab/toolboxes/STM32_toolbox_1-1/scicos_blocks/src/c\convert.c ****             case 7:
 171:C:/Users/geoma/Desktop/Scilab/toolboxes/STM32_toolbox_1-1/scicos_blocks/src/c\convert.c ****             {
 172:C:/Users/geoma/Desktop/Scilab/toolboxes/STM32_toolbox_1-1/scicos_blocks/src/c\convert.c ****                 SCSREAL_COP *u = NULL;
 173:C:/Users/geoma/Desktop/Scilab/toolboxes/STM32_toolbox_1-1/scicos_blocks/src/c\convert.c ****                 SCSUINT8_COP *y = NULL;
 174:C:/Users/geoma/Desktop/Scilab/toolboxes/STM32_toolbox_1-1/scicos_blocks/src/c\convert.c ****                 u = GetRealInPortPtrs(block, 1);
 837              		.loc 1 174 0 is_stmt 1
 838 056c 436C     		ldr	r3, [r0, #68]
 839 056e 1E68     		ldr	r6, [r3]
 840              	.LVL137:
 175:C:/Users/geoma/Desktop/Scilab/toolboxes/STM32_toolbox_1-1/scicos_blocks/src/c\convert.c ****                 y = Getuint8OutPortPtrs(block, 1);
 841              		.loc 1 175 0
 842 0570 036D     		ldr	r3, [r0, #80]
ARM GAS  C:\Users\geoma\AppData\Local\Temp\ccpZNVPJ.s 			page 19


 843 0572 1D68     		ldr	r5, [r3]
 844              	.LVL138:
 176:C:/Users/geoma/Desktop/Scilab/toolboxes/STM32_toolbox_1-1/scicos_blocks/src/c\convert.c ****                 k = pow(2, 8);
 177:C:/Users/geoma/Desktop/Scilab/toolboxes/STM32_toolbox_1-1/scicos_blocks/src/c\convert.c ****                 for (i = 0; i < m * n; i++)
 845              		.loc 1 177 0
 846 0574 0024     		movs	r4, #0
 847              	.LVL139:
 848 0576 1BE0     		b	.L122
 849              	.LVL140:
 850              	.L123:
 178:C:/Users/geoma/Desktop/Scilab/toolboxes/STM32_toolbox_1-1/scicos_blocks/src/c\convert.c ****                 {
 179:C:/Users/geoma/Desktop/Scilab/toolboxes/STM32_toolbox_1-1/scicos_blocks/src/c\convert.c ****                     v = (double)u[i];
 851              		.loc 1 179 0 discriminator 3
 852 0578 06EBC403 		add	r3, r6, r4, lsl #3
 853 057c D3E90089 		ldrd	r8, [r3]
 854              	.LVL141:
 180:C:/Users/geoma/Desktop/Scilab/toolboxes/STM32_toolbox_1-1/scicos_blocks/src/c\convert.c ****                     w = v - (double)((int)(v / k)) * k;
 855              		.loc 1 180 0 discriminator 3
 856 0580 4046     		mov	r0, r8
 857 0582 4946     		mov	r1, r9
 858 0584 0022     		movs	r2, #0
 859 0586 A84B     		ldr	r3, .L530+32
 860 0588 FFF7FEFF 		bl	__aeabi_dmul
 861              	.LVL142:
 862 058c FFF7FEFF 		bl	__aeabi_d2iz
 863              	.LVL143:
 864 0590 FFF7FEFF 		bl	__aeabi_i2d
 865              	.LVL144:
 866 0594 0022     		movs	r2, #0
 867 0596 A54B     		ldr	r3, .L530+36
 868 0598 FFF7FEFF 		bl	__aeabi_dmul
 869              	.LVL145:
 870 059c 0246     		mov	r2, r0
 871 059e 0B46     		mov	r3, r1
 872 05a0 4046     		mov	r0, r8
 873 05a2 4946     		mov	r1, r9
 874 05a4 FFF7FEFF 		bl	__aeabi_dsub
 875              	.LVL146:
 181:C:/Users/geoma/Desktop/Scilab/toolboxes/STM32_toolbox_1-1/scicos_blocks/src/c\convert.c ****                     y[i] = (SCSUINT8_COP)w;
 876              		.loc 1 181 0 discriminator 3
 877 05a8 FFF7FEFF 		bl	__aeabi_d2uiz
 878              	.LVL147:
 879 05ac 2855     		strb	r0, [r5, r4]
 177:C:/Users/geoma/Desktop/Scilab/toolboxes/STM32_toolbox_1-1/scicos_blocks/src/c\convert.c ****                 {
 880              		.loc 1 177 0 discriminator 3
 881 05ae 0134     		adds	r4, r4, #1
 882              	.LVL148:
 883              	.L122:
 177:C:/Users/geoma/Desktop/Scilab/toolboxes/STM32_toolbox_1-1/scicos_blocks/src/c\convert.c ****                 {
 884              		.loc 1 177 0 is_stmt 0 discriminator 1
 885 05b0 0AFB0BF3 		mul	r3, r10, fp
 886 05b4 A342     		cmp	r3, r4
 887 05b6 DFDC     		bgt	.L123
 888 05b8 01F04EBC 		b	.L1
 889              	.LVL149:
 890              	.L11:
 891              	.LBE8:
ARM GAS  C:\Users\geoma\AppData\Local\Temp\ccpZNVPJ.s 			page 20


 892              	.LBB9:
 182:C:/Users/geoma/Desktop/Scilab/toolboxes/STM32_toolbox_1-1/scicos_blocks/src/c\convert.c ****                 }
 183:C:/Users/geoma/Desktop/Scilab/toolboxes/STM32_toolbox_1-1/scicos_blocks/src/c\convert.c ****                 break;
 184:C:/Users/geoma/Desktop/Scilab/toolboxes/STM32_toolbox_1-1/scicos_blocks/src/c\convert.c ****             }
 185:C:/Users/geoma/Desktop/Scilab/toolboxes/STM32_toolbox_1-1/scicos_blocks/src/c\convert.c ****             case 8:
 186:C:/Users/geoma/Desktop/Scilab/toolboxes/STM32_toolbox_1-1/scicos_blocks/src/c\convert.c ****             {
 187:C:/Users/geoma/Desktop/Scilab/toolboxes/STM32_toolbox_1-1/scicos_blocks/src/c\convert.c ****                 SCSINT32_COP *u = NULL;
 188:C:/Users/geoma/Desktop/Scilab/toolboxes/STM32_toolbox_1-1/scicos_blocks/src/c\convert.c ****                 SCSREAL_COP *y = NULL;
 189:C:/Users/geoma/Desktop/Scilab/toolboxes/STM32_toolbox_1-1/scicos_blocks/src/c\convert.c ****                 u = Getint32InPortPtrs(block, 1);
 893              		.loc 1 189 0 is_stmt 1
 894 05bc 436C     		ldr	r3, [r0, #68]
 895 05be 1F68     		ldr	r7, [r3]
 896              	.LVL150:
 190:C:/Users/geoma/Desktop/Scilab/toolboxes/STM32_toolbox_1-1/scicos_blocks/src/c\convert.c ****                 y = GetRealOutPortPtrs(block, 1);
 897              		.loc 1 190 0
 898 05c0 036D     		ldr	r3, [r0, #80]
 899 05c2 1E68     		ldr	r6, [r3]
 900              	.LVL151:
 191:C:/Users/geoma/Desktop/Scilab/toolboxes/STM32_toolbox_1-1/scicos_blocks/src/c\convert.c ****                 for (i = 0; i < m * n; i++)
 901              		.loc 1 191 0
 902 05c4 0024     		movs	r4, #0
 903              	.LVL152:
 904 05c6 08E0     		b	.L124
 905              	.LVL153:
 906              	.L125:
 192:C:/Users/geoma/Desktop/Scilab/toolboxes/STM32_toolbox_1-1/scicos_blocks/src/c\convert.c ****                 {
 193:C:/Users/geoma/Desktop/Scilab/toolboxes/STM32_toolbox_1-1/scicos_blocks/src/c\convert.c ****                     y[i] = (SCSREAL_COP) u[i];
 907              		.loc 1 193 0 discriminator 3
 908 05c8 06EBC405 		add	r5, r6, r4, lsl #3
 909 05cc 57F82400 		ldr	r0, [r7, r4, lsl #2]
 910 05d0 FFF7FEFF 		bl	__aeabi_i2d
 911              	.LVL154:
 912 05d4 C5E90001 		strd	r0, [r5]
 191:C:/Users/geoma/Desktop/Scilab/toolboxes/STM32_toolbox_1-1/scicos_blocks/src/c\convert.c ****                 for (i = 0; i < m * n; i++)
 913              		.loc 1 191 0 discriminator 3
 914 05d8 0134     		adds	r4, r4, #1
 915              	.LVL155:
 916              	.L124:
 191:C:/Users/geoma/Desktop/Scilab/toolboxes/STM32_toolbox_1-1/scicos_blocks/src/c\convert.c ****                 for (i = 0; i < m * n; i++)
 917              		.loc 1 191 0 is_stmt 0 discriminator 1
 918 05da 0AFB0BF3 		mul	r3, r10, fp
 919 05de A342     		cmp	r3, r4
 920 05e0 F2DC     		bgt	.L125
 921 05e2 01F039BC 		b	.L1
 922              	.LVL156:
 923              	.L12:
 924              	.LBE9:
 925              	.LBB10:
 194:C:/Users/geoma/Desktop/Scilab/toolboxes/STM32_toolbox_1-1/scicos_blocks/src/c\convert.c ****                 }
 195:C:/Users/geoma/Desktop/Scilab/toolboxes/STM32_toolbox_1-1/scicos_blocks/src/c\convert.c ****                 break;
 196:C:/Users/geoma/Desktop/Scilab/toolboxes/STM32_toolbox_1-1/scicos_blocks/src/c\convert.c ****             }
 197:C:/Users/geoma/Desktop/Scilab/toolboxes/STM32_toolbox_1-1/scicos_blocks/src/c\convert.c ****             case 9:
 198:C:/Users/geoma/Desktop/Scilab/toolboxes/STM32_toolbox_1-1/scicos_blocks/src/c\convert.c ****             {
 199:C:/Users/geoma/Desktop/Scilab/toolboxes/STM32_toolbox_1-1/scicos_blocks/src/c\convert.c ****                 SCSINT32_COP *u = NULL;
 200:C:/Users/geoma/Desktop/Scilab/toolboxes/STM32_toolbox_1-1/scicos_blocks/src/c\convert.c ****                 SCSINT16_COP *y = NULL;
 201:C:/Users/geoma/Desktop/Scilab/toolboxes/STM32_toolbox_1-1/scicos_blocks/src/c\convert.c ****                 u = Getint32InPortPtrs(block, 1);
 926              		.loc 1 201 0 is_stmt 1
ARM GAS  C:\Users\geoma\AppData\Local\Temp\ccpZNVPJ.s 			page 21


 927 05e6 436C     		ldr	r3, [r0, #68]
 928 05e8 D3F80080 		ldr	r8, [r3]
 929              	.LVL157:
 202:C:/Users/geoma/Desktop/Scilab/toolboxes/STM32_toolbox_1-1/scicos_blocks/src/c\convert.c ****                 y = Getint16OutPortPtrs(block, 1);
 930              		.loc 1 202 0
 931 05ec 036D     		ldr	r3, [r0, #80]
 932 05ee D3F80090 		ldr	r9, [r3]
 933              	.LVL158:
 203:C:/Users/geoma/Desktop/Scilab/toolboxes/STM32_toolbox_1-1/scicos_blocks/src/c\convert.c ****                 k = pow(2, 16);
 204:C:/Users/geoma/Desktop/Scilab/toolboxes/STM32_toolbox_1-1/scicos_blocks/src/c\convert.c ****                 for (i = 0; i < m * n; i++)
 934              		.loc 1 204 0
 935 05f2 0026     		movs	r6, #0
 936 05f4 79E0     		b	.L126
 937              	.LVL159:
 938              	.L131:
 205:C:/Users/geoma/Desktop/Scilab/toolboxes/STM32_toolbox_1-1/scicos_blocks/src/c\convert.c ****                 {
 206:C:/Users/geoma/Desktop/Scilab/toolboxes/STM32_toolbox_1-1/scicos_blocks/src/c\convert.c ****                     v = (double)u[i];
 939              		.loc 1 206 0
 940 05f6 3746     		mov	r7, r6
 941 05f8 58F82600 		ldr	r0, [r8, r6, lsl #2]
 942 05fc FFF7FEFF 		bl	__aeabi_i2d
 943              	.LVL160:
 944 0600 0446     		mov	r4, r0
 945 0602 0D46     		mov	r5, r1
 946              	.LVL161:
 207:C:/Users/geoma/Desktop/Scilab/toolboxes/STM32_toolbox_1-1/scicos_blocks/src/c\convert.c ****                     w = v - (double)((int)(v / k)) * k;
 947              		.loc 1 207 0
 948 0604 0022     		movs	r2, #0
 949 0606 864B     		ldr	r3, .L530+24
 950 0608 FFF7FEFF 		bl	__aeabi_dmul
 951              	.LVL162:
 952 060c FFF7FEFF 		bl	__aeabi_d2iz
 953              	.LVL163:
 954 0610 FFF7FEFF 		bl	__aeabi_i2d
 955              	.LVL164:
 956 0614 0022     		movs	r2, #0
 957 0616 834B     		ldr	r3, .L530+28
 958 0618 FFF7FEFF 		bl	__aeabi_dmul
 959              	.LVL165:
 960 061c 0246     		mov	r2, r0
 961 061e 0B46     		mov	r3, r1
 962 0620 2046     		mov	r0, r4
 963 0622 2946     		mov	r1, r5
 964 0624 FFF7FEFF 		bl	__aeabi_dsub
 965              	.LVL166:
 966 0628 0446     		mov	r4, r0
 967              	.LVL167:
 968 062a 0D46     		mov	r5, r1
 969              	.LVL168:
 208:C:/Users/geoma/Desktop/Scilab/toolboxes/STM32_toolbox_1-1/scicos_blocks/src/c\convert.c ****                     if (fabs(w) > k / 2 - 1)
 970              		.loc 1 208 0
 971 062c 0690     		str	r0, [sp, #24]
 972 062e 21F00043 		bic	r3, r1, #-2147483648
 973 0632 0793     		str	r3, [sp, #28]
 974 0634 DDE90601 		ldrd	r0, [sp, #24]
 975 0638 73A3     		adr	r3, .L530
 976 063a D3E90023 		ldrd	r2, [r3]
ARM GAS  C:\Users\geoma\AppData\Local\Temp\ccpZNVPJ.s 			page 22


 977 063e FFF7FEFF 		bl	__aeabi_dcmpgt
 978              	.LVL169:
 979 0642 0028     		cmp	r0, #0
 980 0644 4AD0     		beq	.L127
 209:C:/Users/geoma/Desktop/Scilab/toolboxes/STM32_toolbox_1-1/scicos_blocks/src/c\convert.c ****                     {
 210:C:/Users/geoma/Desktop/Scilab/toolboxes/STM32_toolbox_1-1/scicos_blocks/src/c\convert.c ****                         if (w >= 0)
 981              		.loc 1 210 0
 982 0646 2046     		mov	r0, r4
 983 0648 2946     		mov	r1, r5
 984 064a 0022     		movs	r2, #0
 985 064c 0023     		movs	r3, #0
 986 064e FFF7FEFF 		bl	__aeabi_dcmpge
 987              	.LVL170:
 988 0652 08B3     		cbz	r0, .L503
 211:C:/Users/geoma/Desktop/Scilab/toolboxes/STM32_toolbox_1-1/scicos_blocks/src/c\convert.c ****                         {
 212:C:/Users/geoma/Desktop/Scilab/toolboxes/STM32_toolbox_1-1/scicos_blocks/src/c\convert.c ****                             w = (-k / 2 + fabs(w - (double)((int)(w / (k / 2))) * (k / 2)));
 989              		.loc 1 212 0
 990 0654 2046     		mov	r0, r4
 991 0656 2946     		mov	r1, r5
 992 0658 0022     		movs	r2, #0
 993 065a 4FF07C53 		mov	r3, #1056964608
 994 065e FFF7FEFF 		bl	__aeabi_dmul
 995              	.LVL171:
 996 0662 FFF7FEFF 		bl	__aeabi_d2iz
 997              	.LVL172:
 998 0666 FFF7FEFF 		bl	__aeabi_i2d
 999              	.LVL173:
 1000 066a 0022     		movs	r2, #0
 1001 066c 704B     		ldr	r3, .L530+40
 1002 066e FFF7FEFF 		bl	__aeabi_dmul
 1003              	.LVL174:
 1004 0672 0246     		mov	r2, r0
 1005 0674 0B46     		mov	r3, r1
 1006 0676 2046     		mov	r0, r4
 1007 0678 2946     		mov	r1, r5
 1008 067a FFF7FEFF 		bl	__aeabi_dsub
 1009              	.LVL175:
 1010 067e 1890     		str	r0, [sp, #96]
 1011 0680 21F00043 		bic	r3, r1, #-2147483648
 1012 0684 1993     		str	r3, [sp, #100]
 1013 0686 DDE91801 		ldrd	r0, [sp, #96]
 1014 068a 0022     		movs	r2, #0
 1015 068c 684B     		ldr	r3, .L530+40
 1016 068e FFF7FEFF 		bl	__aeabi_dsub
 1017              	.LVL176:
 1018 0692 0446     		mov	r4, r0
 1019              	.LVL177:
 1020 0694 0D46     		mov	r5, r1
 1021              	.LVL178:
 1022 0696 21E0     		b	.L127
 1023              	.L503:
 213:C:/Users/geoma/Desktop/Scilab/toolboxes/STM32_toolbox_1-1/scicos_blocks/src/c\convert.c ****                         }
 214:C:/Users/geoma/Desktop/Scilab/toolboxes/STM32_toolbox_1-1/scicos_blocks/src/c\convert.c ****                         else
 215:C:/Users/geoma/Desktop/Scilab/toolboxes/STM32_toolbox_1-1/scicos_blocks/src/c\convert.c ****                         {
 216:C:/Users/geoma/Desktop/Scilab/toolboxes/STM32_toolbox_1-1/scicos_blocks/src/c\convert.c ****                             w = -(-(k / 2) + fabs(w - (double)((int)(w / (k / 2))) * (k / 2)));
 1024              		.loc 1 216 0
 1025 0698 2046     		mov	r0, r4
ARM GAS  C:\Users\geoma\AppData\Local\Temp\ccpZNVPJ.s 			page 23


 1026 069a 2946     		mov	r1, r5
 1027 069c 0022     		movs	r2, #0
 1028 069e 4FF07C53 		mov	r3, #1056964608
 1029 06a2 FFF7FEFF 		bl	__aeabi_dmul
 1030              	.LVL179:
 1031 06a6 FFF7FEFF 		bl	__aeabi_d2iz
 1032              	.LVL180:
 1033 06aa FFF7FEFF 		bl	__aeabi_i2d
 1034              	.LVL181:
 1035 06ae 0022     		movs	r2, #0
 1036 06b0 5F4B     		ldr	r3, .L530+40
 1037 06b2 FFF7FEFF 		bl	__aeabi_dmul
 1038              	.LVL182:
 1039 06b6 0246     		mov	r2, r0
 1040 06b8 0B46     		mov	r3, r1
 1041 06ba 2046     		mov	r0, r4
 1042 06bc 2946     		mov	r1, r5
 1043 06be FFF7FEFF 		bl	__aeabi_dsub
 1044              	.LVL183:
 1045 06c2 2490     		str	r0, [sp, #144]
 1046 06c4 21F00043 		bic	r3, r1, #-2147483648
 1047 06c8 2593     		str	r3, [sp, #148]
 1048 06ca DDE92401 		ldrd	r0, [sp, #144]
 1049 06ce 0022     		movs	r2, #0
 1050 06d0 574B     		ldr	r3, .L530+40
 1051 06d2 FFF7FEFF 		bl	__aeabi_dsub
 1052              	.LVL184:
 1053 06d6 0446     		mov	r4, r0
 1054              	.LVL185:
 1055 06d8 01F10045 		add	r5, r1, #-2147483648
 1056              	.LVL186:
 1057              	.L127:
 217:C:/Users/geoma/Desktop/Scilab/toolboxes/STM32_toolbox_1-1/scicos_blocks/src/c\convert.c ****                         }
 218:C:/Users/geoma/Desktop/Scilab/toolboxes/STM32_toolbox_1-1/scicos_blocks/src/c\convert.c ****                     }
 219:C:/Users/geoma/Desktop/Scilab/toolboxes/STM32_toolbox_1-1/scicos_blocks/src/c\convert.c ****                     y[i] = (SCSINT16_COP)w;
 1058              		.loc 1 219 0 discriminator 2
 1059 06dc 2046     		mov	r0, r4
 1060 06de 2946     		mov	r1, r5
 1061 06e0 FFF7FEFF 		bl	__aeabi_d2iz
 1062              	.LVL187:
 1063 06e4 29F81700 		strh	r0, [r9, r7, lsl #1]	@ movhi
 204:C:/Users/geoma/Desktop/Scilab/toolboxes/STM32_toolbox_1-1/scicos_blocks/src/c\convert.c ****                 {
 1064              		.loc 1 204 0 discriminator 2
 1065 06e8 0136     		adds	r6, r6, #1
 1066              	.LVL188:
 1067              	.L126:
 204:C:/Users/geoma/Desktop/Scilab/toolboxes/STM32_toolbox_1-1/scicos_blocks/src/c\convert.c ****                 {
 1068              		.loc 1 204 0 is_stmt 0 discriminator 1
 1069 06ea 0AFB0BF3 		mul	r3, r10, fp
 1070 06ee B342     		cmp	r3, r6
 1071 06f0 81DC     		bgt	.L131
 1072 06f2 01F0B1BB 		b	.L1
 1073              	.LVL189:
 1074              	.L13:
 1075              	.LBE10:
 1076              	.LBB11:
 220:C:/Users/geoma/Desktop/Scilab/toolboxes/STM32_toolbox_1-1/scicos_blocks/src/c\convert.c ****                 }
ARM GAS  C:\Users\geoma\AppData\Local\Temp\ccpZNVPJ.s 			page 24


 221:C:/Users/geoma/Desktop/Scilab/toolboxes/STM32_toolbox_1-1/scicos_blocks/src/c\convert.c ****                 break;
 222:C:/Users/geoma/Desktop/Scilab/toolboxes/STM32_toolbox_1-1/scicos_blocks/src/c\convert.c ****             }
 223:C:/Users/geoma/Desktop/Scilab/toolboxes/STM32_toolbox_1-1/scicos_blocks/src/c\convert.c ****             case 10:
 224:C:/Users/geoma/Desktop/Scilab/toolboxes/STM32_toolbox_1-1/scicos_blocks/src/c\convert.c ****             {
 225:C:/Users/geoma/Desktop/Scilab/toolboxes/STM32_toolbox_1-1/scicos_blocks/src/c\convert.c ****                 SCSINT32_COP *u = NULL;
 226:C:/Users/geoma/Desktop/Scilab/toolboxes/STM32_toolbox_1-1/scicos_blocks/src/c\convert.c ****                 SCSINT8_COP *y = NULL;
 227:C:/Users/geoma/Desktop/Scilab/toolboxes/STM32_toolbox_1-1/scicos_blocks/src/c\convert.c ****                 u = Getint32InPortPtrs(block, 1);
 1077              		.loc 1 227 0 is_stmt 1
 1078 06f6 436C     		ldr	r3, [r0, #68]
 1079 06f8 D3F80080 		ldr	r8, [r3]
 1080              	.LVL190:
 228:C:/Users/geoma/Desktop/Scilab/toolboxes/STM32_toolbox_1-1/scicos_blocks/src/c\convert.c ****                 y = Getint8OutPortPtrs(block, 1);
 1081              		.loc 1 228 0
 1082 06fc 036D     		ldr	r3, [r0, #80]
 1083 06fe D3F80090 		ldr	r9, [r3]
 1084              	.LVL191:
 229:C:/Users/geoma/Desktop/Scilab/toolboxes/STM32_toolbox_1-1/scicos_blocks/src/c\convert.c ****                 k = pow(2, 8);
 230:C:/Users/geoma/Desktop/Scilab/toolboxes/STM32_toolbox_1-1/scicos_blocks/src/c\convert.c ****                 for (i = 0; i < m * n; i++)
 1085              		.loc 1 230 0
 1086 0702 0026     		movs	r6, #0
 1087 0704 79E0     		b	.L132
 1088              	.LVL192:
 1089              	.L137:
 231:C:/Users/geoma/Desktop/Scilab/toolboxes/STM32_toolbox_1-1/scicos_blocks/src/c\convert.c ****                 {
 232:C:/Users/geoma/Desktop/Scilab/toolboxes/STM32_toolbox_1-1/scicos_blocks/src/c\convert.c ****                     v = (double)u[i];
 1090              		.loc 1 232 0
 1091 0706 3746     		mov	r7, r6
 1092 0708 58F82600 		ldr	r0, [r8, r6, lsl #2]
 1093 070c FFF7FEFF 		bl	__aeabi_i2d
 1094              	.LVL193:
 1095 0710 0446     		mov	r4, r0
 1096 0712 0D46     		mov	r5, r1
 1097              	.LVL194:
 233:C:/Users/geoma/Desktop/Scilab/toolboxes/STM32_toolbox_1-1/scicos_blocks/src/c\convert.c ****                     w = v - (double)((int)(v / k)) * k;
 1098              		.loc 1 233 0
 1099 0714 0022     		movs	r2, #0
 1100 0716 444B     		ldr	r3, .L530+32
 1101 0718 FFF7FEFF 		bl	__aeabi_dmul
 1102              	.LVL195:
 1103 071c FFF7FEFF 		bl	__aeabi_d2iz
 1104              	.LVL196:
 1105 0720 FFF7FEFF 		bl	__aeabi_i2d
 1106              	.LVL197:
 1107 0724 0022     		movs	r2, #0
 1108 0726 414B     		ldr	r3, .L530+36
 1109 0728 FFF7FEFF 		bl	__aeabi_dmul
 1110              	.LVL198:
 1111 072c 0246     		mov	r2, r0
 1112 072e 0B46     		mov	r3, r1
 1113 0730 2046     		mov	r0, r4
 1114 0732 2946     		mov	r1, r5
 1115 0734 FFF7FEFF 		bl	__aeabi_dsub
 1116              	.LVL199:
 1117 0738 0446     		mov	r4, r0
 1118              	.LVL200:
 1119 073a 0D46     		mov	r5, r1
 1120              	.LVL201:
ARM GAS  C:\Users\geoma\AppData\Local\Temp\ccpZNVPJ.s 			page 25


 234:C:/Users/geoma/Desktop/Scilab/toolboxes/STM32_toolbox_1-1/scicos_blocks/src/c\convert.c ****                     if (fabs(w) > k / 2 - 1)
 1121              		.loc 1 234 0
 1122 073c 0890     		str	r0, [sp, #32]
 1123 073e 21F00043 		bic	r3, r1, #-2147483648
 1124 0742 0993     		str	r3, [sp, #36]
 1125 0744 DDE90801 		ldrd	r0, [sp, #32]
 1126 0748 31A3     		adr	r3, .L530+8
 1127 074a D3E90023 		ldrd	r2, [r3]
 1128 074e FFF7FEFF 		bl	__aeabi_dcmpgt
 1129              	.LVL202:
 1130 0752 0028     		cmp	r0, #0
 1131 0754 4AD0     		beq	.L133
 235:C:/Users/geoma/Desktop/Scilab/toolboxes/STM32_toolbox_1-1/scicos_blocks/src/c\convert.c ****                     {
 236:C:/Users/geoma/Desktop/Scilab/toolboxes/STM32_toolbox_1-1/scicos_blocks/src/c\convert.c ****                         if (w >= 0)
 1132              		.loc 1 236 0
 1133 0756 2046     		mov	r0, r4
 1134 0758 2946     		mov	r1, r5
 1135 075a 0022     		movs	r2, #0
 1136 075c 0023     		movs	r3, #0
 1137 075e FFF7FEFF 		bl	__aeabi_dcmpge
 1138              	.LVL203:
 1139 0762 08B3     		cbz	r0, .L504
 237:C:/Users/geoma/Desktop/Scilab/toolboxes/STM32_toolbox_1-1/scicos_blocks/src/c\convert.c ****                         {
 238:C:/Users/geoma/Desktop/Scilab/toolboxes/STM32_toolbox_1-1/scicos_blocks/src/c\convert.c ****                             w = (-k / 2 + fabs(w - (double)((int)(w / (k / 2))) * (k / 2)));
 1140              		.loc 1 238 0
 1141 0764 2046     		mov	r0, r4
 1142 0766 2946     		mov	r1, r5
 1143 0768 0022     		movs	r2, #0
 1144 076a 4FF07E53 		mov	r3, #1065353216
 1145 076e FFF7FEFF 		bl	__aeabi_dmul
 1146              	.LVL204:
 1147 0772 FFF7FEFF 		bl	__aeabi_d2iz
 1148              	.LVL205:
 1149 0776 FFF7FEFF 		bl	__aeabi_i2d
 1150              	.LVL206:
 1151 077a 0022     		movs	r2, #0
 1152 077c 2D4B     		ldr	r3, .L530+44
 1153 077e FFF7FEFF 		bl	__aeabi_dmul
 1154              	.LVL207:
 1155 0782 0246     		mov	r2, r0
 1156 0784 0B46     		mov	r3, r1
 1157 0786 2046     		mov	r0, r4
 1158 0788 2946     		mov	r1, r5
 1159 078a FFF7FEFF 		bl	__aeabi_dsub
 1160              	.LVL208:
 1161 078e 1A90     		str	r0, [sp, #104]
 1162 0790 21F00043 		bic	r3, r1, #-2147483648
 1163 0794 1B93     		str	r3, [sp, #108]
 1164 0796 DDE91A01 		ldrd	r0, [sp, #104]
 1165 079a 0022     		movs	r2, #0
 1166 079c 254B     		ldr	r3, .L530+44
 1167 079e FFF7FEFF 		bl	__aeabi_dsub
 1168              	.LVL209:
 1169 07a2 0446     		mov	r4, r0
 1170              	.LVL210:
 1171 07a4 0D46     		mov	r5, r1
 1172              	.LVL211:
ARM GAS  C:\Users\geoma\AppData\Local\Temp\ccpZNVPJ.s 			page 26


 1173 07a6 21E0     		b	.L133
 1174              	.L504:
 239:C:/Users/geoma/Desktop/Scilab/toolboxes/STM32_toolbox_1-1/scicos_blocks/src/c\convert.c ****                         }
 240:C:/Users/geoma/Desktop/Scilab/toolboxes/STM32_toolbox_1-1/scicos_blocks/src/c\convert.c ****                         else
 241:C:/Users/geoma/Desktop/Scilab/toolboxes/STM32_toolbox_1-1/scicos_blocks/src/c\convert.c ****                         {
 242:C:/Users/geoma/Desktop/Scilab/toolboxes/STM32_toolbox_1-1/scicos_blocks/src/c\convert.c ****                             w = -(-(k / 2) + fabs(w - (double)((int)(w / (k / 2))) * (k / 2)));
 1175              		.loc 1 242 0
 1176 07a8 2046     		mov	r0, r4
 1177 07aa 2946     		mov	r1, r5
 1178 07ac 0022     		movs	r2, #0
 1179 07ae 4FF07E53 		mov	r3, #1065353216
 1180 07b2 FFF7FEFF 		bl	__aeabi_dmul
 1181              	.LVL212:
 1182 07b6 FFF7FEFF 		bl	__aeabi_d2iz
 1183              	.LVL213:
 1184 07ba FFF7FEFF 		bl	__aeabi_i2d
 1185              	.LVL214:
 1186 07be 0022     		movs	r2, #0
 1187 07c0 1C4B     		ldr	r3, .L530+44
 1188 07c2 FFF7FEFF 		bl	__aeabi_dmul
 1189              	.LVL215:
 1190 07c6 0246     		mov	r2, r0
 1191 07c8 0B46     		mov	r3, r1
 1192 07ca 2046     		mov	r0, r4
 1193 07cc 2946     		mov	r1, r5
 1194 07ce FFF7FEFF 		bl	__aeabi_dsub
 1195              	.LVL216:
 1196 07d2 2690     		str	r0, [sp, #152]
 1197 07d4 21F00043 		bic	r3, r1, #-2147483648
 1198 07d8 2793     		str	r3, [sp, #156]
 1199 07da DDE92601 		ldrd	r0, [sp, #152]
 1200 07de 0022     		movs	r2, #0
 1201 07e0 144B     		ldr	r3, .L530+44
 1202 07e2 FFF7FEFF 		bl	__aeabi_dsub
 1203              	.LVL217:
 1204 07e6 0446     		mov	r4, r0
 1205              	.LVL218:
 1206 07e8 01F10045 		add	r5, r1, #-2147483648
 1207              	.LVL219:
 1208              	.L133:
 243:C:/Users/geoma/Desktop/Scilab/toolboxes/STM32_toolbox_1-1/scicos_blocks/src/c\convert.c ****                         }
 244:C:/Users/geoma/Desktop/Scilab/toolboxes/STM32_toolbox_1-1/scicos_blocks/src/c\convert.c ****                     }
 245:C:/Users/geoma/Desktop/Scilab/toolboxes/STM32_toolbox_1-1/scicos_blocks/src/c\convert.c ****                     y[i] = (SCSINT8_COP)w;
 1209              		.loc 1 245 0 discriminator 2
 1210 07ec 2046     		mov	r0, r4
 1211 07ee 2946     		mov	r1, r5
 1212 07f0 FFF7FEFF 		bl	__aeabi_d2uiz
 1213              	.LVL220:
 1214 07f4 09F80700 		strb	r0, [r9, r7]
 230:C:/Users/geoma/Desktop/Scilab/toolboxes/STM32_toolbox_1-1/scicos_blocks/src/c\convert.c ****                 {
 1215              		.loc 1 230 0 discriminator 2
 1216 07f8 0136     		adds	r6, r6, #1
 1217              	.LVL221:
 1218              	.L132:
 230:C:/Users/geoma/Desktop/Scilab/toolboxes/STM32_toolbox_1-1/scicos_blocks/src/c\convert.c ****                 {
 1219              		.loc 1 230 0 is_stmt 0 discriminator 1
 1220 07fa 0AFB0BF3 		mul	r3, r10, fp
ARM GAS  C:\Users\geoma\AppData\Local\Temp\ccpZNVPJ.s 			page 27


 1221 07fe B342     		cmp	r3, r6
 1222 0800 81DC     		bgt	.L137
 1223 0802 01F029BB 		b	.L1
 1224              	.L531:
 1225 0806 00BF     		.align	3
 1226              	.L530:
 1227 0808 00000000 		.word	0
 1228 080c C0FFDF40 		.word	1088421824
 1229 0810 00000000 		.word	0
 1230 0814 00C05F40 		.word	1080016896
 1231 0818 0000F03D 		.word	1039138816
 1232 081c 0000F041 		.word	1106247680
 1233 0820 0000F03E 		.word	1055916032
 1234 0824 0000F040 		.word	1089470464
 1235 0828 0000703F 		.word	1064304640
 1236 082c 00007040 		.word	1081081856
 1237 0830 0000E040 		.word	1088421888
 1238 0834 00006040 		.word	1080033280
 1239              	.LVL222:
 1240              	.L14:
 1241              	.LBE11:
 1242              	.LBB12:
 246:C:/Users/geoma/Desktop/Scilab/toolboxes/STM32_toolbox_1-1/scicos_blocks/src/c\convert.c ****                 }
 247:C:/Users/geoma/Desktop/Scilab/toolboxes/STM32_toolbox_1-1/scicos_blocks/src/c\convert.c ****                 break;
 248:C:/Users/geoma/Desktop/Scilab/toolboxes/STM32_toolbox_1-1/scicos_blocks/src/c\convert.c ****             }
 249:C:/Users/geoma/Desktop/Scilab/toolboxes/STM32_toolbox_1-1/scicos_blocks/src/c\convert.c ****             case 11:
 250:C:/Users/geoma/Desktop/Scilab/toolboxes/STM32_toolbox_1-1/scicos_blocks/src/c\convert.c ****             {
 251:C:/Users/geoma/Desktop/Scilab/toolboxes/STM32_toolbox_1-1/scicos_blocks/src/c\convert.c ****                 SCSINT32_COP *u = NULL;
 252:C:/Users/geoma/Desktop/Scilab/toolboxes/STM32_toolbox_1-1/scicos_blocks/src/c\convert.c ****                 SCSUINT16_COP *y = NULL;
 253:C:/Users/geoma/Desktop/Scilab/toolboxes/STM32_toolbox_1-1/scicos_blocks/src/c\convert.c ****                 u = Getint32InPortPtrs(block, 1);
 1243              		.loc 1 253 0 is_stmt 1
 1244 0838 436C     		ldr	r3, [r0, #68]
 1245 083a 1F68     		ldr	r7, [r3]
 1246              	.LVL223:
 254:C:/Users/geoma/Desktop/Scilab/toolboxes/STM32_toolbox_1-1/scicos_blocks/src/c\convert.c ****                 y = Getuint16OutPortPtrs(block, 1);
 1247              		.loc 1 254 0
 1248 083c 036D     		ldr	r3, [r0, #80]
 1249 083e D3F80080 		ldr	r8, [r3]
 1250              	.LVL224:
 255:C:/Users/geoma/Desktop/Scilab/toolboxes/STM32_toolbox_1-1/scicos_blocks/src/c\convert.c ****                 k = pow(2, 16);
 256:C:/Users/geoma/Desktop/Scilab/toolboxes/STM32_toolbox_1-1/scicos_blocks/src/c\convert.c ****                 for (i = 0; i < m * n; i++)
 1251              		.loc 1 256 0
 1252 0842 0026     		movs	r6, #0
 1253 0844 1CE0     		b	.L138
 1254              	.LVL225:
 1255              	.L139:
 257:C:/Users/geoma/Desktop/Scilab/toolboxes/STM32_toolbox_1-1/scicos_blocks/src/c\convert.c ****                 {
 258:C:/Users/geoma/Desktop/Scilab/toolboxes/STM32_toolbox_1-1/scicos_blocks/src/c\convert.c ****                     v = (double)u[i];
 1256              		.loc 1 258 0 discriminator 3
 1257 0846 57F82600 		ldr	r0, [r7, r6, lsl #2]
 1258 084a FFF7FEFF 		bl	__aeabi_i2d
 1259              	.LVL226:
 1260 084e 0446     		mov	r4, r0
 1261 0850 0D46     		mov	r5, r1
 1262              	.LVL227:
 259:C:/Users/geoma/Desktop/Scilab/toolboxes/STM32_toolbox_1-1/scicos_blocks/src/c\convert.c ****                     w = v - (double)((int)(v / k)) * k;
 1263              		.loc 1 259 0 discriminator 3
ARM GAS  C:\Users\geoma\AppData\Local\Temp\ccpZNVPJ.s 			page 28


 1264 0852 0022     		movs	r2, #0
 1265 0854 C64B     		ldr	r3, .L532+8
 1266 0856 FFF7FEFF 		bl	__aeabi_dmul
 1267              	.LVL228:
 1268 085a FFF7FEFF 		bl	__aeabi_d2iz
 1269              	.LVL229:
 1270 085e FFF7FEFF 		bl	__aeabi_i2d
 1271              	.LVL230:
 1272 0862 0022     		movs	r2, #0
 1273 0864 C34B     		ldr	r3, .L532+12
 1274 0866 FFF7FEFF 		bl	__aeabi_dmul
 1275              	.LVL231:
 1276 086a 0246     		mov	r2, r0
 1277 086c 0B46     		mov	r3, r1
 1278 086e 2046     		mov	r0, r4
 1279 0870 2946     		mov	r1, r5
 1280 0872 FFF7FEFF 		bl	__aeabi_dsub
 1281              	.LVL232:
 260:C:/Users/geoma/Desktop/Scilab/toolboxes/STM32_toolbox_1-1/scicos_blocks/src/c\convert.c ****                     y[i] = (SCSUINT16_COP)w;
 1282              		.loc 1 260 0 discriminator 3
 1283 0876 FFF7FEFF 		bl	__aeabi_d2uiz
 1284              	.LVL233:
 1285 087a 28F81600 		strh	r0, [r8, r6, lsl #1]	@ movhi
 256:C:/Users/geoma/Desktop/Scilab/toolboxes/STM32_toolbox_1-1/scicos_blocks/src/c\convert.c ****                 {
 1286              		.loc 1 256 0 discriminator 3
 1287 087e 0136     		adds	r6, r6, #1
 1288              	.LVL234:
 1289              	.L138:
 256:C:/Users/geoma/Desktop/Scilab/toolboxes/STM32_toolbox_1-1/scicos_blocks/src/c\convert.c ****                 {
 1290              		.loc 1 256 0 is_stmt 0 discriminator 1
 1291 0880 0AFB0BF3 		mul	r3, r10, fp
 1292 0884 B342     		cmp	r3, r6
 1293 0886 DEDC     		bgt	.L139
 1294 0888 01F0E6BA 		b	.L1
 1295              	.LVL235:
 1296              	.L15:
 1297              	.LBE12:
 1298              	.LBB13:
 261:C:/Users/geoma/Desktop/Scilab/toolboxes/STM32_toolbox_1-1/scicos_blocks/src/c\convert.c ****                 }
 262:C:/Users/geoma/Desktop/Scilab/toolboxes/STM32_toolbox_1-1/scicos_blocks/src/c\convert.c ****                 break;
 263:C:/Users/geoma/Desktop/Scilab/toolboxes/STM32_toolbox_1-1/scicos_blocks/src/c\convert.c ****             }
 264:C:/Users/geoma/Desktop/Scilab/toolboxes/STM32_toolbox_1-1/scicos_blocks/src/c\convert.c ****             case 12:
 265:C:/Users/geoma/Desktop/Scilab/toolboxes/STM32_toolbox_1-1/scicos_blocks/src/c\convert.c ****             {
 266:C:/Users/geoma/Desktop/Scilab/toolboxes/STM32_toolbox_1-1/scicos_blocks/src/c\convert.c ****                 SCSINT32_COP *u = NULL;
 267:C:/Users/geoma/Desktop/Scilab/toolboxes/STM32_toolbox_1-1/scicos_blocks/src/c\convert.c ****                 SCSUINT8_COP *y = NULL;
 268:C:/Users/geoma/Desktop/Scilab/toolboxes/STM32_toolbox_1-1/scicos_blocks/src/c\convert.c ****                 u = Getint32InPortPtrs(block, 1);
 1299              		.loc 1 268 0 is_stmt 1
 1300 088c 436C     		ldr	r3, [r0, #68]
 1301 088e 1F68     		ldr	r7, [r3]
 1302              	.LVL236:
 269:C:/Users/geoma/Desktop/Scilab/toolboxes/STM32_toolbox_1-1/scicos_blocks/src/c\convert.c ****                 y = Getuint8OutPortPtrs(block, 1);
 1303              		.loc 1 269 0
 1304 0890 036D     		ldr	r3, [r0, #80]
 1305 0892 D3F80080 		ldr	r8, [r3]
 1306              	.LVL237:
 270:C:/Users/geoma/Desktop/Scilab/toolboxes/STM32_toolbox_1-1/scicos_blocks/src/c\convert.c ****                 k = pow(2, 8);
 271:C:/Users/geoma/Desktop/Scilab/toolboxes/STM32_toolbox_1-1/scicos_blocks/src/c\convert.c ****                 for (i = 0; i < m * n; i++)
ARM GAS  C:\Users\geoma\AppData\Local\Temp\ccpZNVPJ.s 			page 29


 1307              		.loc 1 271 0
 1308 0896 0026     		movs	r6, #0
 1309 0898 1CE0     		b	.L140
 1310              	.LVL238:
 1311              	.L141:
 272:C:/Users/geoma/Desktop/Scilab/toolboxes/STM32_toolbox_1-1/scicos_blocks/src/c\convert.c ****                 {
 273:C:/Users/geoma/Desktop/Scilab/toolboxes/STM32_toolbox_1-1/scicos_blocks/src/c\convert.c ****                     v = (double)u[i];
 1312              		.loc 1 273 0 discriminator 3
 1313 089a 57F82600 		ldr	r0, [r7, r6, lsl #2]
 1314 089e FFF7FEFF 		bl	__aeabi_i2d
 1315              	.LVL239:
 1316 08a2 0446     		mov	r4, r0
 1317 08a4 0D46     		mov	r5, r1
 1318              	.LVL240:
 274:C:/Users/geoma/Desktop/Scilab/toolboxes/STM32_toolbox_1-1/scicos_blocks/src/c\convert.c ****                     w = v - (double)((int)(v / k)) * k;
 1319              		.loc 1 274 0 discriminator 3
 1320 08a6 0022     		movs	r2, #0
 1321 08a8 B34B     		ldr	r3, .L532+16
 1322 08aa FFF7FEFF 		bl	__aeabi_dmul
 1323              	.LVL241:
 1324 08ae FFF7FEFF 		bl	__aeabi_d2iz
 1325              	.LVL242:
 1326 08b2 FFF7FEFF 		bl	__aeabi_i2d
 1327              	.LVL243:
 1328 08b6 0022     		movs	r2, #0
 1329 08b8 B04B     		ldr	r3, .L532+20
 1330 08ba FFF7FEFF 		bl	__aeabi_dmul
 1331              	.LVL244:
 1332 08be 0246     		mov	r2, r0
 1333 08c0 0B46     		mov	r3, r1
 1334 08c2 2046     		mov	r0, r4
 1335 08c4 2946     		mov	r1, r5
 1336 08c6 FFF7FEFF 		bl	__aeabi_dsub
 1337              	.LVL245:
 275:C:/Users/geoma/Desktop/Scilab/toolboxes/STM32_toolbox_1-1/scicos_blocks/src/c\convert.c ****                     y[i] = (SCSUINT8_COP)w;
 1338              		.loc 1 275 0 discriminator 3
 1339 08ca FFF7FEFF 		bl	__aeabi_d2uiz
 1340              	.LVL246:
 1341 08ce 08F80600 		strb	r0, [r8, r6]
 271:C:/Users/geoma/Desktop/Scilab/toolboxes/STM32_toolbox_1-1/scicos_blocks/src/c\convert.c ****                 {
 1342              		.loc 1 271 0 discriminator 3
 1343 08d2 0136     		adds	r6, r6, #1
 1344              	.LVL247:
 1345              	.L140:
 271:C:/Users/geoma/Desktop/Scilab/toolboxes/STM32_toolbox_1-1/scicos_blocks/src/c\convert.c ****                 {
 1346              		.loc 1 271 0 is_stmt 0 discriminator 1
 1347 08d4 0AFB0BF3 		mul	r3, r10, fp
 1348 08d8 B342     		cmp	r3, r6
 1349 08da DEDC     		bgt	.L141
 1350 08dc 01F0BCBA 		b	.L1
 1351              	.LVL248:
 1352              	.L16:
 1353              	.LBE13:
 1354              	.LBB14:
 276:C:/Users/geoma/Desktop/Scilab/toolboxes/STM32_toolbox_1-1/scicos_blocks/src/c\convert.c ****                 }
 277:C:/Users/geoma/Desktop/Scilab/toolboxes/STM32_toolbox_1-1/scicos_blocks/src/c\convert.c ****                 break;
 278:C:/Users/geoma/Desktop/Scilab/toolboxes/STM32_toolbox_1-1/scicos_blocks/src/c\convert.c ****             }
ARM GAS  C:\Users\geoma\AppData\Local\Temp\ccpZNVPJ.s 			page 30


 279:C:/Users/geoma/Desktop/Scilab/toolboxes/STM32_toolbox_1-1/scicos_blocks/src/c\convert.c ****             case 13:
 280:C:/Users/geoma/Desktop/Scilab/toolboxes/STM32_toolbox_1-1/scicos_blocks/src/c\convert.c ****             {
 281:C:/Users/geoma/Desktop/Scilab/toolboxes/STM32_toolbox_1-1/scicos_blocks/src/c\convert.c ****                 SCSINT16_COP *u = NULL;
 282:C:/Users/geoma/Desktop/Scilab/toolboxes/STM32_toolbox_1-1/scicos_blocks/src/c\convert.c ****                 double *y = NULL;
 283:C:/Users/geoma/Desktop/Scilab/toolboxes/STM32_toolbox_1-1/scicos_blocks/src/c\convert.c ****                 u = Getint16InPortPtrs(block, 1);
 1355              		.loc 1 283 0 is_stmt 1
 1356 08e0 436C     		ldr	r3, [r0, #68]
 1357 08e2 1F68     		ldr	r7, [r3]
 1358              	.LVL249:
 284:C:/Users/geoma/Desktop/Scilab/toolboxes/STM32_toolbox_1-1/scicos_blocks/src/c\convert.c ****                 y = GetRealOutPortPtrs(block, 1);
 1359              		.loc 1 284 0
 1360 08e4 036D     		ldr	r3, [r0, #80]
 1361 08e6 1E68     		ldr	r6, [r3]
 1362              	.LVL250:
 285:C:/Users/geoma/Desktop/Scilab/toolboxes/STM32_toolbox_1-1/scicos_blocks/src/c\convert.c ****                 for (i = 0; i < m * n; i++)
 1363              		.loc 1 285 0
 1364 08e8 0024     		movs	r4, #0
 1365              	.LVL251:
 1366 08ea 08E0     		b	.L142
 1367              	.LVL252:
 1368              	.L143:
 286:C:/Users/geoma/Desktop/Scilab/toolboxes/STM32_toolbox_1-1/scicos_blocks/src/c\convert.c ****                 {
 287:C:/Users/geoma/Desktop/Scilab/toolboxes/STM32_toolbox_1-1/scicos_blocks/src/c\convert.c ****                     y[i] = (double) u[i];
 1369              		.loc 1 287 0 discriminator 3
 1370 08ec 06EBC405 		add	r5, r6, r4, lsl #3
 1371 08f0 37F91400 		ldrsh	r0, [r7, r4, lsl #1]
 1372 08f4 FFF7FEFF 		bl	__aeabi_i2d
 1373              	.LVL253:
 1374 08f8 C5E90001 		strd	r0, [r5]
 285:C:/Users/geoma/Desktop/Scilab/toolboxes/STM32_toolbox_1-1/scicos_blocks/src/c\convert.c ****                 for (i = 0; i < m * n; i++)
 1375              		.loc 1 285 0 discriminator 3
 1376 08fc 0134     		adds	r4, r4, #1
 1377              	.LVL254:
 1378              	.L142:
 285:C:/Users/geoma/Desktop/Scilab/toolboxes/STM32_toolbox_1-1/scicos_blocks/src/c\convert.c ****                 for (i = 0; i < m * n; i++)
 1379              		.loc 1 285 0 is_stmt 0 discriminator 1
 1380 08fe 0AFB0BF3 		mul	r3, r10, fp
 1381 0902 A342     		cmp	r3, r4
 1382 0904 F2DC     		bgt	.L143
 1383 0906 01F0A7BA 		b	.L1
 1384              	.LVL255:
 1385              	.L17:
 1386              	.LBE14:
 1387              	.LBB15:
 288:C:/Users/geoma/Desktop/Scilab/toolboxes/STM32_toolbox_1-1/scicos_blocks/src/c\convert.c ****                 }
 289:C:/Users/geoma/Desktop/Scilab/toolboxes/STM32_toolbox_1-1/scicos_blocks/src/c\convert.c ****                 break;
 290:C:/Users/geoma/Desktop/Scilab/toolboxes/STM32_toolbox_1-1/scicos_blocks/src/c\convert.c ****             }
 291:C:/Users/geoma/Desktop/Scilab/toolboxes/STM32_toolbox_1-1/scicos_blocks/src/c\convert.c ****             case 14:
 292:C:/Users/geoma/Desktop/Scilab/toolboxes/STM32_toolbox_1-1/scicos_blocks/src/c\convert.c ****             {
 293:C:/Users/geoma/Desktop/Scilab/toolboxes/STM32_toolbox_1-1/scicos_blocks/src/c\convert.c ****                 SCSINT16_COP *u = NULL;
 294:C:/Users/geoma/Desktop/Scilab/toolboxes/STM32_toolbox_1-1/scicos_blocks/src/c\convert.c ****                 SCSINT32_COP *y = NULL;
 295:C:/Users/geoma/Desktop/Scilab/toolboxes/STM32_toolbox_1-1/scicos_blocks/src/c\convert.c ****                 u = Getint16InPortPtrs(block, 1);
 1388              		.loc 1 295 0 is_stmt 1
 1389 090a 436C     		ldr	r3, [r0, #68]
 1390 090c 1C68     		ldr	r4, [r3]
 1391              	.LVL256:
 296:C:/Users/geoma/Desktop/Scilab/toolboxes/STM32_toolbox_1-1/scicos_blocks/src/c\convert.c ****                 y = Getint32OutPortPtrs(block, 1);
ARM GAS  C:\Users\geoma\AppData\Local\Temp\ccpZNVPJ.s 			page 31


 1392              		.loc 1 296 0
 1393 090e 036D     		ldr	r3, [r0, #80]
 1394 0910 1968     		ldr	r1, [r3]
 1395              	.LVL257:
 297:C:/Users/geoma/Desktop/Scilab/toolboxes/STM32_toolbox_1-1/scicos_blocks/src/c\convert.c ****                 for (i = 0; i < m * n; i++)
 1396              		.loc 1 297 0
 1397 0912 0023     		movs	r3, #0
 1398 0914 04E0     		b	.L144
 1399              	.LVL258:
 1400              	.L145:
 298:C:/Users/geoma/Desktop/Scilab/toolboxes/STM32_toolbox_1-1/scicos_blocks/src/c\convert.c ****                 {
 299:C:/Users/geoma/Desktop/Scilab/toolboxes/STM32_toolbox_1-1/scicos_blocks/src/c\convert.c ****                     y[i] = (SCSINT32_COP)u[i];
 1401              		.loc 1 299 0 discriminator 3
 1402 0916 34F91320 		ldrsh	r2, [r4, r3, lsl #1]
 1403 091a 41F82320 		str	r2, [r1, r3, lsl #2]
 297:C:/Users/geoma/Desktop/Scilab/toolboxes/STM32_toolbox_1-1/scicos_blocks/src/c\convert.c ****                 for (i = 0; i < m * n; i++)
 1404              		.loc 1 297 0 discriminator 3
 1405 091e 0133     		adds	r3, r3, #1
 1406              	.LVL259:
 1407              	.L144:
 297:C:/Users/geoma/Desktop/Scilab/toolboxes/STM32_toolbox_1-1/scicos_blocks/src/c\convert.c ****                 for (i = 0; i < m * n; i++)
 1408              		.loc 1 297 0 is_stmt 0 discriminator 1
 1409 0920 0AFB0BF2 		mul	r2, r10, fp
 1410 0924 9A42     		cmp	r2, r3
 1411 0926 F6DC     		bgt	.L145
 1412 0928 01F096BA 		b	.L1
 1413              	.LVL260:
 1414              	.L18:
 1415              	.LBE15:
 1416              	.LBB16:
 300:C:/Users/geoma/Desktop/Scilab/toolboxes/STM32_toolbox_1-1/scicos_blocks/src/c\convert.c ****                 }
 301:C:/Users/geoma/Desktop/Scilab/toolboxes/STM32_toolbox_1-1/scicos_blocks/src/c\convert.c ****                 break;
 302:C:/Users/geoma/Desktop/Scilab/toolboxes/STM32_toolbox_1-1/scicos_blocks/src/c\convert.c ****             }
 303:C:/Users/geoma/Desktop/Scilab/toolboxes/STM32_toolbox_1-1/scicos_blocks/src/c\convert.c ****             case 15:
 304:C:/Users/geoma/Desktop/Scilab/toolboxes/STM32_toolbox_1-1/scicos_blocks/src/c\convert.c ****             {
 305:C:/Users/geoma/Desktop/Scilab/toolboxes/STM32_toolbox_1-1/scicos_blocks/src/c\convert.c ****                 SCSINT16_COP *u = NULL;
 306:C:/Users/geoma/Desktop/Scilab/toolboxes/STM32_toolbox_1-1/scicos_blocks/src/c\convert.c ****                 SCSINT8_COP *y = NULL;
 307:C:/Users/geoma/Desktop/Scilab/toolboxes/STM32_toolbox_1-1/scicos_blocks/src/c\convert.c ****                 u = Getint16InPortPtrs(block, 1);
 1417              		.loc 1 307 0 is_stmt 1
 1418 092c 436C     		ldr	r3, [r0, #68]
 1419 092e D3F80080 		ldr	r8, [r3]
 1420              	.LVL261:
 308:C:/Users/geoma/Desktop/Scilab/toolboxes/STM32_toolbox_1-1/scicos_blocks/src/c\convert.c ****                 y = Getint8OutPortPtrs(block, 1);
 1421              		.loc 1 308 0
 1422 0932 036D     		ldr	r3, [r0, #80]
 1423 0934 D3F80090 		ldr	r9, [r3]
 1424              	.LVL262:
 309:C:/Users/geoma/Desktop/Scilab/toolboxes/STM32_toolbox_1-1/scicos_blocks/src/c\convert.c ****                 k = pow(2, 8);
 310:C:/Users/geoma/Desktop/Scilab/toolboxes/STM32_toolbox_1-1/scicos_blocks/src/c\convert.c ****                 for (i = 0; i < m * n; i++)
 1425              		.loc 1 310 0
 1426 0938 0026     		movs	r6, #0
 1427 093a 79E0     		b	.L146
 1428              	.LVL263:
 1429              	.L151:
 311:C:/Users/geoma/Desktop/Scilab/toolboxes/STM32_toolbox_1-1/scicos_blocks/src/c\convert.c ****                 {
 312:C:/Users/geoma/Desktop/Scilab/toolboxes/STM32_toolbox_1-1/scicos_blocks/src/c\convert.c ****                     v = (double)u[i];
 1430              		.loc 1 312 0
ARM GAS  C:\Users\geoma\AppData\Local\Temp\ccpZNVPJ.s 			page 32


 1431 093c 3746     		mov	r7, r6
 1432 093e 38F91600 		ldrsh	r0, [r8, r6, lsl #1]
 1433 0942 FFF7FEFF 		bl	__aeabi_i2d
 1434              	.LVL264:
 1435 0946 0446     		mov	r4, r0
 1436 0948 0D46     		mov	r5, r1
 1437              	.LVL265:
 313:C:/Users/geoma/Desktop/Scilab/toolboxes/STM32_toolbox_1-1/scicos_blocks/src/c\convert.c ****                     w = v - (double)((int)(v / k)) * k;
 1438              		.loc 1 313 0
 1439 094a 0022     		movs	r2, #0
 1440 094c 8A4B     		ldr	r3, .L532+16
 1441 094e FFF7FEFF 		bl	__aeabi_dmul
 1442              	.LVL266:
 1443 0952 FFF7FEFF 		bl	__aeabi_d2iz
 1444              	.LVL267:
 1445 0956 FFF7FEFF 		bl	__aeabi_i2d
 1446              	.LVL268:
 1447 095a 0022     		movs	r2, #0
 1448 095c 874B     		ldr	r3, .L532+20
 1449 095e FFF7FEFF 		bl	__aeabi_dmul
 1450              	.LVL269:
 1451 0962 0246     		mov	r2, r0
 1452 0964 0B46     		mov	r3, r1
 1453 0966 2046     		mov	r0, r4
 1454 0968 2946     		mov	r1, r5
 1455 096a FFF7FEFF 		bl	__aeabi_dsub
 1456              	.LVL270:
 1457 096e 0446     		mov	r4, r0
 1458              	.LVL271:
 1459 0970 0D46     		mov	r5, r1
 1460              	.LVL272:
 314:C:/Users/geoma/Desktop/Scilab/toolboxes/STM32_toolbox_1-1/scicos_blocks/src/c\convert.c ****                     if (fabs(w) > k / 2 - 1)
 1461              		.loc 1 314 0
 1462 0972 0A90     		str	r0, [sp, #40]
 1463 0974 21F00043 		bic	r3, r1, #-2147483648
 1464 0978 0B93     		str	r3, [sp, #44]
 1465 097a DDE90A01 		ldrd	r0, [sp, #40]
 1466 097e 7AA3     		adr	r3, .L532
 1467 0980 D3E90023 		ldrd	r2, [r3]
 1468 0984 FFF7FEFF 		bl	__aeabi_dcmpgt
 1469              	.LVL273:
 1470 0988 0028     		cmp	r0, #0
 1471 098a 4AD0     		beq	.L147
 315:C:/Users/geoma/Desktop/Scilab/toolboxes/STM32_toolbox_1-1/scicos_blocks/src/c\convert.c ****                     {
 316:C:/Users/geoma/Desktop/Scilab/toolboxes/STM32_toolbox_1-1/scicos_blocks/src/c\convert.c ****                         if (w >= 0)
 1472              		.loc 1 316 0
 1473 098c 2046     		mov	r0, r4
 1474 098e 2946     		mov	r1, r5
 1475 0990 0022     		movs	r2, #0
 1476 0992 0023     		movs	r3, #0
 1477 0994 FFF7FEFF 		bl	__aeabi_dcmpge
 1478              	.LVL274:
 1479 0998 08B3     		cbz	r0, .L505
 317:C:/Users/geoma/Desktop/Scilab/toolboxes/STM32_toolbox_1-1/scicos_blocks/src/c\convert.c ****                         {
 318:C:/Users/geoma/Desktop/Scilab/toolboxes/STM32_toolbox_1-1/scicos_blocks/src/c\convert.c ****                             w = (-k / 2 + fabs(w - (double)((int)(w / (k / 2))) * (k / 2)));
 1480              		.loc 1 318 0
 1481 099a 2046     		mov	r0, r4
ARM GAS  C:\Users\geoma\AppData\Local\Temp\ccpZNVPJ.s 			page 33


 1482 099c 2946     		mov	r1, r5
 1483 099e 0022     		movs	r2, #0
 1484 09a0 4FF07E53 		mov	r3, #1065353216
 1485 09a4 FFF7FEFF 		bl	__aeabi_dmul
 1486              	.LVL275:
 1487 09a8 FFF7FEFF 		bl	__aeabi_d2iz
 1488              	.LVL276:
 1489 09ac FFF7FEFF 		bl	__aeabi_i2d
 1490              	.LVL277:
 1491 09b0 0022     		movs	r2, #0
 1492 09b2 734B     		ldr	r3, .L532+24
 1493 09b4 FFF7FEFF 		bl	__aeabi_dmul
 1494              	.LVL278:
 1495 09b8 0246     		mov	r2, r0
 1496 09ba 0B46     		mov	r3, r1
 1497 09bc 2046     		mov	r0, r4
 1498 09be 2946     		mov	r1, r5
 1499 09c0 FFF7FEFF 		bl	__aeabi_dsub
 1500              	.LVL279:
 1501 09c4 1C90     		str	r0, [sp, #112]
 1502 09c6 21F00043 		bic	r3, r1, #-2147483648
 1503 09ca 1D93     		str	r3, [sp, #116]
 1504 09cc DDE91C01 		ldrd	r0, [sp, #112]
 1505 09d0 0022     		movs	r2, #0
 1506 09d2 6B4B     		ldr	r3, .L532+24
 1507 09d4 FFF7FEFF 		bl	__aeabi_dsub
 1508              	.LVL280:
 1509 09d8 0446     		mov	r4, r0
 1510              	.LVL281:
 1511 09da 0D46     		mov	r5, r1
 1512              	.LVL282:
 1513 09dc 21E0     		b	.L147
 1514              	.L505:
 319:C:/Users/geoma/Desktop/Scilab/toolboxes/STM32_toolbox_1-1/scicos_blocks/src/c\convert.c ****                         }
 320:C:/Users/geoma/Desktop/Scilab/toolboxes/STM32_toolbox_1-1/scicos_blocks/src/c\convert.c ****                         else
 321:C:/Users/geoma/Desktop/Scilab/toolboxes/STM32_toolbox_1-1/scicos_blocks/src/c\convert.c ****                         {
 322:C:/Users/geoma/Desktop/Scilab/toolboxes/STM32_toolbox_1-1/scicos_blocks/src/c\convert.c ****                             w = -(-(k / 2) + fabs(w - (double)((int)(w / (k / 2))) * (k / 2)));
 1515              		.loc 1 322 0
 1516 09de 2046     		mov	r0, r4
 1517 09e0 2946     		mov	r1, r5
 1518 09e2 0022     		movs	r2, #0
 1519 09e4 4FF07E53 		mov	r3, #1065353216
 1520 09e8 FFF7FEFF 		bl	__aeabi_dmul
 1521              	.LVL283:
 1522 09ec FFF7FEFF 		bl	__aeabi_d2iz
 1523              	.LVL284:
 1524 09f0 FFF7FEFF 		bl	__aeabi_i2d
 1525              	.LVL285:
 1526 09f4 0022     		movs	r2, #0
 1527 09f6 624B     		ldr	r3, .L532+24
 1528 09f8 FFF7FEFF 		bl	__aeabi_dmul
 1529              	.LVL286:
 1530 09fc 0246     		mov	r2, r0
 1531 09fe 0B46     		mov	r3, r1
 1532 0a00 2046     		mov	r0, r4
 1533 0a02 2946     		mov	r1, r5
 1534 0a04 FFF7FEFF 		bl	__aeabi_dsub
ARM GAS  C:\Users\geoma\AppData\Local\Temp\ccpZNVPJ.s 			page 34


 1535              	.LVL287:
 1536 0a08 2890     		str	r0, [sp, #160]
 1537 0a0a 21F00043 		bic	r3, r1, #-2147483648
 1538 0a0e 2993     		str	r3, [sp, #164]
 1539 0a10 DDE92801 		ldrd	r0, [sp, #160]
 1540 0a14 0022     		movs	r2, #0
 1541 0a16 5A4B     		ldr	r3, .L532+24
 1542 0a18 FFF7FEFF 		bl	__aeabi_dsub
 1543              	.LVL288:
 1544 0a1c 0446     		mov	r4, r0
 1545              	.LVL289:
 1546 0a1e 01F10045 		add	r5, r1, #-2147483648
 1547              	.LVL290:
 1548              	.L147:
 323:C:/Users/geoma/Desktop/Scilab/toolboxes/STM32_toolbox_1-1/scicos_blocks/src/c\convert.c ****                         }
 324:C:/Users/geoma/Desktop/Scilab/toolboxes/STM32_toolbox_1-1/scicos_blocks/src/c\convert.c ****                     }
 325:C:/Users/geoma/Desktop/Scilab/toolboxes/STM32_toolbox_1-1/scicos_blocks/src/c\convert.c ****                     y[i] = (SCSINT8_COP)w;
 1549              		.loc 1 325 0 discriminator 2
 1550 0a22 2046     		mov	r0, r4
 1551 0a24 2946     		mov	r1, r5
 1552 0a26 FFF7FEFF 		bl	__aeabi_d2uiz
 1553              	.LVL291:
 1554 0a2a 09F80700 		strb	r0, [r9, r7]
 310:C:/Users/geoma/Desktop/Scilab/toolboxes/STM32_toolbox_1-1/scicos_blocks/src/c\convert.c ****                 {
 1555              		.loc 1 310 0 discriminator 2
 1556 0a2e 0136     		adds	r6, r6, #1
 1557              	.LVL292:
 1558              	.L146:
 310:C:/Users/geoma/Desktop/Scilab/toolboxes/STM32_toolbox_1-1/scicos_blocks/src/c\convert.c ****                 {
 1559              		.loc 1 310 0 is_stmt 0 discriminator 1
 1560 0a30 0AFB0BF3 		mul	r3, r10, fp
 1561 0a34 B342     		cmp	r3, r6
 1562 0a36 81DC     		bgt	.L151
 1563 0a38 01F00EBA 		b	.L1
 1564              	.LVL293:
 1565              	.L19:
 1566              	.LBE16:
 1567              	.LBB17:
 326:C:/Users/geoma/Desktop/Scilab/toolboxes/STM32_toolbox_1-1/scicos_blocks/src/c\convert.c ****                 }
 327:C:/Users/geoma/Desktop/Scilab/toolboxes/STM32_toolbox_1-1/scicos_blocks/src/c\convert.c ****                 break;
 328:C:/Users/geoma/Desktop/Scilab/toolboxes/STM32_toolbox_1-1/scicos_blocks/src/c\convert.c ****             }
 329:C:/Users/geoma/Desktop/Scilab/toolboxes/STM32_toolbox_1-1/scicos_blocks/src/c\convert.c ****             case 16:
 330:C:/Users/geoma/Desktop/Scilab/toolboxes/STM32_toolbox_1-1/scicos_blocks/src/c\convert.c ****             {
 331:C:/Users/geoma/Desktop/Scilab/toolboxes/STM32_toolbox_1-1/scicos_blocks/src/c\convert.c ****                 SCSINT16_COP *u = NULL;
 332:C:/Users/geoma/Desktop/Scilab/toolboxes/STM32_toolbox_1-1/scicos_blocks/src/c\convert.c ****                 SCSUINT32_COP *y = NULL;
 333:C:/Users/geoma/Desktop/Scilab/toolboxes/STM32_toolbox_1-1/scicos_blocks/src/c\convert.c ****                 u = Getint16InPortPtrs(block, 1);
 1568              		.loc 1 333 0 is_stmt 1
 1569 0a3c 436C     		ldr	r3, [r0, #68]
 1570 0a3e 1C68     		ldr	r4, [r3]
 1571              	.LVL294:
 334:C:/Users/geoma/Desktop/Scilab/toolboxes/STM32_toolbox_1-1/scicos_blocks/src/c\convert.c ****                 y = Getuint32OutPortPtrs(block, 1);
 1572              		.loc 1 334 0
 1573 0a40 036D     		ldr	r3, [r0, #80]
 1574 0a42 1968     		ldr	r1, [r3]
 1575              	.LVL295:
 335:C:/Users/geoma/Desktop/Scilab/toolboxes/STM32_toolbox_1-1/scicos_blocks/src/c\convert.c ****                 for (i = 0; i < m * n; i++)
 1576              		.loc 1 335 0
ARM GAS  C:\Users\geoma\AppData\Local\Temp\ccpZNVPJ.s 			page 35


 1577 0a44 0023     		movs	r3, #0
 1578 0a46 04E0     		b	.L152
 1579              	.LVL296:
 1580              	.L153:
 336:C:/Users/geoma/Desktop/Scilab/toolboxes/STM32_toolbox_1-1/scicos_blocks/src/c\convert.c ****                 {
 337:C:/Users/geoma/Desktop/Scilab/toolboxes/STM32_toolbox_1-1/scicos_blocks/src/c\convert.c ****                     y[i] = (SCSUINT32_COP)u[i];
 1581              		.loc 1 337 0 discriminator 3
 1582 0a48 34F91320 		ldrsh	r2, [r4, r3, lsl #1]
 1583 0a4c 41F82320 		str	r2, [r1, r3, lsl #2]
 335:C:/Users/geoma/Desktop/Scilab/toolboxes/STM32_toolbox_1-1/scicos_blocks/src/c\convert.c ****                 for (i = 0; i < m * n; i++)
 1584              		.loc 1 335 0 discriminator 3
 1585 0a50 0133     		adds	r3, r3, #1
 1586              	.LVL297:
 1587              	.L152:
 335:C:/Users/geoma/Desktop/Scilab/toolboxes/STM32_toolbox_1-1/scicos_blocks/src/c\convert.c ****                 for (i = 0; i < m * n; i++)
 1588              		.loc 1 335 0 is_stmt 0 discriminator 1
 1589 0a52 0AFB0BF2 		mul	r2, r10, fp
 1590 0a56 9A42     		cmp	r2, r3
 1591 0a58 F6DC     		bgt	.L153
 1592 0a5a 01F0FDB9 		b	.L1
 1593              	.LVL298:
 1594              	.L20:
 1595              	.LBE17:
 1596              	.LBB18:
 338:C:/Users/geoma/Desktop/Scilab/toolboxes/STM32_toolbox_1-1/scicos_blocks/src/c\convert.c ****                 }
 339:C:/Users/geoma/Desktop/Scilab/toolboxes/STM32_toolbox_1-1/scicos_blocks/src/c\convert.c ****                 break;
 340:C:/Users/geoma/Desktop/Scilab/toolboxes/STM32_toolbox_1-1/scicos_blocks/src/c\convert.c ****             }
 341:C:/Users/geoma/Desktop/Scilab/toolboxes/STM32_toolbox_1-1/scicos_blocks/src/c\convert.c ****             case 17:
 342:C:/Users/geoma/Desktop/Scilab/toolboxes/STM32_toolbox_1-1/scicos_blocks/src/c\convert.c ****             {
 343:C:/Users/geoma/Desktop/Scilab/toolboxes/STM32_toolbox_1-1/scicos_blocks/src/c\convert.c ****                 SCSINT16_COP *u = NULL;
 344:C:/Users/geoma/Desktop/Scilab/toolboxes/STM32_toolbox_1-1/scicos_blocks/src/c\convert.c ****                 SCSUINT8_COP *y = NULL;
 345:C:/Users/geoma/Desktop/Scilab/toolboxes/STM32_toolbox_1-1/scicos_blocks/src/c\convert.c ****                 u = Getint16InPortPtrs(block, 1);
 1597              		.loc 1 345 0 is_stmt 1
 1598 0a5e 436C     		ldr	r3, [r0, #68]
 1599 0a60 1F68     		ldr	r7, [r3]
 1600              	.LVL299:
 346:C:/Users/geoma/Desktop/Scilab/toolboxes/STM32_toolbox_1-1/scicos_blocks/src/c\convert.c ****                 y = Getuint8OutPortPtrs(block, 1);
 1601              		.loc 1 346 0
 1602 0a62 036D     		ldr	r3, [r0, #80]
 1603 0a64 D3F80080 		ldr	r8, [r3]
 1604              	.LVL300:
 347:C:/Users/geoma/Desktop/Scilab/toolboxes/STM32_toolbox_1-1/scicos_blocks/src/c\convert.c ****                 k = pow(2, 8);
 348:C:/Users/geoma/Desktop/Scilab/toolboxes/STM32_toolbox_1-1/scicos_blocks/src/c\convert.c ****                 for (i = 0; i < m * n; i++)
 1605              		.loc 1 348 0
 1606 0a68 0026     		movs	r6, #0
 1607 0a6a 1CE0     		b	.L154
 1608              	.LVL301:
 1609              	.L155:
 349:C:/Users/geoma/Desktop/Scilab/toolboxes/STM32_toolbox_1-1/scicos_blocks/src/c\convert.c ****                 {
 350:C:/Users/geoma/Desktop/Scilab/toolboxes/STM32_toolbox_1-1/scicos_blocks/src/c\convert.c ****                     v = (double)u[i];
 1610              		.loc 1 350 0 discriminator 3
 1611 0a6c 37F91600 		ldrsh	r0, [r7, r6, lsl #1]
 1612 0a70 FFF7FEFF 		bl	__aeabi_i2d
 1613              	.LVL302:
 1614 0a74 0446     		mov	r4, r0
 1615 0a76 0D46     		mov	r5, r1
 1616              	.LVL303:
ARM GAS  C:\Users\geoma\AppData\Local\Temp\ccpZNVPJ.s 			page 36


 351:C:/Users/geoma/Desktop/Scilab/toolboxes/STM32_toolbox_1-1/scicos_blocks/src/c\convert.c ****                     w = v - (double)((int)(v / k)) * k;
 1617              		.loc 1 351 0 discriminator 3
 1618 0a78 0022     		movs	r2, #0
 1619 0a7a 3F4B     		ldr	r3, .L532+16
 1620 0a7c FFF7FEFF 		bl	__aeabi_dmul
 1621              	.LVL304:
 1622 0a80 FFF7FEFF 		bl	__aeabi_d2iz
 1623              	.LVL305:
 1624 0a84 FFF7FEFF 		bl	__aeabi_i2d
 1625              	.LVL306:
 1626 0a88 0022     		movs	r2, #0
 1627 0a8a 3C4B     		ldr	r3, .L532+20
 1628 0a8c FFF7FEFF 		bl	__aeabi_dmul
 1629              	.LVL307:
 1630 0a90 0246     		mov	r2, r0
 1631 0a92 0B46     		mov	r3, r1
 1632 0a94 2046     		mov	r0, r4
 1633 0a96 2946     		mov	r1, r5
 1634 0a98 FFF7FEFF 		bl	__aeabi_dsub
 1635              	.LVL308:
 352:C:/Users/geoma/Desktop/Scilab/toolboxes/STM32_toolbox_1-1/scicos_blocks/src/c\convert.c ****                     y[i] = (SCSUINT8_COP)w;
 1636              		.loc 1 352 0 discriminator 3
 1637 0a9c FFF7FEFF 		bl	__aeabi_d2uiz
 1638              	.LVL309:
 1639 0aa0 08F80600 		strb	r0, [r8, r6]
 348:C:/Users/geoma/Desktop/Scilab/toolboxes/STM32_toolbox_1-1/scicos_blocks/src/c\convert.c ****                 {
 1640              		.loc 1 348 0 discriminator 3
 1641 0aa4 0136     		adds	r6, r6, #1
 1642              	.LVL310:
 1643              	.L154:
 348:C:/Users/geoma/Desktop/Scilab/toolboxes/STM32_toolbox_1-1/scicos_blocks/src/c\convert.c ****                 {
 1644              		.loc 1 348 0 is_stmt 0 discriminator 1
 1645 0aa6 0AFB0BF3 		mul	r3, r10, fp
 1646 0aaa B342     		cmp	r3, r6
 1647 0aac DEDC     		bgt	.L155
 1648 0aae 01F0D3B9 		b	.L1
 1649              	.LVL311:
 1650              	.L21:
 1651              	.LBE18:
 1652              	.LBB19:
 353:C:/Users/geoma/Desktop/Scilab/toolboxes/STM32_toolbox_1-1/scicos_blocks/src/c\convert.c ****                 }
 354:C:/Users/geoma/Desktop/Scilab/toolboxes/STM32_toolbox_1-1/scicos_blocks/src/c\convert.c ****                 break;
 355:C:/Users/geoma/Desktop/Scilab/toolboxes/STM32_toolbox_1-1/scicos_blocks/src/c\convert.c ****             }
 356:C:/Users/geoma/Desktop/Scilab/toolboxes/STM32_toolbox_1-1/scicos_blocks/src/c\convert.c ****             case 18:
 357:C:/Users/geoma/Desktop/Scilab/toolboxes/STM32_toolbox_1-1/scicos_blocks/src/c\convert.c ****             {
 358:C:/Users/geoma/Desktop/Scilab/toolboxes/STM32_toolbox_1-1/scicos_blocks/src/c\convert.c ****                 SCSINT8_COP *u = NULL;
 359:C:/Users/geoma/Desktop/Scilab/toolboxes/STM32_toolbox_1-1/scicos_blocks/src/c\convert.c ****                 SCSREAL_COP *y = NULL;
 360:C:/Users/geoma/Desktop/Scilab/toolboxes/STM32_toolbox_1-1/scicos_blocks/src/c\convert.c ****                 u = Getint8InPortPtrs(block, 1);
 1653              		.loc 1 360 0 is_stmt 1
 1654 0ab2 436C     		ldr	r3, [r0, #68]
 1655 0ab4 1F68     		ldr	r7, [r3]
 1656              	.LVL312:
 361:C:/Users/geoma/Desktop/Scilab/toolboxes/STM32_toolbox_1-1/scicos_blocks/src/c\convert.c ****                 y = GetRealOutPortPtrs(block, 1);
 1657              		.loc 1 361 0
 1658 0ab6 036D     		ldr	r3, [r0, #80]
 1659 0ab8 1E68     		ldr	r6, [r3]
 1660              	.LVL313:
ARM GAS  C:\Users\geoma\AppData\Local\Temp\ccpZNVPJ.s 			page 37


 362:C:/Users/geoma/Desktop/Scilab/toolboxes/STM32_toolbox_1-1/scicos_blocks/src/c\convert.c ****                 for (i = 0; i < m * n; i++)
 1661              		.loc 1 362 0
 1662 0aba 0024     		movs	r4, #0
 1663              	.LVL314:
 1664 0abc 07E0     		b	.L156
 1665              	.LVL315:
 1666              	.L157:
 363:C:/Users/geoma/Desktop/Scilab/toolboxes/STM32_toolbox_1-1/scicos_blocks/src/c\convert.c ****                 {
 364:C:/Users/geoma/Desktop/Scilab/toolboxes/STM32_toolbox_1-1/scicos_blocks/src/c\convert.c ****                     y[i] = (SCSREAL_COP) u[i];
 1667              		.loc 1 364 0 discriminator 3
 1668 0abe 06EBC405 		add	r5, r6, r4, lsl #3
 1669 0ac2 385D     		ldrb	r0, [r7, r4]	@ zero_extendqisi2
 1670 0ac4 FFF7FEFF 		bl	__aeabi_ui2d
 1671              	.LVL316:
 1672 0ac8 C5E90001 		strd	r0, [r5]
 362:C:/Users/geoma/Desktop/Scilab/toolboxes/STM32_toolbox_1-1/scicos_blocks/src/c\convert.c ****                 for (i = 0; i < m * n; i++)
 1673              		.loc 1 362 0 discriminator 3
 1674 0acc 0134     		adds	r4, r4, #1
 1675              	.LVL317:
 1676              	.L156:
 362:C:/Users/geoma/Desktop/Scilab/toolboxes/STM32_toolbox_1-1/scicos_blocks/src/c\convert.c ****                 for (i = 0; i < m * n; i++)
 1677              		.loc 1 362 0 is_stmt 0 discriminator 1
 1678 0ace 0AFB0BF3 		mul	r3, r10, fp
 1679 0ad2 A342     		cmp	r3, r4
 1680 0ad4 F3DC     		bgt	.L157
 1681 0ad6 01F0BFB9 		b	.L1
 1682              	.LVL318:
 1683              	.L22:
 1684              	.LBE19:
 1685              	.LBB20:
 365:C:/Users/geoma/Desktop/Scilab/toolboxes/STM32_toolbox_1-1/scicos_blocks/src/c\convert.c ****                 }
 366:C:/Users/geoma/Desktop/Scilab/toolboxes/STM32_toolbox_1-1/scicos_blocks/src/c\convert.c ****                 break;
 367:C:/Users/geoma/Desktop/Scilab/toolboxes/STM32_toolbox_1-1/scicos_blocks/src/c\convert.c ****             }
 368:C:/Users/geoma/Desktop/Scilab/toolboxes/STM32_toolbox_1-1/scicos_blocks/src/c\convert.c ****             case 19:
 369:C:/Users/geoma/Desktop/Scilab/toolboxes/STM32_toolbox_1-1/scicos_blocks/src/c\convert.c ****             {
 370:C:/Users/geoma/Desktop/Scilab/toolboxes/STM32_toolbox_1-1/scicos_blocks/src/c\convert.c ****                 SCSINT8_COP *u = NULL;
 371:C:/Users/geoma/Desktop/Scilab/toolboxes/STM32_toolbox_1-1/scicos_blocks/src/c\convert.c ****                 SCSINT32_COP *y = NULL;
 372:C:/Users/geoma/Desktop/Scilab/toolboxes/STM32_toolbox_1-1/scicos_blocks/src/c\convert.c ****                 u = Getint8InPortPtrs(block, 1);
 1686              		.loc 1 372 0 is_stmt 1
 1687 0ada 436C     		ldr	r3, [r0, #68]
 1688 0adc 1C68     		ldr	r4, [r3]
 1689              	.LVL319:
 373:C:/Users/geoma/Desktop/Scilab/toolboxes/STM32_toolbox_1-1/scicos_blocks/src/c\convert.c ****                 y = Getint32OutPortPtrs(block, 1);
 1690              		.loc 1 373 0
 1691 0ade 036D     		ldr	r3, [r0, #80]
 1692 0ae0 1968     		ldr	r1, [r3]
 1693              	.LVL320:
 374:C:/Users/geoma/Desktop/Scilab/toolboxes/STM32_toolbox_1-1/scicos_blocks/src/c\convert.c ****                 for (i = 0; i < m * n; i++)
 1694              		.loc 1 374 0
 1695 0ae2 0023     		movs	r3, #0
 1696 0ae4 03E0     		b	.L158
 1697              	.LVL321:
 1698              	.L159:
 375:C:/Users/geoma/Desktop/Scilab/toolboxes/STM32_toolbox_1-1/scicos_blocks/src/c\convert.c ****                 {
 376:C:/Users/geoma/Desktop/Scilab/toolboxes/STM32_toolbox_1-1/scicos_blocks/src/c\convert.c ****                     y[i] = (SCSINT32_COP)u[i];
 1699              		.loc 1 376 0 discriminator 3
 1700 0ae6 E25C     		ldrb	r2, [r4, r3]	@ zero_extendqisi2
ARM GAS  C:\Users\geoma\AppData\Local\Temp\ccpZNVPJ.s 			page 38


 1701 0ae8 41F82320 		str	r2, [r1, r3, lsl #2]
 374:C:/Users/geoma/Desktop/Scilab/toolboxes/STM32_toolbox_1-1/scicos_blocks/src/c\convert.c ****                 for (i = 0; i < m * n; i++)
 1702              		.loc 1 374 0 discriminator 3
 1703 0aec 0133     		adds	r3, r3, #1
 1704              	.LVL322:
 1705              	.L158:
 374:C:/Users/geoma/Desktop/Scilab/toolboxes/STM32_toolbox_1-1/scicos_blocks/src/c\convert.c ****                 for (i = 0; i < m * n; i++)
 1706              		.loc 1 374 0 is_stmt 0 discriminator 1
 1707 0aee 0AFB0BF2 		mul	r2, r10, fp
 1708 0af2 9A42     		cmp	r2, r3
 1709 0af4 F7DC     		bgt	.L159
 1710 0af6 01F0AFB9 		b	.L1
 1711              	.LVL323:
 1712              	.L23:
 1713              	.LBE20:
 1714              	.LBB21:
 377:C:/Users/geoma/Desktop/Scilab/toolboxes/STM32_toolbox_1-1/scicos_blocks/src/c\convert.c ****                 }
 378:C:/Users/geoma/Desktop/Scilab/toolboxes/STM32_toolbox_1-1/scicos_blocks/src/c\convert.c ****                 break;
 379:C:/Users/geoma/Desktop/Scilab/toolboxes/STM32_toolbox_1-1/scicos_blocks/src/c\convert.c ****             }
 380:C:/Users/geoma/Desktop/Scilab/toolboxes/STM32_toolbox_1-1/scicos_blocks/src/c\convert.c ****             case 20:
 381:C:/Users/geoma/Desktop/Scilab/toolboxes/STM32_toolbox_1-1/scicos_blocks/src/c\convert.c ****             {
 382:C:/Users/geoma/Desktop/Scilab/toolboxes/STM32_toolbox_1-1/scicos_blocks/src/c\convert.c ****                 SCSINT8_COP *u = NULL;
 383:C:/Users/geoma/Desktop/Scilab/toolboxes/STM32_toolbox_1-1/scicos_blocks/src/c\convert.c ****                 SCSINT16_COP *y = NULL;
 384:C:/Users/geoma/Desktop/Scilab/toolboxes/STM32_toolbox_1-1/scicos_blocks/src/c\convert.c ****                 u = Getint8InPortPtrs(block, 1);
 1715              		.loc 1 384 0 is_stmt 1
 1716 0afa 436C     		ldr	r3, [r0, #68]
 1717 0afc 1C68     		ldr	r4, [r3]
 1718              	.LVL324:
 385:C:/Users/geoma/Desktop/Scilab/toolboxes/STM32_toolbox_1-1/scicos_blocks/src/c\convert.c ****                 y = Getint16OutPortPtrs(block, 1);
 1719              		.loc 1 385 0
 1720 0afe 036D     		ldr	r3, [r0, #80]
 1721 0b00 1968     		ldr	r1, [r3]
 1722              	.LVL325:
 386:C:/Users/geoma/Desktop/Scilab/toolboxes/STM32_toolbox_1-1/scicos_blocks/src/c\convert.c ****                 for (i = 0; i < m * n; i++)
 1723              		.loc 1 386 0
 1724 0b02 0023     		movs	r3, #0
 1725 0b04 03E0     		b	.L160
 1726              	.LVL326:
 1727              	.L161:
 387:C:/Users/geoma/Desktop/Scilab/toolboxes/STM32_toolbox_1-1/scicos_blocks/src/c\convert.c ****                 {
 388:C:/Users/geoma/Desktop/Scilab/toolboxes/STM32_toolbox_1-1/scicos_blocks/src/c\convert.c ****                     y[i] = (SCSINT16_COP)u[i];
 1728              		.loc 1 388 0 discriminator 3
 1729 0b06 E25C     		ldrb	r2, [r4, r3]	@ zero_extendqisi2
 1730 0b08 21F81320 		strh	r2, [r1, r3, lsl #1]	@ movhi
 386:C:/Users/geoma/Desktop/Scilab/toolboxes/STM32_toolbox_1-1/scicos_blocks/src/c\convert.c ****                 for (i = 0; i < m * n; i++)
 1731              		.loc 1 386 0 discriminator 3
 1732 0b0c 0133     		adds	r3, r3, #1
 1733              	.LVL327:
 1734              	.L160:
 386:C:/Users/geoma/Desktop/Scilab/toolboxes/STM32_toolbox_1-1/scicos_blocks/src/c\convert.c ****                 for (i = 0; i < m * n; i++)
 1735              		.loc 1 386 0 is_stmt 0 discriminator 1
 1736 0b0e 0AFB0BF2 		mul	r2, r10, fp
 1737 0b12 9A42     		cmp	r2, r3
 1738 0b14 F7DC     		bgt	.L161
 1739 0b16 01F09FB9 		b	.L1
 1740              	.LVL328:
 1741              	.L24:
ARM GAS  C:\Users\geoma\AppData\Local\Temp\ccpZNVPJ.s 			page 39


 1742              	.LBE21:
 1743              	.LBB22:
 389:C:/Users/geoma/Desktop/Scilab/toolboxes/STM32_toolbox_1-1/scicos_blocks/src/c\convert.c ****                 }
 390:C:/Users/geoma/Desktop/Scilab/toolboxes/STM32_toolbox_1-1/scicos_blocks/src/c\convert.c ****                 break;
 391:C:/Users/geoma/Desktop/Scilab/toolboxes/STM32_toolbox_1-1/scicos_blocks/src/c\convert.c ****             }
 392:C:/Users/geoma/Desktop/Scilab/toolboxes/STM32_toolbox_1-1/scicos_blocks/src/c\convert.c ****             case 21:
 393:C:/Users/geoma/Desktop/Scilab/toolboxes/STM32_toolbox_1-1/scicos_blocks/src/c\convert.c ****             {
 394:C:/Users/geoma/Desktop/Scilab/toolboxes/STM32_toolbox_1-1/scicos_blocks/src/c\convert.c ****                 SCSINT8_COP *u = NULL;
 395:C:/Users/geoma/Desktop/Scilab/toolboxes/STM32_toolbox_1-1/scicos_blocks/src/c\convert.c ****                 SCSUINT32_COP *y = NULL;
 396:C:/Users/geoma/Desktop/Scilab/toolboxes/STM32_toolbox_1-1/scicos_blocks/src/c\convert.c ****                 u = Getint8InPortPtrs(block, 1);
 1744              		.loc 1 396 0 is_stmt 1
 1745 0b1a 436C     		ldr	r3, [r0, #68]
 1746 0b1c 1C68     		ldr	r4, [r3]
 1747              	.LVL329:
 397:C:/Users/geoma/Desktop/Scilab/toolboxes/STM32_toolbox_1-1/scicos_blocks/src/c\convert.c ****                 y = Getuint32OutPortPtrs(block, 1);
 1748              		.loc 1 397 0
 1749 0b1e 036D     		ldr	r3, [r0, #80]
 1750 0b20 1968     		ldr	r1, [r3]
 1751              	.LVL330:
 398:C:/Users/geoma/Desktop/Scilab/toolboxes/STM32_toolbox_1-1/scicos_blocks/src/c\convert.c ****                 for (i = 0; i < m * n; i++)
 1752              		.loc 1 398 0
 1753 0b22 0023     		movs	r3, #0
 1754 0b24 03E0     		b	.L162
 1755              	.LVL331:
 1756              	.L163:
 399:C:/Users/geoma/Desktop/Scilab/toolboxes/STM32_toolbox_1-1/scicos_blocks/src/c\convert.c ****                 {
 400:C:/Users/geoma/Desktop/Scilab/toolboxes/STM32_toolbox_1-1/scicos_blocks/src/c\convert.c ****                     y[i] = (SCSUINT32_COP)u[i];
 1757              		.loc 1 400 0 discriminator 3
 1758 0b26 E25C     		ldrb	r2, [r4, r3]	@ zero_extendqisi2
 1759 0b28 41F82320 		str	r2, [r1, r3, lsl #2]
 398:C:/Users/geoma/Desktop/Scilab/toolboxes/STM32_toolbox_1-1/scicos_blocks/src/c\convert.c ****                 for (i = 0; i < m * n; i++)
 1760              		.loc 1 398 0 discriminator 3
 1761 0b2c 0133     		adds	r3, r3, #1
 1762              	.LVL332:
 1763              	.L162:
 398:C:/Users/geoma/Desktop/Scilab/toolboxes/STM32_toolbox_1-1/scicos_blocks/src/c\convert.c ****                 for (i = 0; i < m * n; i++)
 1764              		.loc 1 398 0 is_stmt 0 discriminator 1
 1765 0b2e 0AFB0BF2 		mul	r2, r10, fp
 1766 0b32 9A42     		cmp	r2, r3
 1767 0b34 F7DC     		bgt	.L163
 1768 0b36 01F08FB9 		b	.L1
 1769              	.LVL333:
 1770              	.L25:
 1771              	.LBE22:
 1772              	.LBB23:
 401:C:/Users/geoma/Desktop/Scilab/toolboxes/STM32_toolbox_1-1/scicos_blocks/src/c\convert.c ****                 }
 402:C:/Users/geoma/Desktop/Scilab/toolboxes/STM32_toolbox_1-1/scicos_blocks/src/c\convert.c ****                 break;
 403:C:/Users/geoma/Desktop/Scilab/toolboxes/STM32_toolbox_1-1/scicos_blocks/src/c\convert.c ****             }
 404:C:/Users/geoma/Desktop/Scilab/toolboxes/STM32_toolbox_1-1/scicos_blocks/src/c\convert.c ****             case 22:
 405:C:/Users/geoma/Desktop/Scilab/toolboxes/STM32_toolbox_1-1/scicos_blocks/src/c\convert.c ****             {
 406:C:/Users/geoma/Desktop/Scilab/toolboxes/STM32_toolbox_1-1/scicos_blocks/src/c\convert.c ****                 SCSINT8_COP *u = NULL;
 407:C:/Users/geoma/Desktop/Scilab/toolboxes/STM32_toolbox_1-1/scicos_blocks/src/c\convert.c ****                 SCSUINT16_COP *y = NULL;
 408:C:/Users/geoma/Desktop/Scilab/toolboxes/STM32_toolbox_1-1/scicos_blocks/src/c\convert.c ****                 u = Getint8InPortPtrs(block, 1);
 1773              		.loc 1 408 0 is_stmt 1
 1774 0b3a 436C     		ldr	r3, [r0, #68]
 1775 0b3c 1C68     		ldr	r4, [r3]
 1776              	.LVL334:
ARM GAS  C:\Users\geoma\AppData\Local\Temp\ccpZNVPJ.s 			page 40


 409:C:/Users/geoma/Desktop/Scilab/toolboxes/STM32_toolbox_1-1/scicos_blocks/src/c\convert.c ****                 y = Getuint16OutPortPtrs(block, 1);
 1777              		.loc 1 409 0
 1778 0b3e 036D     		ldr	r3, [r0, #80]
 1779 0b40 1968     		ldr	r1, [r3]
 1780              	.LVL335:
 410:C:/Users/geoma/Desktop/Scilab/toolboxes/STM32_toolbox_1-1/scicos_blocks/src/c\convert.c ****                 for (i = 0; i < m * n; i++)
 1781              		.loc 1 410 0
 1782 0b42 0023     		movs	r3, #0
 1783 0b44 03E0     		b	.L164
 1784              	.LVL336:
 1785              	.L165:
 411:C:/Users/geoma/Desktop/Scilab/toolboxes/STM32_toolbox_1-1/scicos_blocks/src/c\convert.c ****                 {
 412:C:/Users/geoma/Desktop/Scilab/toolboxes/STM32_toolbox_1-1/scicos_blocks/src/c\convert.c ****                     y[i] = (SCSUINT16_COP)u[i];
 1786              		.loc 1 412 0 discriminator 3
 1787 0b46 E25C     		ldrb	r2, [r4, r3]	@ zero_extendqisi2
 1788 0b48 21F81320 		strh	r2, [r1, r3, lsl #1]	@ movhi
 410:C:/Users/geoma/Desktop/Scilab/toolboxes/STM32_toolbox_1-1/scicos_blocks/src/c\convert.c ****                 for (i = 0; i < m * n; i++)
 1789              		.loc 1 410 0 discriminator 3
 1790 0b4c 0133     		adds	r3, r3, #1
 1791              	.LVL337:
 1792              	.L164:
 410:C:/Users/geoma/Desktop/Scilab/toolboxes/STM32_toolbox_1-1/scicos_blocks/src/c\convert.c ****                 for (i = 0; i < m * n; i++)
 1793              		.loc 1 410 0 is_stmt 0 discriminator 1
 1794 0b4e 0AFB0BF2 		mul	r2, r10, fp
 1795 0b52 9A42     		cmp	r2, r3
 1796 0b54 F7DC     		bgt	.L165
 1797 0b56 01F07FB9 		b	.L1
 1798              	.LVL338:
 1799              	.L26:
 1800              	.LBE23:
 1801              	.LBB24:
 413:C:/Users/geoma/Desktop/Scilab/toolboxes/STM32_toolbox_1-1/scicos_blocks/src/c\convert.c ****                 }
 414:C:/Users/geoma/Desktop/Scilab/toolboxes/STM32_toolbox_1-1/scicos_blocks/src/c\convert.c ****                 break;
 415:C:/Users/geoma/Desktop/Scilab/toolboxes/STM32_toolbox_1-1/scicos_blocks/src/c\convert.c ****             }
 416:C:/Users/geoma/Desktop/Scilab/toolboxes/STM32_toolbox_1-1/scicos_blocks/src/c\convert.c ****             case 23:
 417:C:/Users/geoma/Desktop/Scilab/toolboxes/STM32_toolbox_1-1/scicos_blocks/src/c\convert.c ****             {
 418:C:/Users/geoma/Desktop/Scilab/toolboxes/STM32_toolbox_1-1/scicos_blocks/src/c\convert.c ****                 SCSUINT32_COP *u = NULL;
 419:C:/Users/geoma/Desktop/Scilab/toolboxes/STM32_toolbox_1-1/scicos_blocks/src/c\convert.c ****                 SCSREAL_COP *y = NULL;
 420:C:/Users/geoma/Desktop/Scilab/toolboxes/STM32_toolbox_1-1/scicos_blocks/src/c\convert.c ****                 u = Getuint32InPortPtrs(block, 1);
 1802              		.loc 1 420 0 is_stmt 1
 1803 0b5a 436C     		ldr	r3, [r0, #68]
 1804 0b5c 1F68     		ldr	r7, [r3]
 1805              	.LVL339:
 421:C:/Users/geoma/Desktop/Scilab/toolboxes/STM32_toolbox_1-1/scicos_blocks/src/c\convert.c ****                 y = GetRealOutPortPtrs(block, 1);
 1806              		.loc 1 421 0
 1807 0b5e 036D     		ldr	r3, [r0, #80]
 1808 0b60 1E68     		ldr	r6, [r3]
 1809              	.LVL340:
 422:C:/Users/geoma/Desktop/Scilab/toolboxes/STM32_toolbox_1-1/scicos_blocks/src/c\convert.c ****                 for (i = 0; i < m * n; i++)
 1810              		.loc 1 422 0
 1811 0b62 0024     		movs	r4, #0
 1812              	.LVL341:
 1813 0b64 17E0     		b	.L166
 1814              	.L533:
 1815 0b66 00BF     		.align	3
 1816              	.L532:
 1817 0b68 00000000 		.word	0
ARM GAS  C:\Users\geoma\AppData\Local\Temp\ccpZNVPJ.s 			page 41


 1818 0b6c 00C05F40 		.word	1080016896
 1819 0b70 0000F03E 		.word	1055916032
 1820 0b74 0000F040 		.word	1089470464
 1821 0b78 0000703F 		.word	1064304640
 1822 0b7c 00007040 		.word	1081081856
 1823 0b80 00006040 		.word	1080033280
 1824              	.LVL342:
 1825              	.L167:
 423:C:/Users/geoma/Desktop/Scilab/toolboxes/STM32_toolbox_1-1/scicos_blocks/src/c\convert.c ****                 {
 424:C:/Users/geoma/Desktop/Scilab/toolboxes/STM32_toolbox_1-1/scicos_blocks/src/c\convert.c ****                     y[i] = (SCSREAL_COP) u[i];
 1826              		.loc 1 424 0 discriminator 3
 1827 0b84 06EBC405 		add	r5, r6, r4, lsl #3
 1828 0b88 57F82400 		ldr	r0, [r7, r4, lsl #2]
 1829 0b8c FFF7FEFF 		bl	__aeabi_ui2d
 1830              	.LVL343:
 1831 0b90 C5E90001 		strd	r0, [r5]
 422:C:/Users/geoma/Desktop/Scilab/toolboxes/STM32_toolbox_1-1/scicos_blocks/src/c\convert.c ****                 for (i = 0; i < m * n; i++)
 1832              		.loc 1 422 0 discriminator 3
 1833 0b94 0134     		adds	r4, r4, #1
 1834              	.LVL344:
 1835              	.L166:
 422:C:/Users/geoma/Desktop/Scilab/toolboxes/STM32_toolbox_1-1/scicos_blocks/src/c\convert.c ****                 for (i = 0; i < m * n; i++)
 1836              		.loc 1 422 0 is_stmt 0 discriminator 1
 1837 0b96 0AFB0BF3 		mul	r3, r10, fp
 1838 0b9a A342     		cmp	r3, r4
 1839 0b9c F2DC     		bgt	.L167
 1840 0b9e 01F05BB9 		b	.L1
 1841              	.LVL345:
 1842              	.L27:
 1843              	.LBE24:
 1844              	.LBB25:
 425:C:/Users/geoma/Desktop/Scilab/toolboxes/STM32_toolbox_1-1/scicos_blocks/src/c\convert.c ****                 }
 426:C:/Users/geoma/Desktop/Scilab/toolboxes/STM32_toolbox_1-1/scicos_blocks/src/c\convert.c ****                 break;
 427:C:/Users/geoma/Desktop/Scilab/toolboxes/STM32_toolbox_1-1/scicos_blocks/src/c\convert.c ****             }
 428:C:/Users/geoma/Desktop/Scilab/toolboxes/STM32_toolbox_1-1/scicos_blocks/src/c\convert.c ****             case 24:
 429:C:/Users/geoma/Desktop/Scilab/toolboxes/STM32_toolbox_1-1/scicos_blocks/src/c\convert.c ****             {
 430:C:/Users/geoma/Desktop/Scilab/toolboxes/STM32_toolbox_1-1/scicos_blocks/src/c\convert.c ****                 SCSUINT32_COP *u = NULL;
 431:C:/Users/geoma/Desktop/Scilab/toolboxes/STM32_toolbox_1-1/scicos_blocks/src/c\convert.c ****                 SCSINT16_COP *y = NULL;
 432:C:/Users/geoma/Desktop/Scilab/toolboxes/STM32_toolbox_1-1/scicos_blocks/src/c\convert.c ****                 u = Getuint32InPortPtrs(block, 1);
 1845              		.loc 1 432 0 is_stmt 1
 1846 0ba2 436C     		ldr	r3, [r0, #68]
 1847 0ba4 D3F80080 		ldr	r8, [r3]
 1848              	.LVL346:
 433:C:/Users/geoma/Desktop/Scilab/toolboxes/STM32_toolbox_1-1/scicos_blocks/src/c\convert.c ****                 y = Getint16OutPortPtrs(block, 1);
 1849              		.loc 1 433 0
 1850 0ba8 036D     		ldr	r3, [r0, #80]
 1851 0baa D3F80090 		ldr	r9, [r3]
 1852              	.LVL347:
 434:C:/Users/geoma/Desktop/Scilab/toolboxes/STM32_toolbox_1-1/scicos_blocks/src/c\convert.c ****                 k = pow(2, 16);
 435:C:/Users/geoma/Desktop/Scilab/toolboxes/STM32_toolbox_1-1/scicos_blocks/src/c\convert.c ****                 for (i = 0; i < m * n; i++)
 1853              		.loc 1 435 0
 1854 0bae 0026     		movs	r6, #0
 1855 0bb0 48E0     		b	.L168
 1856              	.LVL348:
 1857              	.L171:
 436:C:/Users/geoma/Desktop/Scilab/toolboxes/STM32_toolbox_1-1/scicos_blocks/src/c\convert.c ****                 {
 437:C:/Users/geoma/Desktop/Scilab/toolboxes/STM32_toolbox_1-1/scicos_blocks/src/c\convert.c ****                     v = (double)u[i];
ARM GAS  C:\Users\geoma\AppData\Local\Temp\ccpZNVPJ.s 			page 42


 1858              		.loc 1 437 0
 1859 0bb2 3746     		mov	r7, r6
 1860 0bb4 58F82600 		ldr	r0, [r8, r6, lsl #2]
 1861 0bb8 FFF7FEFF 		bl	__aeabi_ui2d
 1862              	.LVL349:
 1863 0bbc 0446     		mov	r4, r0
 1864 0bbe 0D46     		mov	r5, r1
 1865              	.LVL350:
 438:C:/Users/geoma/Desktop/Scilab/toolboxes/STM32_toolbox_1-1/scicos_blocks/src/c\convert.c ****                     w = v - (double)((int)(v / k)) * k;
 1866              		.loc 1 438 0
 1867 0bc0 0022     		movs	r2, #0
 1868 0bc2 C74B     		ldr	r3, .L534+16
 1869 0bc4 FFF7FEFF 		bl	__aeabi_dmul
 1870              	.LVL351:
 1871 0bc8 FFF7FEFF 		bl	__aeabi_d2iz
 1872              	.LVL352:
 1873 0bcc FFF7FEFF 		bl	__aeabi_i2d
 1874              	.LVL353:
 1875 0bd0 0022     		movs	r2, #0
 1876 0bd2 C44B     		ldr	r3, .L534+20
 1877 0bd4 FFF7FEFF 		bl	__aeabi_dmul
 1878              	.LVL354:
 1879 0bd8 0246     		mov	r2, r0
 1880 0bda 0B46     		mov	r3, r1
 1881 0bdc 2046     		mov	r0, r4
 1882 0bde 2946     		mov	r1, r5
 1883 0be0 FFF7FEFF 		bl	__aeabi_dsub
 1884              	.LVL355:
 1885 0be4 0446     		mov	r4, r0
 1886              	.LVL356:
 1887 0be6 0D46     		mov	r5, r1
 1888              	.LVL357:
 439:C:/Users/geoma/Desktop/Scilab/toolboxes/STM32_toolbox_1-1/scicos_blocks/src/c\convert.c ****                     if ((w) > k / 2 - 1)
 1889              		.loc 1 439 0
 1890 0be8 B9A3     		adr	r3, .L534
 1891 0bea D3E90023 		ldrd	r2, [r3]
 1892 0bee FFF7FEFF 		bl	__aeabi_dcmpgt
 1893              	.LVL358:
 1894 0bf2 00B3     		cbz	r0, .L169
 440:C:/Users/geoma/Desktop/Scilab/toolboxes/STM32_toolbox_1-1/scicos_blocks/src/c\convert.c ****                     {
 441:C:/Users/geoma/Desktop/Scilab/toolboxes/STM32_toolbox_1-1/scicos_blocks/src/c\convert.c ****                         w = (-k / 2 + fabs(w - (double)((int)(w / (k / 2))) * (k / 2)));
 1895              		.loc 1 441 0
 1896 0bf4 2046     		mov	r0, r4
 1897 0bf6 2946     		mov	r1, r5
 1898 0bf8 0022     		movs	r2, #0
 1899 0bfa 4FF07C53 		mov	r3, #1056964608
 1900 0bfe FFF7FEFF 		bl	__aeabi_dmul
 1901              	.LVL359:
 1902 0c02 FFF7FEFF 		bl	__aeabi_d2iz
 1903              	.LVL360:
 1904 0c06 FFF7FEFF 		bl	__aeabi_i2d
 1905              	.LVL361:
 1906 0c0a 0022     		movs	r2, #0
 1907 0c0c B64B     		ldr	r3, .L534+24
 1908 0c0e FFF7FEFF 		bl	__aeabi_dmul
 1909              	.LVL362:
 1910 0c12 0246     		mov	r2, r0
ARM GAS  C:\Users\geoma\AppData\Local\Temp\ccpZNVPJ.s 			page 43


 1911 0c14 0B46     		mov	r3, r1
 1912 0c16 2046     		mov	r0, r4
 1913 0c18 2946     		mov	r1, r5
 1914 0c1a FFF7FEFF 		bl	__aeabi_dsub
 1915              	.LVL363:
 1916 0c1e 0C90     		str	r0, [sp, #48]
 1917 0c20 21F00043 		bic	r3, r1, #-2147483648
 1918 0c24 0D93     		str	r3, [sp, #52]
 1919 0c26 DDE90C01 		ldrd	r0, [sp, #48]
 1920 0c2a 0022     		movs	r2, #0
 1921 0c2c AE4B     		ldr	r3, .L534+24
 1922 0c2e FFF7FEFF 		bl	__aeabi_dsub
 1923              	.LVL364:
 1924 0c32 0446     		mov	r4, r0
 1925              	.LVL365:
 1926 0c34 0D46     		mov	r5, r1
 1927              	.LVL366:
 1928              	.L169:
 442:C:/Users/geoma/Desktop/Scilab/toolboxes/STM32_toolbox_1-1/scicos_blocks/src/c\convert.c ****                     }
 443:C:/Users/geoma/Desktop/Scilab/toolboxes/STM32_toolbox_1-1/scicos_blocks/src/c\convert.c ****                     y[i] = (SCSINT16_COP)w;
 1929              		.loc 1 443 0 discriminator 2
 1930 0c36 2046     		mov	r0, r4
 1931 0c38 2946     		mov	r1, r5
 1932 0c3a FFF7FEFF 		bl	__aeabi_d2iz
 1933              	.LVL367:
 1934 0c3e 29F81700 		strh	r0, [r9, r7, lsl #1]	@ movhi
 435:C:/Users/geoma/Desktop/Scilab/toolboxes/STM32_toolbox_1-1/scicos_blocks/src/c\convert.c ****                 {
 1935              		.loc 1 435 0 discriminator 2
 1936 0c42 0136     		adds	r6, r6, #1
 1937              	.LVL368:
 1938              	.L168:
 435:C:/Users/geoma/Desktop/Scilab/toolboxes/STM32_toolbox_1-1/scicos_blocks/src/c\convert.c ****                 {
 1939              		.loc 1 435 0 is_stmt 0 discriminator 1
 1940 0c44 0AFB0BF3 		mul	r3, r10, fp
 1941 0c48 B342     		cmp	r3, r6
 1942 0c4a B2DC     		bgt	.L171
 1943 0c4c 01F004B9 		b	.L1
 1944              	.LVL369:
 1945              	.L28:
 1946              	.LBE25:
 1947              	.LBB26:
 444:C:/Users/geoma/Desktop/Scilab/toolboxes/STM32_toolbox_1-1/scicos_blocks/src/c\convert.c ****                 }
 445:C:/Users/geoma/Desktop/Scilab/toolboxes/STM32_toolbox_1-1/scicos_blocks/src/c\convert.c ****                 break;
 446:C:/Users/geoma/Desktop/Scilab/toolboxes/STM32_toolbox_1-1/scicos_blocks/src/c\convert.c ****             }
 447:C:/Users/geoma/Desktop/Scilab/toolboxes/STM32_toolbox_1-1/scicos_blocks/src/c\convert.c ****             case 25:
 448:C:/Users/geoma/Desktop/Scilab/toolboxes/STM32_toolbox_1-1/scicos_blocks/src/c\convert.c ****             {
 449:C:/Users/geoma/Desktop/Scilab/toolboxes/STM32_toolbox_1-1/scicos_blocks/src/c\convert.c ****                 SCSUINT32_COP *u = NULL;
 450:C:/Users/geoma/Desktop/Scilab/toolboxes/STM32_toolbox_1-1/scicos_blocks/src/c\convert.c ****                 SCSINT8_COP *y = NULL;
 451:C:/Users/geoma/Desktop/Scilab/toolboxes/STM32_toolbox_1-1/scicos_blocks/src/c\convert.c ****                 u = Getuint32InPortPtrs(block, 1);
 1948              		.loc 1 451 0 is_stmt 1
 1949 0c50 436C     		ldr	r3, [r0, #68]
 1950 0c52 D3F80080 		ldr	r8, [r3]
 1951              	.LVL370:
 452:C:/Users/geoma/Desktop/Scilab/toolboxes/STM32_toolbox_1-1/scicos_blocks/src/c\convert.c ****                 y = Getint8OutPortPtrs(block, 1);
 1952              		.loc 1 452 0
 1953 0c56 036D     		ldr	r3, [r0, #80]
 1954 0c58 D3F80090 		ldr	r9, [r3]
ARM GAS  C:\Users\geoma\AppData\Local\Temp\ccpZNVPJ.s 			page 44


 1955              	.LVL371:
 453:C:/Users/geoma/Desktop/Scilab/toolboxes/STM32_toolbox_1-1/scicos_blocks/src/c\convert.c ****                 k = pow(2, 8);
 454:C:/Users/geoma/Desktop/Scilab/toolboxes/STM32_toolbox_1-1/scicos_blocks/src/c\convert.c ****                 for (i = 0; i < m * n; i++)
 1956              		.loc 1 454 0
 1957 0c5c 0026     		movs	r6, #0
 1958 0c5e 48E0     		b	.L172
 1959              	.LVL372:
 1960              	.L175:
 455:C:/Users/geoma/Desktop/Scilab/toolboxes/STM32_toolbox_1-1/scicos_blocks/src/c\convert.c ****                 {
 456:C:/Users/geoma/Desktop/Scilab/toolboxes/STM32_toolbox_1-1/scicos_blocks/src/c\convert.c ****                     v = (double)u[i];
 1961              		.loc 1 456 0
 1962 0c60 3746     		mov	r7, r6
 1963 0c62 58F82600 		ldr	r0, [r8, r6, lsl #2]
 1964 0c66 FFF7FEFF 		bl	__aeabi_ui2d
 1965              	.LVL373:
 1966 0c6a 0446     		mov	r4, r0
 1967 0c6c 0D46     		mov	r5, r1
 1968              	.LVL374:
 457:C:/Users/geoma/Desktop/Scilab/toolboxes/STM32_toolbox_1-1/scicos_blocks/src/c\convert.c ****                     w = v - (double)((int)(v / k)) * k;
 1969              		.loc 1 457 0
 1970 0c6e 0022     		movs	r2, #0
 1971 0c70 9E4B     		ldr	r3, .L534+28
 1972 0c72 FFF7FEFF 		bl	__aeabi_dmul
 1973              	.LVL375:
 1974 0c76 FFF7FEFF 		bl	__aeabi_d2iz
 1975              	.LVL376:
 1976 0c7a FFF7FEFF 		bl	__aeabi_i2d
 1977              	.LVL377:
 1978 0c7e 0022     		movs	r2, #0
 1979 0c80 9B4B     		ldr	r3, .L534+32
 1980 0c82 FFF7FEFF 		bl	__aeabi_dmul
 1981              	.LVL378:
 1982 0c86 0246     		mov	r2, r0
 1983 0c88 0B46     		mov	r3, r1
 1984 0c8a 2046     		mov	r0, r4
 1985 0c8c 2946     		mov	r1, r5
 1986 0c8e FFF7FEFF 		bl	__aeabi_dsub
 1987              	.LVL379:
 1988 0c92 0446     		mov	r4, r0
 1989              	.LVL380:
 1990 0c94 0D46     		mov	r5, r1
 1991              	.LVL381:
 458:C:/Users/geoma/Desktop/Scilab/toolboxes/STM32_toolbox_1-1/scicos_blocks/src/c\convert.c ****                     if ((w) > k / 2 - 1)
 1992              		.loc 1 458 0
 1993 0c96 90A3     		adr	r3, .L534+8
 1994 0c98 D3E90023 		ldrd	r2, [r3]
 1995 0c9c FFF7FEFF 		bl	__aeabi_dcmpgt
 1996              	.LVL382:
 1997 0ca0 00B3     		cbz	r0, .L173
 459:C:/Users/geoma/Desktop/Scilab/toolboxes/STM32_toolbox_1-1/scicos_blocks/src/c\convert.c ****                     {
 460:C:/Users/geoma/Desktop/Scilab/toolboxes/STM32_toolbox_1-1/scicos_blocks/src/c\convert.c ****                         w = (-k / 2 + fabs(w - (double)((int)(w / (k / 2))) * (k / 2)));
 1998              		.loc 1 460 0
 1999 0ca2 2046     		mov	r0, r4
 2000 0ca4 2946     		mov	r1, r5
 2001 0ca6 0022     		movs	r2, #0
 2002 0ca8 4FF07E53 		mov	r3, #1065353216
 2003 0cac FFF7FEFF 		bl	__aeabi_dmul
ARM GAS  C:\Users\geoma\AppData\Local\Temp\ccpZNVPJ.s 			page 45


 2004              	.LVL383:
 2005 0cb0 FFF7FEFF 		bl	__aeabi_d2iz
 2006              	.LVL384:
 2007 0cb4 FFF7FEFF 		bl	__aeabi_i2d
 2008              	.LVL385:
 2009 0cb8 0022     		movs	r2, #0
 2010 0cba 8E4B     		ldr	r3, .L534+36
 2011 0cbc FFF7FEFF 		bl	__aeabi_dmul
 2012              	.LVL386:
 2013 0cc0 0246     		mov	r2, r0
 2014 0cc2 0B46     		mov	r3, r1
 2015 0cc4 2046     		mov	r0, r4
 2016 0cc6 2946     		mov	r1, r5
 2017 0cc8 FFF7FEFF 		bl	__aeabi_dsub
 2018              	.LVL387:
 2019 0ccc 0E90     		str	r0, [sp, #56]
 2020 0cce 21F00043 		bic	r3, r1, #-2147483648
 2021 0cd2 0F93     		str	r3, [sp, #60]
 2022 0cd4 DDE90E01 		ldrd	r0, [sp, #56]
 2023 0cd8 0022     		movs	r2, #0
 2024 0cda 864B     		ldr	r3, .L534+36
 2025 0cdc FFF7FEFF 		bl	__aeabi_dsub
 2026              	.LVL388:
 2027 0ce0 0446     		mov	r4, r0
 2028              	.LVL389:
 2029 0ce2 0D46     		mov	r5, r1
 2030              	.LVL390:
 2031              	.L173:
 461:C:/Users/geoma/Desktop/Scilab/toolboxes/STM32_toolbox_1-1/scicos_blocks/src/c\convert.c ****                     }
 462:C:/Users/geoma/Desktop/Scilab/toolboxes/STM32_toolbox_1-1/scicos_blocks/src/c\convert.c ****                     y[i] = (SCSINT8_COP)w;
 2032              		.loc 1 462 0 discriminator 2
 2033 0ce4 2046     		mov	r0, r4
 2034 0ce6 2946     		mov	r1, r5
 2035 0ce8 FFF7FEFF 		bl	__aeabi_d2uiz
 2036              	.LVL391:
 2037 0cec 09F80700 		strb	r0, [r9, r7]
 454:C:/Users/geoma/Desktop/Scilab/toolboxes/STM32_toolbox_1-1/scicos_blocks/src/c\convert.c ****                 {
 2038              		.loc 1 454 0 discriminator 2
 2039 0cf0 0136     		adds	r6, r6, #1
 2040              	.LVL392:
 2041              	.L172:
 454:C:/Users/geoma/Desktop/Scilab/toolboxes/STM32_toolbox_1-1/scicos_blocks/src/c\convert.c ****                 {
 2042              		.loc 1 454 0 is_stmt 0 discriminator 1
 2043 0cf2 0AFB0BF3 		mul	r3, r10, fp
 2044 0cf6 B342     		cmp	r3, r6
 2045 0cf8 B2DC     		bgt	.L175
 2046 0cfa 01F0ADB8 		b	.L1
 2047              	.LVL393:
 2048              	.L29:
 2049              	.LBE26:
 2050              	.LBB27:
 463:C:/Users/geoma/Desktop/Scilab/toolboxes/STM32_toolbox_1-1/scicos_blocks/src/c\convert.c ****                 }
 464:C:/Users/geoma/Desktop/Scilab/toolboxes/STM32_toolbox_1-1/scicos_blocks/src/c\convert.c ****                 break;
 465:C:/Users/geoma/Desktop/Scilab/toolboxes/STM32_toolbox_1-1/scicos_blocks/src/c\convert.c ****             }
 466:C:/Users/geoma/Desktop/Scilab/toolboxes/STM32_toolbox_1-1/scicos_blocks/src/c\convert.c ****             case 26:
 467:C:/Users/geoma/Desktop/Scilab/toolboxes/STM32_toolbox_1-1/scicos_blocks/src/c\convert.c ****             {
 468:C:/Users/geoma/Desktop/Scilab/toolboxes/STM32_toolbox_1-1/scicos_blocks/src/c\convert.c ****                 SCSUINT32_COP *u = NULL;
ARM GAS  C:\Users\geoma\AppData\Local\Temp\ccpZNVPJ.s 			page 46


 469:C:/Users/geoma/Desktop/Scilab/toolboxes/STM32_toolbox_1-1/scicos_blocks/src/c\convert.c ****                 SCSUINT16_COP *y = NULL;
 470:C:/Users/geoma/Desktop/Scilab/toolboxes/STM32_toolbox_1-1/scicos_blocks/src/c\convert.c ****                 u = Getuint32InPortPtrs(block, 1);
 2051              		.loc 1 470 0 is_stmt 1
 2052 0cfe 436C     		ldr	r3, [r0, #68]
 2053 0d00 1F68     		ldr	r7, [r3]
 2054              	.LVL394:
 471:C:/Users/geoma/Desktop/Scilab/toolboxes/STM32_toolbox_1-1/scicos_blocks/src/c\convert.c ****                 y = Getuint16OutPortPtrs(block, 1);
 2055              		.loc 1 471 0
 2056 0d02 036D     		ldr	r3, [r0, #80]
 2057 0d04 D3F80080 		ldr	r8, [r3]
 2058              	.LVL395:
 472:C:/Users/geoma/Desktop/Scilab/toolboxes/STM32_toolbox_1-1/scicos_blocks/src/c\convert.c ****                 k = pow(2, 16);
 473:C:/Users/geoma/Desktop/Scilab/toolboxes/STM32_toolbox_1-1/scicos_blocks/src/c\convert.c ****                 for (i = 0; i < m * n; i++)
 2059              		.loc 1 473 0
 2060 0d08 0026     		movs	r6, #0
 2061 0d0a 1CE0     		b	.L176
 2062              	.LVL396:
 2063              	.L177:
 474:C:/Users/geoma/Desktop/Scilab/toolboxes/STM32_toolbox_1-1/scicos_blocks/src/c\convert.c ****                 {
 475:C:/Users/geoma/Desktop/Scilab/toolboxes/STM32_toolbox_1-1/scicos_blocks/src/c\convert.c ****                     v = (double)u[i];
 2064              		.loc 1 475 0 discriminator 3
 2065 0d0c 57F82600 		ldr	r0, [r7, r6, lsl #2]
 2066 0d10 FFF7FEFF 		bl	__aeabi_ui2d
 2067              	.LVL397:
 2068 0d14 0446     		mov	r4, r0
 2069 0d16 0D46     		mov	r5, r1
 2070              	.LVL398:
 476:C:/Users/geoma/Desktop/Scilab/toolboxes/STM32_toolbox_1-1/scicos_blocks/src/c\convert.c ****                     w = v - (double)((int)(v / k)) * k;
 2071              		.loc 1 476 0 discriminator 3
 2072 0d18 0022     		movs	r2, #0
 2073 0d1a 714B     		ldr	r3, .L534+16
 2074 0d1c FFF7FEFF 		bl	__aeabi_dmul
 2075              	.LVL399:
 2076 0d20 FFF7FEFF 		bl	__aeabi_d2iz
 2077              	.LVL400:
 2078 0d24 FFF7FEFF 		bl	__aeabi_i2d
 2079              	.LVL401:
 2080 0d28 0022     		movs	r2, #0
 2081 0d2a 6E4B     		ldr	r3, .L534+20
 2082 0d2c FFF7FEFF 		bl	__aeabi_dmul
 2083              	.LVL402:
 2084 0d30 0246     		mov	r2, r0
 2085 0d32 0B46     		mov	r3, r1
 2086 0d34 2046     		mov	r0, r4
 2087 0d36 2946     		mov	r1, r5
 2088 0d38 FFF7FEFF 		bl	__aeabi_dsub
 2089              	.LVL403:
 477:C:/Users/geoma/Desktop/Scilab/toolboxes/STM32_toolbox_1-1/scicos_blocks/src/c\convert.c ****                     y[i] = (SCSUINT16_COP)w;
 2090              		.loc 1 477 0 discriminator 3
 2091 0d3c FFF7FEFF 		bl	__aeabi_d2uiz
 2092              	.LVL404:
 2093 0d40 28F81600 		strh	r0, [r8, r6, lsl #1]	@ movhi
 473:C:/Users/geoma/Desktop/Scilab/toolboxes/STM32_toolbox_1-1/scicos_blocks/src/c\convert.c ****                 {
 2094              		.loc 1 473 0 discriminator 3
 2095 0d44 0136     		adds	r6, r6, #1
 2096              	.LVL405:
 2097              	.L176:
ARM GAS  C:\Users\geoma\AppData\Local\Temp\ccpZNVPJ.s 			page 47


 473:C:/Users/geoma/Desktop/Scilab/toolboxes/STM32_toolbox_1-1/scicos_blocks/src/c\convert.c ****                 {
 2098              		.loc 1 473 0 is_stmt 0 discriminator 1
 2099 0d46 0AFB0BF3 		mul	r3, r10, fp
 2100 0d4a B342     		cmp	r3, r6
 2101 0d4c DEDC     		bgt	.L177
 2102 0d4e 01F083B8 		b	.L1
 2103              	.LVL406:
 2104              	.L30:
 2105              	.LBE27:
 2106              	.LBB28:
 478:C:/Users/geoma/Desktop/Scilab/toolboxes/STM32_toolbox_1-1/scicos_blocks/src/c\convert.c ****                 }
 479:C:/Users/geoma/Desktop/Scilab/toolboxes/STM32_toolbox_1-1/scicos_blocks/src/c\convert.c ****                 break;
 480:C:/Users/geoma/Desktop/Scilab/toolboxes/STM32_toolbox_1-1/scicos_blocks/src/c\convert.c ****             }
 481:C:/Users/geoma/Desktop/Scilab/toolboxes/STM32_toolbox_1-1/scicos_blocks/src/c\convert.c ****             case 27:
 482:C:/Users/geoma/Desktop/Scilab/toolboxes/STM32_toolbox_1-1/scicos_blocks/src/c\convert.c ****             {
 483:C:/Users/geoma/Desktop/Scilab/toolboxes/STM32_toolbox_1-1/scicos_blocks/src/c\convert.c ****                 SCSUINT32_COP *u = NULL;
 484:C:/Users/geoma/Desktop/Scilab/toolboxes/STM32_toolbox_1-1/scicos_blocks/src/c\convert.c ****                 SCSUINT8_COP *y = NULL;
 485:C:/Users/geoma/Desktop/Scilab/toolboxes/STM32_toolbox_1-1/scicos_blocks/src/c\convert.c ****                 u = Getuint32InPortPtrs(block, 1);
 2107              		.loc 1 485 0 is_stmt 1
 2108 0d52 436C     		ldr	r3, [r0, #68]
 2109 0d54 1F68     		ldr	r7, [r3]
 2110              	.LVL407:
 486:C:/Users/geoma/Desktop/Scilab/toolboxes/STM32_toolbox_1-1/scicos_blocks/src/c\convert.c ****                 y = Getuint8OutPortPtrs(block, 1);
 2111              		.loc 1 486 0
 2112 0d56 036D     		ldr	r3, [r0, #80]
 2113 0d58 D3F80080 		ldr	r8, [r3]
 2114              	.LVL408:
 487:C:/Users/geoma/Desktop/Scilab/toolboxes/STM32_toolbox_1-1/scicos_blocks/src/c\convert.c ****                 k = pow(2, 8);
 488:C:/Users/geoma/Desktop/Scilab/toolboxes/STM32_toolbox_1-1/scicos_blocks/src/c\convert.c ****                 for (i = 0; i < m * n; i++)
 2115              		.loc 1 488 0
 2116 0d5c 0026     		movs	r6, #0
 2117 0d5e 1CE0     		b	.L178
 2118              	.LVL409:
 2119              	.L179:
 489:C:/Users/geoma/Desktop/Scilab/toolboxes/STM32_toolbox_1-1/scicos_blocks/src/c\convert.c ****                 {
 490:C:/Users/geoma/Desktop/Scilab/toolboxes/STM32_toolbox_1-1/scicos_blocks/src/c\convert.c ****                     v = (double)u[i];
 2120              		.loc 1 490 0 discriminator 3
 2121 0d60 57F82600 		ldr	r0, [r7, r6, lsl #2]
 2122 0d64 FFF7FEFF 		bl	__aeabi_ui2d
 2123              	.LVL410:
 2124 0d68 0446     		mov	r4, r0
 2125 0d6a 0D46     		mov	r5, r1
 2126              	.LVL411:
 491:C:/Users/geoma/Desktop/Scilab/toolboxes/STM32_toolbox_1-1/scicos_blocks/src/c\convert.c ****                     w = v - (double)((int)(v / k)) * k;
 2127              		.loc 1 491 0 discriminator 3
 2128 0d6c 0022     		movs	r2, #0
 2129 0d6e 5F4B     		ldr	r3, .L534+28
 2130 0d70 FFF7FEFF 		bl	__aeabi_dmul
 2131              	.LVL412:
 2132 0d74 FFF7FEFF 		bl	__aeabi_d2iz
 2133              	.LVL413:
 2134 0d78 FFF7FEFF 		bl	__aeabi_i2d
 2135              	.LVL414:
 2136 0d7c 0022     		movs	r2, #0
 2137 0d7e 5C4B     		ldr	r3, .L534+32
 2138 0d80 FFF7FEFF 		bl	__aeabi_dmul
 2139              	.LVL415:
ARM GAS  C:\Users\geoma\AppData\Local\Temp\ccpZNVPJ.s 			page 48


 2140 0d84 0246     		mov	r2, r0
 2141 0d86 0B46     		mov	r3, r1
 2142 0d88 2046     		mov	r0, r4
 2143 0d8a 2946     		mov	r1, r5
 2144 0d8c FFF7FEFF 		bl	__aeabi_dsub
 2145              	.LVL416:
 492:C:/Users/geoma/Desktop/Scilab/toolboxes/STM32_toolbox_1-1/scicos_blocks/src/c\convert.c ****                     y[i] = (SCSUINT8_COP)w;
 2146              		.loc 1 492 0 discriminator 3
 2147 0d90 FFF7FEFF 		bl	__aeabi_d2uiz
 2148              	.LVL417:
 2149 0d94 08F80600 		strb	r0, [r8, r6]
 488:C:/Users/geoma/Desktop/Scilab/toolboxes/STM32_toolbox_1-1/scicos_blocks/src/c\convert.c ****                 {
 2150              		.loc 1 488 0 discriminator 3
 2151 0d98 0136     		adds	r6, r6, #1
 2152              	.LVL418:
 2153              	.L178:
 488:C:/Users/geoma/Desktop/Scilab/toolboxes/STM32_toolbox_1-1/scicos_blocks/src/c\convert.c ****                 {
 2154              		.loc 1 488 0 is_stmt 0 discriminator 1
 2155 0d9a 0AFB0BF3 		mul	r3, r10, fp
 2156 0d9e B342     		cmp	r3, r6
 2157 0da0 DEDC     		bgt	.L179
 2158 0da2 01F059B8 		b	.L1
 2159              	.LVL419:
 2160              	.L31:
 2161              	.LBE28:
 2162              	.LBB29:
 493:C:/Users/geoma/Desktop/Scilab/toolboxes/STM32_toolbox_1-1/scicos_blocks/src/c\convert.c ****                 }
 494:C:/Users/geoma/Desktop/Scilab/toolboxes/STM32_toolbox_1-1/scicos_blocks/src/c\convert.c ****                 break;
 495:C:/Users/geoma/Desktop/Scilab/toolboxes/STM32_toolbox_1-1/scicos_blocks/src/c\convert.c ****             }
 496:C:/Users/geoma/Desktop/Scilab/toolboxes/STM32_toolbox_1-1/scicos_blocks/src/c\convert.c ****             case 28:
 497:C:/Users/geoma/Desktop/Scilab/toolboxes/STM32_toolbox_1-1/scicos_blocks/src/c\convert.c ****             {
 498:C:/Users/geoma/Desktop/Scilab/toolboxes/STM32_toolbox_1-1/scicos_blocks/src/c\convert.c ****                 SCSUINT16_COP *u = NULL;
 499:C:/Users/geoma/Desktop/Scilab/toolboxes/STM32_toolbox_1-1/scicos_blocks/src/c\convert.c ****                 SCSREAL_COP *y = NULL;
 500:C:/Users/geoma/Desktop/Scilab/toolboxes/STM32_toolbox_1-1/scicos_blocks/src/c\convert.c ****                 u = Getuint16InPortPtrs(block, 1);
 2163              		.loc 1 500 0 is_stmt 1
 2164 0da6 436C     		ldr	r3, [r0, #68]
 2165 0da8 1F68     		ldr	r7, [r3]
 2166              	.LVL420:
 501:C:/Users/geoma/Desktop/Scilab/toolboxes/STM32_toolbox_1-1/scicos_blocks/src/c\convert.c ****                 y = GetRealOutPortPtrs(block, 1);
 2167              		.loc 1 501 0
 2168 0daa 036D     		ldr	r3, [r0, #80]
 2169 0dac 1E68     		ldr	r6, [r3]
 2170              	.LVL421:
 502:C:/Users/geoma/Desktop/Scilab/toolboxes/STM32_toolbox_1-1/scicos_blocks/src/c\convert.c ****                 for (i = 0; i < m * n; i++)
 2171              		.loc 1 502 0
 2172 0dae 0024     		movs	r4, #0
 2173              	.LVL422:
 2174 0db0 08E0     		b	.L180
 2175              	.LVL423:
 2176              	.L181:
 503:C:/Users/geoma/Desktop/Scilab/toolboxes/STM32_toolbox_1-1/scicos_blocks/src/c\convert.c ****                 {
 504:C:/Users/geoma/Desktop/Scilab/toolboxes/STM32_toolbox_1-1/scicos_blocks/src/c\convert.c ****                     y[i] = (SCSREAL_COP) u[i];
 2177              		.loc 1 504 0 discriminator 3
 2178 0db2 06EBC405 		add	r5, r6, r4, lsl #3
 2179 0db6 37F81400 		ldrh	r0, [r7, r4, lsl #1]
 2180 0dba FFF7FEFF 		bl	__aeabi_ui2d
 2181              	.LVL424:
ARM GAS  C:\Users\geoma\AppData\Local\Temp\ccpZNVPJ.s 			page 49


 2182 0dbe C5E90001 		strd	r0, [r5]
 502:C:/Users/geoma/Desktop/Scilab/toolboxes/STM32_toolbox_1-1/scicos_blocks/src/c\convert.c ****                 for (i = 0; i < m * n; i++)
 2183              		.loc 1 502 0 discriminator 3
 2184 0dc2 0134     		adds	r4, r4, #1
 2185              	.LVL425:
 2186              	.L180:
 502:C:/Users/geoma/Desktop/Scilab/toolboxes/STM32_toolbox_1-1/scicos_blocks/src/c\convert.c ****                 for (i = 0; i < m * n; i++)
 2187              		.loc 1 502 0 is_stmt 0 discriminator 1
 2188 0dc4 0AFB0BF3 		mul	r3, r10, fp
 2189 0dc8 A342     		cmp	r3, r4
 2190 0dca F2DC     		bgt	.L181
 2191 0dcc 01F044B8 		b	.L1
 2192              	.LVL426:
 2193              	.L32:
 2194              	.LBE29:
 2195              	.LBB30:
 505:C:/Users/geoma/Desktop/Scilab/toolboxes/STM32_toolbox_1-1/scicos_blocks/src/c\convert.c ****                 }
 506:C:/Users/geoma/Desktop/Scilab/toolboxes/STM32_toolbox_1-1/scicos_blocks/src/c\convert.c ****                 break;
 507:C:/Users/geoma/Desktop/Scilab/toolboxes/STM32_toolbox_1-1/scicos_blocks/src/c\convert.c ****             }
 508:C:/Users/geoma/Desktop/Scilab/toolboxes/STM32_toolbox_1-1/scicos_blocks/src/c\convert.c ****             case 29:
 509:C:/Users/geoma/Desktop/Scilab/toolboxes/STM32_toolbox_1-1/scicos_blocks/src/c\convert.c ****             {
 510:C:/Users/geoma/Desktop/Scilab/toolboxes/STM32_toolbox_1-1/scicos_blocks/src/c\convert.c ****                 SCSUINT16_COP *u = NULL;
 511:C:/Users/geoma/Desktop/Scilab/toolboxes/STM32_toolbox_1-1/scicos_blocks/src/c\convert.c ****                 SCSINT32_COP *y = NULL;
 512:C:/Users/geoma/Desktop/Scilab/toolboxes/STM32_toolbox_1-1/scicos_blocks/src/c\convert.c ****                 u = Getuint16InPortPtrs(block, 1);
 2196              		.loc 1 512 0 is_stmt 1
 2197 0dd0 436C     		ldr	r3, [r0, #68]
 2198 0dd2 1C68     		ldr	r4, [r3]
 2199              	.LVL427:
 513:C:/Users/geoma/Desktop/Scilab/toolboxes/STM32_toolbox_1-1/scicos_blocks/src/c\convert.c ****                 y = Getint32OutPortPtrs(block, 1);
 2200              		.loc 1 513 0
 2201 0dd4 036D     		ldr	r3, [r0, #80]
 2202 0dd6 1968     		ldr	r1, [r3]
 2203              	.LVL428:
 514:C:/Users/geoma/Desktop/Scilab/toolboxes/STM32_toolbox_1-1/scicos_blocks/src/c\convert.c ****                 for (i = 0; i < m * n; i++)
 2204              		.loc 1 514 0
 2205 0dd8 0023     		movs	r3, #0
 2206 0dda 04E0     		b	.L182
 2207              	.LVL429:
 2208              	.L183:
 515:C:/Users/geoma/Desktop/Scilab/toolboxes/STM32_toolbox_1-1/scicos_blocks/src/c\convert.c ****                 {
 516:C:/Users/geoma/Desktop/Scilab/toolboxes/STM32_toolbox_1-1/scicos_blocks/src/c\convert.c ****                     y[i] = (SCSINT32_COP)u[i];
 2209              		.loc 1 516 0 discriminator 3
 2210 0ddc 34F81320 		ldrh	r2, [r4, r3, lsl #1]
 2211 0de0 41F82320 		str	r2, [r1, r3, lsl #2]
 514:C:/Users/geoma/Desktop/Scilab/toolboxes/STM32_toolbox_1-1/scicos_blocks/src/c\convert.c ****                 for (i = 0; i < m * n; i++)
 2212              		.loc 1 514 0 discriminator 3
 2213 0de4 0133     		adds	r3, r3, #1
 2214              	.LVL430:
 2215              	.L182:
 514:C:/Users/geoma/Desktop/Scilab/toolboxes/STM32_toolbox_1-1/scicos_blocks/src/c\convert.c ****                 for (i = 0; i < m * n; i++)
 2216              		.loc 1 514 0 is_stmt 0 discriminator 1
 2217 0de6 0AFB0BF2 		mul	r2, r10, fp
 2218 0dea 9A42     		cmp	r2, r3
 2219 0dec F6DC     		bgt	.L183
 2220 0dee 01F033B8 		b	.L1
 2221              	.LVL431:
 2222              	.L33:
ARM GAS  C:\Users\geoma\AppData\Local\Temp\ccpZNVPJ.s 			page 50


 2223              	.LBE30:
 2224              	.LBB31:
 517:C:/Users/geoma/Desktop/Scilab/toolboxes/STM32_toolbox_1-1/scicos_blocks/src/c\convert.c ****                 }
 518:C:/Users/geoma/Desktop/Scilab/toolboxes/STM32_toolbox_1-1/scicos_blocks/src/c\convert.c ****                 break;
 519:C:/Users/geoma/Desktop/Scilab/toolboxes/STM32_toolbox_1-1/scicos_blocks/src/c\convert.c ****             }
 520:C:/Users/geoma/Desktop/Scilab/toolboxes/STM32_toolbox_1-1/scicos_blocks/src/c\convert.c ****             case 30:
 521:C:/Users/geoma/Desktop/Scilab/toolboxes/STM32_toolbox_1-1/scicos_blocks/src/c\convert.c ****             {
 522:C:/Users/geoma/Desktop/Scilab/toolboxes/STM32_toolbox_1-1/scicos_blocks/src/c\convert.c ****                 SCSUINT16_COP *u = NULL;
 523:C:/Users/geoma/Desktop/Scilab/toolboxes/STM32_toolbox_1-1/scicos_blocks/src/c\convert.c ****                 SCSINT8_COP *y = NULL;
 524:C:/Users/geoma/Desktop/Scilab/toolboxes/STM32_toolbox_1-1/scicos_blocks/src/c\convert.c ****                 u = Getuint16InPortPtrs(block, 1);
 2225              		.loc 1 524 0 is_stmt 1
 2226 0df2 436C     		ldr	r3, [r0, #68]
 2227 0df4 D3F80080 		ldr	r8, [r3]
 2228              	.LVL432:
 525:C:/Users/geoma/Desktop/Scilab/toolboxes/STM32_toolbox_1-1/scicos_blocks/src/c\convert.c ****                 y = Getint8OutPortPtrs(block, 1);
 2229              		.loc 1 525 0
 2230 0df8 036D     		ldr	r3, [r0, #80]
 2231 0dfa D3F80090 		ldr	r9, [r3]
 2232              	.LVL433:
 526:C:/Users/geoma/Desktop/Scilab/toolboxes/STM32_toolbox_1-1/scicos_blocks/src/c\convert.c ****                 k = pow(2, 8);
 527:C:/Users/geoma/Desktop/Scilab/toolboxes/STM32_toolbox_1-1/scicos_blocks/src/c\convert.c ****                 for (i = 0; i < m * n; i++)
 2233              		.loc 1 527 0
 2234 0dfe 0026     		movs	r6, #0
 2235 0e00 48E0     		b	.L184
 2236              	.LVL434:
 2237              	.L187:
 528:C:/Users/geoma/Desktop/Scilab/toolboxes/STM32_toolbox_1-1/scicos_blocks/src/c\convert.c ****                 {
 529:C:/Users/geoma/Desktop/Scilab/toolboxes/STM32_toolbox_1-1/scicos_blocks/src/c\convert.c ****                     v = (double)u[i];
 2238              		.loc 1 529 0
 2239 0e02 3746     		mov	r7, r6
 2240 0e04 38F81600 		ldrh	r0, [r8, r6, lsl #1]
 2241 0e08 FFF7FEFF 		bl	__aeabi_ui2d
 2242              	.LVL435:
 2243 0e0c 0446     		mov	r4, r0
 2244 0e0e 0D46     		mov	r5, r1
 2245              	.LVL436:
 530:C:/Users/geoma/Desktop/Scilab/toolboxes/STM32_toolbox_1-1/scicos_blocks/src/c\convert.c ****                     w = v - (double)((int)(v / k)) * k;
 2246              		.loc 1 530 0
 2247 0e10 0022     		movs	r2, #0
 2248 0e12 364B     		ldr	r3, .L534+28
 2249 0e14 FFF7FEFF 		bl	__aeabi_dmul
 2250              	.LVL437:
 2251 0e18 FFF7FEFF 		bl	__aeabi_d2iz
 2252              	.LVL438:
 2253 0e1c FFF7FEFF 		bl	__aeabi_i2d
 2254              	.LVL439:
 2255 0e20 0022     		movs	r2, #0
 2256 0e22 334B     		ldr	r3, .L534+32
 2257 0e24 FFF7FEFF 		bl	__aeabi_dmul
 2258              	.LVL440:
 2259 0e28 0246     		mov	r2, r0
 2260 0e2a 0B46     		mov	r3, r1
 2261 0e2c 2046     		mov	r0, r4
 2262 0e2e 2946     		mov	r1, r5
 2263 0e30 FFF7FEFF 		bl	__aeabi_dsub
 2264              	.LVL441:
 2265 0e34 0446     		mov	r4, r0
ARM GAS  C:\Users\geoma\AppData\Local\Temp\ccpZNVPJ.s 			page 51


 2266              	.LVL442:
 2267 0e36 0D46     		mov	r5, r1
 2268              	.LVL443:
 531:C:/Users/geoma/Desktop/Scilab/toolboxes/STM32_toolbox_1-1/scicos_blocks/src/c\convert.c ****                     if (w > k / 2 - 1)
 2269              		.loc 1 531 0
 2270 0e38 27A3     		adr	r3, .L534+8
 2271 0e3a D3E90023 		ldrd	r2, [r3]
 2272 0e3e FFF7FEFF 		bl	__aeabi_dcmpgt
 2273              	.LVL444:
 2274 0e42 00B3     		cbz	r0, .L185
 532:C:/Users/geoma/Desktop/Scilab/toolboxes/STM32_toolbox_1-1/scicos_blocks/src/c\convert.c ****                     {
 533:C:/Users/geoma/Desktop/Scilab/toolboxes/STM32_toolbox_1-1/scicos_blocks/src/c\convert.c ****                         w = (-k / 2 + fabs(w - (double)((int)(w / (k / 2))) * (k / 2)));
 2275              		.loc 1 533 0
 2276 0e44 2046     		mov	r0, r4
 2277 0e46 2946     		mov	r1, r5
 2278 0e48 0022     		movs	r2, #0
 2279 0e4a 4FF07E53 		mov	r3, #1065353216
 2280 0e4e FFF7FEFF 		bl	__aeabi_dmul
 2281              	.LVL445:
 2282 0e52 FFF7FEFF 		bl	__aeabi_d2iz
 2283              	.LVL446:
 2284 0e56 FFF7FEFF 		bl	__aeabi_i2d
 2285              	.LVL447:
 2286 0e5a 0022     		movs	r2, #0
 2287 0e5c 254B     		ldr	r3, .L534+36
 2288 0e5e FFF7FEFF 		bl	__aeabi_dmul
 2289              	.LVL448:
 2290 0e62 0246     		mov	r2, r0
 2291 0e64 0B46     		mov	r3, r1
 2292 0e66 2046     		mov	r0, r4
 2293 0e68 2946     		mov	r1, r5
 2294 0e6a FFF7FEFF 		bl	__aeabi_dsub
 2295              	.LVL449:
 2296 0e6e 1090     		str	r0, [sp, #64]
 2297 0e70 21F00043 		bic	r3, r1, #-2147483648
 2298 0e74 1193     		str	r3, [sp, #68]
 2299 0e76 DDE91001 		ldrd	r0, [sp, #64]
 2300 0e7a 0022     		movs	r2, #0
 2301 0e7c 1D4B     		ldr	r3, .L534+36
 2302 0e7e FFF7FEFF 		bl	__aeabi_dsub
 2303              	.LVL450:
 2304 0e82 0446     		mov	r4, r0
 2305              	.LVL451:
 2306 0e84 0D46     		mov	r5, r1
 2307              	.LVL452:
 2308              	.L185:
 534:C:/Users/geoma/Desktop/Scilab/toolboxes/STM32_toolbox_1-1/scicos_blocks/src/c\convert.c ****                     }
 535:C:/Users/geoma/Desktop/Scilab/toolboxes/STM32_toolbox_1-1/scicos_blocks/src/c\convert.c ****                     y[i] = (SCSINT8_COP)w;
 2309              		.loc 1 535 0 discriminator 2
 2310 0e86 2046     		mov	r0, r4
 2311 0e88 2946     		mov	r1, r5
 2312 0e8a FFF7FEFF 		bl	__aeabi_d2uiz
 2313              	.LVL453:
 2314 0e8e 09F80700 		strb	r0, [r9, r7]
 527:C:/Users/geoma/Desktop/Scilab/toolboxes/STM32_toolbox_1-1/scicos_blocks/src/c\convert.c ****                 {
 2315              		.loc 1 527 0 discriminator 2
 2316 0e92 0136     		adds	r6, r6, #1
ARM GAS  C:\Users\geoma\AppData\Local\Temp\ccpZNVPJ.s 			page 52


 2317              	.LVL454:
 2318              	.L184:
 527:C:/Users/geoma/Desktop/Scilab/toolboxes/STM32_toolbox_1-1/scicos_blocks/src/c\convert.c ****                 {
 2319              		.loc 1 527 0 is_stmt 0 discriminator 1
 2320 0e94 0AFB0BF3 		mul	r3, r10, fp
 2321 0e98 B342     		cmp	r3, r6
 2322 0e9a B2DC     		bgt	.L187
 2323 0e9c 00F0DCBF 		b	.L1
 2324              	.LVL455:
 2325              	.L34:
 2326              	.LBE31:
 2327              	.LBB32:
 536:C:/Users/geoma/Desktop/Scilab/toolboxes/STM32_toolbox_1-1/scicos_blocks/src/c\convert.c ****                 }
 537:C:/Users/geoma/Desktop/Scilab/toolboxes/STM32_toolbox_1-1/scicos_blocks/src/c\convert.c ****                 break;
 538:C:/Users/geoma/Desktop/Scilab/toolboxes/STM32_toolbox_1-1/scicos_blocks/src/c\convert.c ****             }
 539:C:/Users/geoma/Desktop/Scilab/toolboxes/STM32_toolbox_1-1/scicos_blocks/src/c\convert.c ****             case 31:
 540:C:/Users/geoma/Desktop/Scilab/toolboxes/STM32_toolbox_1-1/scicos_blocks/src/c\convert.c ****             {
 541:C:/Users/geoma/Desktop/Scilab/toolboxes/STM32_toolbox_1-1/scicos_blocks/src/c\convert.c ****                 SCSUINT16_COP *u = NULL;
 542:C:/Users/geoma/Desktop/Scilab/toolboxes/STM32_toolbox_1-1/scicos_blocks/src/c\convert.c ****                 SCSUINT32_COP *y = NULL;
 543:C:/Users/geoma/Desktop/Scilab/toolboxes/STM32_toolbox_1-1/scicos_blocks/src/c\convert.c ****                 u = Getuint16InPortPtrs(block, 1);
 2328              		.loc 1 543 0 is_stmt 1
 2329 0ea0 436C     		ldr	r3, [r0, #68]
 2330 0ea2 1C68     		ldr	r4, [r3]
 2331              	.LVL456:
 544:C:/Users/geoma/Desktop/Scilab/toolboxes/STM32_toolbox_1-1/scicos_blocks/src/c\convert.c ****                 y = Getuint32OutPortPtrs(block, 1);
 2332              		.loc 1 544 0
 2333 0ea4 036D     		ldr	r3, [r0, #80]
 2334 0ea6 1968     		ldr	r1, [r3]
 2335              	.LVL457:
 545:C:/Users/geoma/Desktop/Scilab/toolboxes/STM32_toolbox_1-1/scicos_blocks/src/c\convert.c ****                 for (i = 0; i < m * n; i++)
 2336              		.loc 1 545 0
 2337 0ea8 0023     		movs	r3, #0
 2338 0eaa 04E0     		b	.L188
 2339              	.LVL458:
 2340              	.L189:
 546:C:/Users/geoma/Desktop/Scilab/toolboxes/STM32_toolbox_1-1/scicos_blocks/src/c\convert.c ****                 {
 547:C:/Users/geoma/Desktop/Scilab/toolboxes/STM32_toolbox_1-1/scicos_blocks/src/c\convert.c ****                     y[i] = (SCSUINT32_COP)u[i];
 2341              		.loc 1 547 0 discriminator 3
 2342 0eac 34F81320 		ldrh	r2, [r4, r3, lsl #1]
 2343 0eb0 41F82320 		str	r2, [r1, r3, lsl #2]
 545:C:/Users/geoma/Desktop/Scilab/toolboxes/STM32_toolbox_1-1/scicos_blocks/src/c\convert.c ****                 for (i = 0; i < m * n; i++)
 2344              		.loc 1 545 0 discriminator 3
 2345 0eb4 0133     		adds	r3, r3, #1
 2346              	.LVL459:
 2347              	.L188:
 545:C:/Users/geoma/Desktop/Scilab/toolboxes/STM32_toolbox_1-1/scicos_blocks/src/c\convert.c ****                 for (i = 0; i < m * n; i++)
 2348              		.loc 1 545 0 is_stmt 0 discriminator 1
 2349 0eb6 0AFB0BF2 		mul	r2, r10, fp
 2350 0eba 9A42     		cmp	r2, r3
 2351 0ebc F6DC     		bgt	.L189
 2352 0ebe 00F0CBBF 		b	.L1
 2353              	.LVL460:
 2354              	.L35:
 2355              	.LBE32:
 2356              	.LBB33:
 548:C:/Users/geoma/Desktop/Scilab/toolboxes/STM32_toolbox_1-1/scicos_blocks/src/c\convert.c ****                 }
 549:C:/Users/geoma/Desktop/Scilab/toolboxes/STM32_toolbox_1-1/scicos_blocks/src/c\convert.c ****                 break;
ARM GAS  C:\Users\geoma\AppData\Local\Temp\ccpZNVPJ.s 			page 53


 550:C:/Users/geoma/Desktop/Scilab/toolboxes/STM32_toolbox_1-1/scicos_blocks/src/c\convert.c ****             }
 551:C:/Users/geoma/Desktop/Scilab/toolboxes/STM32_toolbox_1-1/scicos_blocks/src/c\convert.c ****             case 32:
 552:C:/Users/geoma/Desktop/Scilab/toolboxes/STM32_toolbox_1-1/scicos_blocks/src/c\convert.c ****             {
 553:C:/Users/geoma/Desktop/Scilab/toolboxes/STM32_toolbox_1-1/scicos_blocks/src/c\convert.c ****                 SCSUINT16_COP *u = NULL;
 554:C:/Users/geoma/Desktop/Scilab/toolboxes/STM32_toolbox_1-1/scicos_blocks/src/c\convert.c ****                 SCSUINT8_COP *y = NULL;
 555:C:/Users/geoma/Desktop/Scilab/toolboxes/STM32_toolbox_1-1/scicos_blocks/src/c\convert.c ****                 u = Getuint16InPortPtrs(block, 1);
 2357              		.loc 1 555 0 is_stmt 1
 2358 0ec2 436C     		ldr	r3, [r0, #68]
 2359 0ec4 1F68     		ldr	r7, [r3]
 2360              	.LVL461:
 556:C:/Users/geoma/Desktop/Scilab/toolboxes/STM32_toolbox_1-1/scicos_blocks/src/c\convert.c ****                 y = Getuint8OutPortPtrs(block, 1);
 2361              		.loc 1 556 0
 2362 0ec6 036D     		ldr	r3, [r0, #80]
 2363 0ec8 D3F80080 		ldr	r8, [r3]
 2364              	.LVL462:
 557:C:/Users/geoma/Desktop/Scilab/toolboxes/STM32_toolbox_1-1/scicos_blocks/src/c\convert.c ****                 k = pow(2, 8);
 558:C:/Users/geoma/Desktop/Scilab/toolboxes/STM32_toolbox_1-1/scicos_blocks/src/c\convert.c ****                 for (i = 0; i < m * n; i++)
 2365              		.loc 1 558 0
 2366 0ecc 0026     		movs	r6, #0
 2367 0ece 30E0     		b	.L190
 2368              	.L535:
 2369              		.align	3
 2370              	.L534:
 2371 0ed0 00000000 		.word	0
 2372 0ed4 C0FFDF40 		.word	1088421824
 2373 0ed8 00000000 		.word	0
 2374 0edc 00C05F40 		.word	1080016896
 2375 0ee0 0000F03E 		.word	1055916032
 2376 0ee4 0000F040 		.word	1089470464
 2377 0ee8 0000E040 		.word	1088421888
 2378 0eec 0000703F 		.word	1064304640
 2379 0ef0 00007040 		.word	1081081856
 2380 0ef4 00006040 		.word	1080033280
 2381              	.LVL463:
 2382              	.L191:
 559:C:/Users/geoma/Desktop/Scilab/toolboxes/STM32_toolbox_1-1/scicos_blocks/src/c\convert.c ****                 {
 560:C:/Users/geoma/Desktop/Scilab/toolboxes/STM32_toolbox_1-1/scicos_blocks/src/c\convert.c ****                     v = (double)u[i];
 2383              		.loc 1 560 0 discriminator 3
 2384 0ef8 37F81600 		ldrh	r0, [r7, r6, lsl #1]
 2385 0efc FFF7FEFF 		bl	__aeabi_ui2d
 2386              	.LVL464:
 2387 0f00 0446     		mov	r4, r0
 2388 0f02 0D46     		mov	r5, r1
 2389              	.LVL465:
 561:C:/Users/geoma/Desktop/Scilab/toolboxes/STM32_toolbox_1-1/scicos_blocks/src/c\convert.c ****                     w = v - (double)((int)(v / k)) * k;
 2390              		.loc 1 561 0 discriminator 3
 2391 0f04 0022     		movs	r2, #0
 2392 0f06 B84B     		ldr	r3, .L536+24
 2393 0f08 FFF7FEFF 		bl	__aeabi_dmul
 2394              	.LVL466:
 2395 0f0c FFF7FEFF 		bl	__aeabi_d2iz
 2396              	.LVL467:
 2397 0f10 FFF7FEFF 		bl	__aeabi_i2d
 2398              	.LVL468:
 2399 0f14 0022     		movs	r2, #0
 2400 0f16 B54B     		ldr	r3, .L536+28
 2401 0f18 FFF7FEFF 		bl	__aeabi_dmul
ARM GAS  C:\Users\geoma\AppData\Local\Temp\ccpZNVPJ.s 			page 54


 2402              	.LVL469:
 2403 0f1c 0246     		mov	r2, r0
 2404 0f1e 0B46     		mov	r3, r1
 2405 0f20 2046     		mov	r0, r4
 2406 0f22 2946     		mov	r1, r5
 2407 0f24 FFF7FEFF 		bl	__aeabi_dsub
 2408              	.LVL470:
 562:C:/Users/geoma/Desktop/Scilab/toolboxes/STM32_toolbox_1-1/scicos_blocks/src/c\convert.c ****                     y[i] = (SCSUINT8_COP)w;
 2409              		.loc 1 562 0 discriminator 3
 2410 0f28 FFF7FEFF 		bl	__aeabi_d2uiz
 2411              	.LVL471:
 2412 0f2c 08F80600 		strb	r0, [r8, r6]
 558:C:/Users/geoma/Desktop/Scilab/toolboxes/STM32_toolbox_1-1/scicos_blocks/src/c\convert.c ****                 {
 2413              		.loc 1 558 0 discriminator 3
 2414 0f30 0136     		adds	r6, r6, #1
 2415              	.LVL472:
 2416              	.L190:
 558:C:/Users/geoma/Desktop/Scilab/toolboxes/STM32_toolbox_1-1/scicos_blocks/src/c\convert.c ****                 {
 2417              		.loc 1 558 0 is_stmt 0 discriminator 1
 2418 0f32 0AFB0BF3 		mul	r3, r10, fp
 2419 0f36 B342     		cmp	r3, r6
 2420 0f38 DEDC     		bgt	.L191
 2421 0f3a 00F08DBF 		b	.L1
 2422              	.LVL473:
 2423              	.L36:
 2424              	.LBE33:
 2425              	.LBB34:
 563:C:/Users/geoma/Desktop/Scilab/toolboxes/STM32_toolbox_1-1/scicos_blocks/src/c\convert.c ****                 }
 564:C:/Users/geoma/Desktop/Scilab/toolboxes/STM32_toolbox_1-1/scicos_blocks/src/c\convert.c ****                 break;
 565:C:/Users/geoma/Desktop/Scilab/toolboxes/STM32_toolbox_1-1/scicos_blocks/src/c\convert.c ****             }
 566:C:/Users/geoma/Desktop/Scilab/toolboxes/STM32_toolbox_1-1/scicos_blocks/src/c\convert.c ****             case 33:
 567:C:/Users/geoma/Desktop/Scilab/toolboxes/STM32_toolbox_1-1/scicos_blocks/src/c\convert.c ****             {
 568:C:/Users/geoma/Desktop/Scilab/toolboxes/STM32_toolbox_1-1/scicos_blocks/src/c\convert.c ****                 SCSUINT8_COP *u = NULL;
 569:C:/Users/geoma/Desktop/Scilab/toolboxes/STM32_toolbox_1-1/scicos_blocks/src/c\convert.c ****                 SCSREAL_COP *y = NULL;
 570:C:/Users/geoma/Desktop/Scilab/toolboxes/STM32_toolbox_1-1/scicos_blocks/src/c\convert.c ****                 u = Getuint8InPortPtrs(block, 1);
 2426              		.loc 1 570 0 is_stmt 1
 2427 0f3e 436C     		ldr	r3, [r0, #68]
 2428 0f40 1F68     		ldr	r7, [r3]
 2429              	.LVL474:
 571:C:/Users/geoma/Desktop/Scilab/toolboxes/STM32_toolbox_1-1/scicos_blocks/src/c\convert.c ****                 y = GetRealOutPortPtrs(block, 1);
 2430              		.loc 1 571 0
 2431 0f42 036D     		ldr	r3, [r0, #80]
 2432 0f44 1E68     		ldr	r6, [r3]
 2433              	.LVL475:
 572:C:/Users/geoma/Desktop/Scilab/toolboxes/STM32_toolbox_1-1/scicos_blocks/src/c\convert.c ****                 for (i = 0; i < m * n; i++)
 2434              		.loc 1 572 0
 2435 0f46 0024     		movs	r4, #0
 2436              	.LVL476:
 2437 0f48 07E0     		b	.L192
 2438              	.LVL477:
 2439              	.L193:
 573:C:/Users/geoma/Desktop/Scilab/toolboxes/STM32_toolbox_1-1/scicos_blocks/src/c\convert.c ****                 {
 574:C:/Users/geoma/Desktop/Scilab/toolboxes/STM32_toolbox_1-1/scicos_blocks/src/c\convert.c ****                     y[i] = (SCSREAL_COP) u[i];
 2440              		.loc 1 574 0 discriminator 3
 2441 0f4a 06EBC405 		add	r5, r6, r4, lsl #3
 2442 0f4e 385D     		ldrb	r0, [r7, r4]	@ zero_extendqisi2
 2443 0f50 FFF7FEFF 		bl	__aeabi_ui2d
ARM GAS  C:\Users\geoma\AppData\Local\Temp\ccpZNVPJ.s 			page 55


 2444              	.LVL478:
 2445 0f54 C5E90001 		strd	r0, [r5]
 572:C:/Users/geoma/Desktop/Scilab/toolboxes/STM32_toolbox_1-1/scicos_blocks/src/c\convert.c ****                 for (i = 0; i < m * n; i++)
 2446              		.loc 1 572 0 discriminator 3
 2447 0f58 0134     		adds	r4, r4, #1
 2448              	.LVL479:
 2449              	.L192:
 572:C:/Users/geoma/Desktop/Scilab/toolboxes/STM32_toolbox_1-1/scicos_blocks/src/c\convert.c ****                 for (i = 0; i < m * n; i++)
 2450              		.loc 1 572 0 is_stmt 0 discriminator 1
 2451 0f5a 0AFB0BF3 		mul	r3, r10, fp
 2452 0f5e A342     		cmp	r3, r4
 2453 0f60 F3DC     		bgt	.L193
 2454 0f62 00F079BF 		b	.L1
 2455              	.LVL480:
 2456              	.L37:
 2457              	.LBE34:
 2458              	.LBB35:
 575:C:/Users/geoma/Desktop/Scilab/toolboxes/STM32_toolbox_1-1/scicos_blocks/src/c\convert.c ****                 }
 576:C:/Users/geoma/Desktop/Scilab/toolboxes/STM32_toolbox_1-1/scicos_blocks/src/c\convert.c ****                 break;
 577:C:/Users/geoma/Desktop/Scilab/toolboxes/STM32_toolbox_1-1/scicos_blocks/src/c\convert.c ****             }
 578:C:/Users/geoma/Desktop/Scilab/toolboxes/STM32_toolbox_1-1/scicos_blocks/src/c\convert.c ****             case 34:
 579:C:/Users/geoma/Desktop/Scilab/toolboxes/STM32_toolbox_1-1/scicos_blocks/src/c\convert.c ****             {
 580:C:/Users/geoma/Desktop/Scilab/toolboxes/STM32_toolbox_1-1/scicos_blocks/src/c\convert.c ****                 SCSUINT8_COP *u = NULL;
 581:C:/Users/geoma/Desktop/Scilab/toolboxes/STM32_toolbox_1-1/scicos_blocks/src/c\convert.c ****                 SCSINT32_COP *y = NULL;
 582:C:/Users/geoma/Desktop/Scilab/toolboxes/STM32_toolbox_1-1/scicos_blocks/src/c\convert.c ****                 u = Getuint8InPortPtrs(block, 1);
 2459              		.loc 1 582 0 is_stmt 1
 2460 0f66 436C     		ldr	r3, [r0, #68]
 2461 0f68 1C68     		ldr	r4, [r3]
 2462              	.LVL481:
 583:C:/Users/geoma/Desktop/Scilab/toolboxes/STM32_toolbox_1-1/scicos_blocks/src/c\convert.c ****                 y = Getint32OutPortPtrs(block, 1);
 2463              		.loc 1 583 0
 2464 0f6a 036D     		ldr	r3, [r0, #80]
 2465 0f6c 1968     		ldr	r1, [r3]
 2466              	.LVL482:
 584:C:/Users/geoma/Desktop/Scilab/toolboxes/STM32_toolbox_1-1/scicos_blocks/src/c\convert.c ****                 for (i = 0; i < m * n; i++)
 2467              		.loc 1 584 0
 2468 0f6e 0023     		movs	r3, #0
 2469 0f70 03E0     		b	.L194
 2470              	.LVL483:
 2471              	.L195:
 585:C:/Users/geoma/Desktop/Scilab/toolboxes/STM32_toolbox_1-1/scicos_blocks/src/c\convert.c ****                 {
 586:C:/Users/geoma/Desktop/Scilab/toolboxes/STM32_toolbox_1-1/scicos_blocks/src/c\convert.c ****                     y[i] = (SCSINT32_COP)u[i];
 2472              		.loc 1 586 0 discriminator 3
 2473 0f72 E25C     		ldrb	r2, [r4, r3]	@ zero_extendqisi2
 2474 0f74 41F82320 		str	r2, [r1, r3, lsl #2]
 584:C:/Users/geoma/Desktop/Scilab/toolboxes/STM32_toolbox_1-1/scicos_blocks/src/c\convert.c ****                 for (i = 0; i < m * n; i++)
 2475              		.loc 1 584 0 discriminator 3
 2476 0f78 0133     		adds	r3, r3, #1
 2477              	.LVL484:
 2478              	.L194:
 584:C:/Users/geoma/Desktop/Scilab/toolboxes/STM32_toolbox_1-1/scicos_blocks/src/c\convert.c ****                 for (i = 0; i < m * n; i++)
 2479              		.loc 1 584 0 is_stmt 0 discriminator 1
 2480 0f7a 0AFB0BF2 		mul	r2, r10, fp
 2481 0f7e 9A42     		cmp	r2, r3
 2482 0f80 F7DC     		bgt	.L195
 2483 0f82 00F069BF 		b	.L1
 2484              	.LVL485:
ARM GAS  C:\Users\geoma\AppData\Local\Temp\ccpZNVPJ.s 			page 56


 2485              	.L38:
 2486              	.LBE35:
 2487              	.LBB36:
 587:C:/Users/geoma/Desktop/Scilab/toolboxes/STM32_toolbox_1-1/scicos_blocks/src/c\convert.c ****                 }
 588:C:/Users/geoma/Desktop/Scilab/toolboxes/STM32_toolbox_1-1/scicos_blocks/src/c\convert.c ****                 break;
 589:C:/Users/geoma/Desktop/Scilab/toolboxes/STM32_toolbox_1-1/scicos_blocks/src/c\convert.c ****             }
 590:C:/Users/geoma/Desktop/Scilab/toolboxes/STM32_toolbox_1-1/scicos_blocks/src/c\convert.c ****             case 35:
 591:C:/Users/geoma/Desktop/Scilab/toolboxes/STM32_toolbox_1-1/scicos_blocks/src/c\convert.c ****             {
 592:C:/Users/geoma/Desktop/Scilab/toolboxes/STM32_toolbox_1-1/scicos_blocks/src/c\convert.c ****                 SCSUINT8_COP *u = NULL;
 593:C:/Users/geoma/Desktop/Scilab/toolboxes/STM32_toolbox_1-1/scicos_blocks/src/c\convert.c ****                 SCSINT16_COP *y = NULL;
 594:C:/Users/geoma/Desktop/Scilab/toolboxes/STM32_toolbox_1-1/scicos_blocks/src/c\convert.c ****                 u = Getuint8InPortPtrs(block, 1);
 2488              		.loc 1 594 0 is_stmt 1
 2489 0f86 436C     		ldr	r3, [r0, #68]
 2490 0f88 1C68     		ldr	r4, [r3]
 2491              	.LVL486:
 595:C:/Users/geoma/Desktop/Scilab/toolboxes/STM32_toolbox_1-1/scicos_blocks/src/c\convert.c ****                 y = Getint16OutPortPtrs(block, 1);
 2492              		.loc 1 595 0
 2493 0f8a 036D     		ldr	r3, [r0, #80]
 2494 0f8c 1968     		ldr	r1, [r3]
 2495              	.LVL487:
 596:C:/Users/geoma/Desktop/Scilab/toolboxes/STM32_toolbox_1-1/scicos_blocks/src/c\convert.c ****                 for (i = 0; i < m * n; i++)
 2496              		.loc 1 596 0
 2497 0f8e 0023     		movs	r3, #0
 2498 0f90 03E0     		b	.L196
 2499              	.LVL488:
 2500              	.L197:
 597:C:/Users/geoma/Desktop/Scilab/toolboxes/STM32_toolbox_1-1/scicos_blocks/src/c\convert.c ****                 {
 598:C:/Users/geoma/Desktop/Scilab/toolboxes/STM32_toolbox_1-1/scicos_blocks/src/c\convert.c ****                     y[i] = (SCSINT16_COP)u[i];
 2501              		.loc 1 598 0 discriminator 3
 2502 0f92 E25C     		ldrb	r2, [r4, r3]	@ zero_extendqisi2
 2503 0f94 21F81320 		strh	r2, [r1, r3, lsl #1]	@ movhi
 596:C:/Users/geoma/Desktop/Scilab/toolboxes/STM32_toolbox_1-1/scicos_blocks/src/c\convert.c ****                 for (i = 0; i < m * n; i++)
 2504              		.loc 1 596 0 discriminator 3
 2505 0f98 0133     		adds	r3, r3, #1
 2506              	.LVL489:
 2507              	.L196:
 596:C:/Users/geoma/Desktop/Scilab/toolboxes/STM32_toolbox_1-1/scicos_blocks/src/c\convert.c ****                 for (i = 0; i < m * n; i++)
 2508              		.loc 1 596 0 is_stmt 0 discriminator 1
 2509 0f9a 0AFB0BF2 		mul	r2, r10, fp
 2510 0f9e 9A42     		cmp	r2, r3
 2511 0fa0 F7DC     		bgt	.L197
 2512 0fa2 00F059BF 		b	.L1
 2513              	.LVL490:
 2514              	.L39:
 2515              	.LBE36:
 2516              	.LBB37:
 599:C:/Users/geoma/Desktop/Scilab/toolboxes/STM32_toolbox_1-1/scicos_blocks/src/c\convert.c ****                 }
 600:C:/Users/geoma/Desktop/Scilab/toolboxes/STM32_toolbox_1-1/scicos_blocks/src/c\convert.c ****                 break;
 601:C:/Users/geoma/Desktop/Scilab/toolboxes/STM32_toolbox_1-1/scicos_blocks/src/c\convert.c ****             }
 602:C:/Users/geoma/Desktop/Scilab/toolboxes/STM32_toolbox_1-1/scicos_blocks/src/c\convert.c ****             case 36:
 603:C:/Users/geoma/Desktop/Scilab/toolboxes/STM32_toolbox_1-1/scicos_blocks/src/c\convert.c ****             {
 604:C:/Users/geoma/Desktop/Scilab/toolboxes/STM32_toolbox_1-1/scicos_blocks/src/c\convert.c ****                 SCSUINT8_COP *u = NULL;
 605:C:/Users/geoma/Desktop/Scilab/toolboxes/STM32_toolbox_1-1/scicos_blocks/src/c\convert.c ****                 SCSUINT32_COP *y = NULL;
 606:C:/Users/geoma/Desktop/Scilab/toolboxes/STM32_toolbox_1-1/scicos_blocks/src/c\convert.c ****                 u = Getuint8InPortPtrs(block, 1);
 2517              		.loc 1 606 0 is_stmt 1
 2518 0fa6 436C     		ldr	r3, [r0, #68]
 2519 0fa8 1C68     		ldr	r4, [r3]
ARM GAS  C:\Users\geoma\AppData\Local\Temp\ccpZNVPJ.s 			page 57


 2520              	.LVL491:
 607:C:/Users/geoma/Desktop/Scilab/toolboxes/STM32_toolbox_1-1/scicos_blocks/src/c\convert.c ****                 y = Getuint32OutPortPtrs(block, 1);
 2521              		.loc 1 607 0
 2522 0faa 036D     		ldr	r3, [r0, #80]
 2523 0fac 1968     		ldr	r1, [r3]
 2524              	.LVL492:
 608:C:/Users/geoma/Desktop/Scilab/toolboxes/STM32_toolbox_1-1/scicos_blocks/src/c\convert.c ****                 for (i = 0; i < m * n; i++)
 2525              		.loc 1 608 0
 2526 0fae 0023     		movs	r3, #0
 2527 0fb0 03E0     		b	.L198
 2528              	.LVL493:
 2529              	.L199:
 609:C:/Users/geoma/Desktop/Scilab/toolboxes/STM32_toolbox_1-1/scicos_blocks/src/c\convert.c ****                 {
 610:C:/Users/geoma/Desktop/Scilab/toolboxes/STM32_toolbox_1-1/scicos_blocks/src/c\convert.c ****                     y[i] = (SCSUINT32_COP)u[i];
 2530              		.loc 1 610 0 discriminator 3
 2531 0fb2 E25C     		ldrb	r2, [r4, r3]	@ zero_extendqisi2
 2532 0fb4 41F82320 		str	r2, [r1, r3, lsl #2]
 608:C:/Users/geoma/Desktop/Scilab/toolboxes/STM32_toolbox_1-1/scicos_blocks/src/c\convert.c ****                 for (i = 0; i < m * n; i++)
 2533              		.loc 1 608 0 discriminator 3
 2534 0fb8 0133     		adds	r3, r3, #1
 2535              	.LVL494:
 2536              	.L198:
 608:C:/Users/geoma/Desktop/Scilab/toolboxes/STM32_toolbox_1-1/scicos_blocks/src/c\convert.c ****                 for (i = 0; i < m * n; i++)
 2537              		.loc 1 608 0 is_stmt 0 discriminator 1
 2538 0fba 0AFB0BF2 		mul	r2, r10, fp
 2539 0fbe 9A42     		cmp	r2, r3
 2540 0fc0 F7DC     		bgt	.L199
 2541 0fc2 00F049BF 		b	.L1
 2542              	.LVL495:
 2543              	.L40:
 2544              	.LBE37:
 2545              	.LBB38:
 611:C:/Users/geoma/Desktop/Scilab/toolboxes/STM32_toolbox_1-1/scicos_blocks/src/c\convert.c ****                 }
 612:C:/Users/geoma/Desktop/Scilab/toolboxes/STM32_toolbox_1-1/scicos_blocks/src/c\convert.c ****                 break;
 613:C:/Users/geoma/Desktop/Scilab/toolboxes/STM32_toolbox_1-1/scicos_blocks/src/c\convert.c ****             }
 614:C:/Users/geoma/Desktop/Scilab/toolboxes/STM32_toolbox_1-1/scicos_blocks/src/c\convert.c ****             case 37:
 615:C:/Users/geoma/Desktop/Scilab/toolboxes/STM32_toolbox_1-1/scicos_blocks/src/c\convert.c ****             {
 616:C:/Users/geoma/Desktop/Scilab/toolboxes/STM32_toolbox_1-1/scicos_blocks/src/c\convert.c ****                 SCSUINT8_COP *u = NULL;
 617:C:/Users/geoma/Desktop/Scilab/toolboxes/STM32_toolbox_1-1/scicos_blocks/src/c\convert.c ****                 SCSUINT16_COP *y = NULL;
 618:C:/Users/geoma/Desktop/Scilab/toolboxes/STM32_toolbox_1-1/scicos_blocks/src/c\convert.c ****                 u = Getuint8InPortPtrs(block, 1);
 2546              		.loc 1 618 0 is_stmt 1
 2547 0fc6 436C     		ldr	r3, [r0, #68]
 2548 0fc8 1C68     		ldr	r4, [r3]
 2549              	.LVL496:
 619:C:/Users/geoma/Desktop/Scilab/toolboxes/STM32_toolbox_1-1/scicos_blocks/src/c\convert.c ****                 y = Getuint16OutPortPtrs(block, 1);
 2550              		.loc 1 619 0
 2551 0fca 036D     		ldr	r3, [r0, #80]
 2552 0fcc 1968     		ldr	r1, [r3]
 2553              	.LVL497:
 620:C:/Users/geoma/Desktop/Scilab/toolboxes/STM32_toolbox_1-1/scicos_blocks/src/c\convert.c ****                 for (i = 0; i < m * n; i++)
 2554              		.loc 1 620 0
 2555 0fce 0023     		movs	r3, #0
 2556 0fd0 03E0     		b	.L200
 2557              	.LVL498:
 2558              	.L201:
 621:C:/Users/geoma/Desktop/Scilab/toolboxes/STM32_toolbox_1-1/scicos_blocks/src/c\convert.c ****                 {
 622:C:/Users/geoma/Desktop/Scilab/toolboxes/STM32_toolbox_1-1/scicos_blocks/src/c\convert.c ****                     y[i] = (SCSUINT16_COP)u[i];
ARM GAS  C:\Users\geoma\AppData\Local\Temp\ccpZNVPJ.s 			page 58


 2559              		.loc 1 622 0 discriminator 3
 2560 0fd2 E25C     		ldrb	r2, [r4, r3]	@ zero_extendqisi2
 2561 0fd4 21F81320 		strh	r2, [r1, r3, lsl #1]	@ movhi
 620:C:/Users/geoma/Desktop/Scilab/toolboxes/STM32_toolbox_1-1/scicos_blocks/src/c\convert.c ****                 for (i = 0; i < m * n; i++)
 2562              		.loc 1 620 0 discriminator 3
 2563 0fd8 0133     		adds	r3, r3, #1
 2564              	.LVL499:
 2565              	.L200:
 620:C:/Users/geoma/Desktop/Scilab/toolboxes/STM32_toolbox_1-1/scicos_blocks/src/c\convert.c ****                 for (i = 0; i < m * n; i++)
 2566              		.loc 1 620 0 is_stmt 0 discriminator 1
 2567 0fda 0AFB0BF2 		mul	r2, r10, fp
 2568 0fde 9A42     		cmp	r2, r3
 2569 0fe0 F7DC     		bgt	.L201
 2570 0fe2 00F039BF 		b	.L1
 2571              	.LVL500:
 2572              	.L41:
 2573              	.LBE38:
 2574              	.LBB39:
 623:C:/Users/geoma/Desktop/Scilab/toolboxes/STM32_toolbox_1-1/scicos_blocks/src/c\convert.c ****                 }
 624:C:/Users/geoma/Desktop/Scilab/toolboxes/STM32_toolbox_1-1/scicos_blocks/src/c\convert.c ****                 break;
 625:C:/Users/geoma/Desktop/Scilab/toolboxes/STM32_toolbox_1-1/scicos_blocks/src/c\convert.c ****             }
 626:C:/Users/geoma/Desktop/Scilab/toolboxes/STM32_toolbox_1-1/scicos_blocks/src/c\convert.c ****             case 38:
 627:C:/Users/geoma/Desktop/Scilab/toolboxes/STM32_toolbox_1-1/scicos_blocks/src/c\convert.c ****             {
 628:C:/Users/geoma/Desktop/Scilab/toolboxes/STM32_toolbox_1-1/scicos_blocks/src/c\convert.c ****                 SCSREAL_COP *u = NULL;
 629:C:/Users/geoma/Desktop/Scilab/toolboxes/STM32_toolbox_1-1/scicos_blocks/src/c\convert.c ****                 SCSINT32_COP *y = NULL;
 630:C:/Users/geoma/Desktop/Scilab/toolboxes/STM32_toolbox_1-1/scicos_blocks/src/c\convert.c ****                 u = GetRealInPortPtrs(block, 1);
 2575              		.loc 1 630 0 is_stmt 1
 2576 0fe6 436C     		ldr	r3, [r0, #68]
 2577 0fe8 1D68     		ldr	r5, [r3]
 2578              	.LVL501:
 631:C:/Users/geoma/Desktop/Scilab/toolboxes/STM32_toolbox_1-1/scicos_blocks/src/c\convert.c ****                 y = Getint32OutPortPtrs(block, 1);
 2579              		.loc 1 631 0
 2580 0fea 036D     		ldr	r3, [r0, #80]
 2581 0fec D3F80080 		ldr	r8, [r3]
 2582              	.LVL502:
 632:C:/Users/geoma/Desktop/Scilab/toolboxes/STM32_toolbox_1-1/scicos_blocks/src/c\convert.c ****                 k = pow(2, 32);
 633:C:/Users/geoma/Desktop/Scilab/toolboxes/STM32_toolbox_1-1/scicos_blocks/src/c\convert.c ****                 for (i = 0; i < m * n; i++)
 2583              		.loc 1 633 0
 2584 0ff0 0024     		movs	r4, #0
 2585              	.LVL503:
 2586 0ff2 22E0     		b	.L202
 2587              	.LVL504:
 2588              	.L208:
 634:C:/Users/geoma/Desktop/Scilab/toolboxes/STM32_toolbox_1-1/scicos_blocks/src/c\convert.c ****                 {
 635:C:/Users/geoma/Desktop/Scilab/toolboxes/STM32_toolbox_1-1/scicos_blocks/src/c\convert.c ****                     if (u[i] > k / 2 - 1)
 2589              		.loc 1 635 0
 2590 0ff4 05EBC403 		add	r3, r5, r4, lsl #3
 2591 0ff8 D3E90067 		ldrd	r6, [r3]
 2592 0ffc 3046     		mov	r0, r6
 2593 0ffe 3946     		mov	r1, r7
 2594 1000 73A3     		adr	r3, .L536
 2595 1002 D3E90023 		ldrd	r2, [r3]
 2596 1006 FFF7FEFF 		bl	__aeabi_dcmpgt
 2597              	.LVL505:
 2598 100a 20B1     		cbz	r0, .L506
 636:C:/Users/geoma/Desktop/Scilab/toolboxes/STM32_toolbox_1-1/scicos_blocks/src/c\convert.c ****                     {
 637:C:/Users/geoma/Desktop/Scilab/toolboxes/STM32_toolbox_1-1/scicos_blocks/src/c\convert.c ****                         y[i] = (SCSINT32_COP)(k / 2 - 1);
ARM GAS  C:\Users\geoma\AppData\Local\Temp\ccpZNVPJ.s 			page 59


 2599              		.loc 1 637 0
 2600 100c 6FF00043 		mvn	r3, #-2147483648
 2601 1010 48F82430 		str	r3, [r8, r4, lsl #2]
 2602 1014 10E0     		b	.L205
 2603              	.L506:
 638:C:/Users/geoma/Desktop/Scilab/toolboxes/STM32_toolbox_1-1/scicos_blocks/src/c\convert.c ****                     }
 639:C:/Users/geoma/Desktop/Scilab/toolboxes/STM32_toolbox_1-1/scicos_blocks/src/c\convert.c ****                     else if (u[i] < -(k / 2))
 2604              		.loc 1 639 0
 2605 1016 3046     		mov	r0, r6
 2606 1018 3946     		mov	r1, r7
 2607 101a 0022     		movs	r2, #0
 2608 101c 744B     		ldr	r3, .L536+32
 2609 101e FFF7FEFF 		bl	__aeabi_dcmplt
 2610              	.LVL506:
 2611 1022 18B1     		cbz	r0, .L507
 640:C:/Users/geoma/Desktop/Scilab/toolboxes/STM32_toolbox_1-1/scicos_blocks/src/c\convert.c ****                     {
 641:C:/Users/geoma/Desktop/Scilab/toolboxes/STM32_toolbox_1-1/scicos_blocks/src/c\convert.c ****                         y[i] = -(SCSINT32_COP)(k / 2);
 2612              		.loc 1 641 0
 2613 1024 734B     		ldr	r3, .L536+36
 2614 1026 48F82430 		str	r3, [r8, r4, lsl #2]
 2615 102a 05E0     		b	.L205
 2616              	.L507:
 642:C:/Users/geoma/Desktop/Scilab/toolboxes/STM32_toolbox_1-1/scicos_blocks/src/c\convert.c ****                     }
 643:C:/Users/geoma/Desktop/Scilab/toolboxes/STM32_toolbox_1-1/scicos_blocks/src/c\convert.c ****                     else
 644:C:/Users/geoma/Desktop/Scilab/toolboxes/STM32_toolbox_1-1/scicos_blocks/src/c\convert.c ****                     {
 645:C:/Users/geoma/Desktop/Scilab/toolboxes/STM32_toolbox_1-1/scicos_blocks/src/c\convert.c ****                         y[i] = (SCSINT32_COP)(u[i]);
 2617              		.loc 1 645 0
 2618 102c 3046     		mov	r0, r6
 2619 102e 3946     		mov	r1, r7
 2620 1030 FFF7FEFF 		bl	__aeabi_d2iz
 2621              	.LVL507:
 2622 1034 48F82400 		str	r0, [r8, r4, lsl #2]
 2623              	.L205:
 633:C:/Users/geoma/Desktop/Scilab/toolboxes/STM32_toolbox_1-1/scicos_blocks/src/c\convert.c ****                 {
 2624              		.loc 1 633 0 discriminator 2
 2625 1038 0134     		adds	r4, r4, #1
 2626              	.LVL508:
 2627              	.L202:
 633:C:/Users/geoma/Desktop/Scilab/toolboxes/STM32_toolbox_1-1/scicos_blocks/src/c\convert.c ****                 {
 2628              		.loc 1 633 0 is_stmt 0 discriminator 1
 2629 103a 0AFB0BF3 		mul	r3, r10, fp
 2630 103e A342     		cmp	r3, r4
 2631 1040 D8DC     		bgt	.L208
 2632 1042 00F009BF 		b	.L1
 2633              	.LVL509:
 2634              	.L42:
 2635              	.LBE39:
 2636              	.LBB40:
 646:C:/Users/geoma/Desktop/Scilab/toolboxes/STM32_toolbox_1-1/scicos_blocks/src/c\convert.c ****                     }
 647:C:/Users/geoma/Desktop/Scilab/toolboxes/STM32_toolbox_1-1/scicos_blocks/src/c\convert.c ****                 }
 648:C:/Users/geoma/Desktop/Scilab/toolboxes/STM32_toolbox_1-1/scicos_blocks/src/c\convert.c ****                 break;
 649:C:/Users/geoma/Desktop/Scilab/toolboxes/STM32_toolbox_1-1/scicos_blocks/src/c\convert.c ****             }
 650:C:/Users/geoma/Desktop/Scilab/toolboxes/STM32_toolbox_1-1/scicos_blocks/src/c\convert.c ****             case 39:
 651:C:/Users/geoma/Desktop/Scilab/toolboxes/STM32_toolbox_1-1/scicos_blocks/src/c\convert.c ****             {
 652:C:/Users/geoma/Desktop/Scilab/toolboxes/STM32_toolbox_1-1/scicos_blocks/src/c\convert.c ****                 SCSREAL_COP *u = NULL;
 653:C:/Users/geoma/Desktop/Scilab/toolboxes/STM32_toolbox_1-1/scicos_blocks/src/c\convert.c ****                 SCSINT16_COP *y = NULL;
 654:C:/Users/geoma/Desktop/Scilab/toolboxes/STM32_toolbox_1-1/scicos_blocks/src/c\convert.c ****                 u = GetRealInPortPtrs(block, 1);
ARM GAS  C:\Users\geoma\AppData\Local\Temp\ccpZNVPJ.s 			page 60


 2637              		.loc 1 654 0 is_stmt 1
 2638 1046 436C     		ldr	r3, [r0, #68]
 2639 1048 1D68     		ldr	r5, [r3]
 2640              	.LVL510:
 655:C:/Users/geoma/Desktop/Scilab/toolboxes/STM32_toolbox_1-1/scicos_blocks/src/c\convert.c ****                 y = Getint16OutPortPtrs(block, 1);
 2641              		.loc 1 655 0
 2642 104a 036D     		ldr	r3, [r0, #80]
 2643 104c D3F80080 		ldr	r8, [r3]
 2644              	.LVL511:
 656:C:/Users/geoma/Desktop/Scilab/toolboxes/STM32_toolbox_1-1/scicos_blocks/src/c\convert.c ****                 k = pow(2, 16);
 657:C:/Users/geoma/Desktop/Scilab/toolboxes/STM32_toolbox_1-1/scicos_blocks/src/c\convert.c ****                 for (i = 0; i < m * n; i++)
 2645              		.loc 1 657 0
 2646 1050 0024     		movs	r4, #0
 2647              	.LVL512:
 2648 1052 23E0     		b	.L209
 2649              	.LVL513:
 2650              	.L215:
 658:C:/Users/geoma/Desktop/Scilab/toolboxes/STM32_toolbox_1-1/scicos_blocks/src/c\convert.c ****                 {
 659:C:/Users/geoma/Desktop/Scilab/toolboxes/STM32_toolbox_1-1/scicos_blocks/src/c\convert.c ****                     if (u[i] > k / 2 - 1)
 2651              		.loc 1 659 0
 2652 1054 05EBC403 		add	r3, r5, r4, lsl #3
 2653 1058 D3E90067 		ldrd	r6, [r3]
 2654 105c 3046     		mov	r0, r6
 2655 105e 3946     		mov	r1, r7
 2656 1060 5DA3     		adr	r3, .L536+8
 2657 1062 D3E90023 		ldrd	r2, [r3]
 2658 1066 FFF7FEFF 		bl	__aeabi_dcmpgt
 2659              	.LVL514:
 2660 106a 20B1     		cbz	r0, .L508
 660:C:/Users/geoma/Desktop/Scilab/toolboxes/STM32_toolbox_1-1/scicos_blocks/src/c\convert.c ****                     {
 661:C:/Users/geoma/Desktop/Scilab/toolboxes/STM32_toolbox_1-1/scicos_blocks/src/c\convert.c ****                         y[i] = (SCSINT16_COP)(k / 2 - 1);
 2661              		.loc 1 661 0
 2662 106c 47F6FF73 		movw	r3, #32767
 2663 1070 28F81430 		strh	r3, [r8, r4, lsl #1]	@ movhi
 2664 1074 11E0     		b	.L212
 2665              	.L508:
 662:C:/Users/geoma/Desktop/Scilab/toolboxes/STM32_toolbox_1-1/scicos_blocks/src/c\convert.c ****                     }
 663:C:/Users/geoma/Desktop/Scilab/toolboxes/STM32_toolbox_1-1/scicos_blocks/src/c\convert.c ****                     else if (u[i] < -(k / 2))
 2666              		.loc 1 663 0
 2667 1076 3046     		mov	r0, r6
 2668 1078 3946     		mov	r1, r7
 2669 107a 0022     		movs	r2, #0
 2670 107c 5E4B     		ldr	r3, .L536+40
 2671 107e FFF7FEFF 		bl	__aeabi_dcmplt
 2672              	.LVL515:
 2673 1082 20B1     		cbz	r0, .L509
 664:C:/Users/geoma/Desktop/Scilab/toolboxes/STM32_toolbox_1-1/scicos_blocks/src/c\convert.c ****                     {
 665:C:/Users/geoma/Desktop/Scilab/toolboxes/STM32_toolbox_1-1/scicos_blocks/src/c\convert.c ****                         y[i] = -(SCSINT16_COP)(k / 2);
 2674              		.loc 1 665 0
 2675 1084 48F20103 		movw	r3, #32769
 2676 1088 28F81430 		strh	r3, [r8, r4, lsl #1]	@ movhi
 2677 108c 05E0     		b	.L212
 2678              	.L509:
 666:C:/Users/geoma/Desktop/Scilab/toolboxes/STM32_toolbox_1-1/scicos_blocks/src/c\convert.c ****                     }
 667:C:/Users/geoma/Desktop/Scilab/toolboxes/STM32_toolbox_1-1/scicos_blocks/src/c\convert.c ****                     else
 668:C:/Users/geoma/Desktop/Scilab/toolboxes/STM32_toolbox_1-1/scicos_blocks/src/c\convert.c ****                     {
 669:C:/Users/geoma/Desktop/Scilab/toolboxes/STM32_toolbox_1-1/scicos_blocks/src/c\convert.c ****                         y[i] = (SCSINT16_COP)(u[i]);
ARM GAS  C:\Users\geoma\AppData\Local\Temp\ccpZNVPJ.s 			page 61


 2679              		.loc 1 669 0
 2680 108e 3046     		mov	r0, r6
 2681 1090 3946     		mov	r1, r7
 2682 1092 FFF7FEFF 		bl	__aeabi_d2iz
 2683              	.LVL516:
 2684 1096 28F81400 		strh	r0, [r8, r4, lsl #1]	@ movhi
 2685              	.L212:
 657:C:/Users/geoma/Desktop/Scilab/toolboxes/STM32_toolbox_1-1/scicos_blocks/src/c\convert.c ****                 {
 2686              		.loc 1 657 0 discriminator 2
 2687 109a 0134     		adds	r4, r4, #1
 2688              	.LVL517:
 2689              	.L209:
 657:C:/Users/geoma/Desktop/Scilab/toolboxes/STM32_toolbox_1-1/scicos_blocks/src/c\convert.c ****                 {
 2690              		.loc 1 657 0 is_stmt 0 discriminator 1
 2691 109c 0AFB0BF3 		mul	r3, r10, fp
 2692 10a0 A342     		cmp	r3, r4
 2693 10a2 D7DC     		bgt	.L215
 2694 10a4 00F0D8BE 		b	.L1
 2695              	.LVL518:
 2696              	.L43:
 2697              	.LBE40:
 2698              	.LBB41:
 670:C:/Users/geoma/Desktop/Scilab/toolboxes/STM32_toolbox_1-1/scicos_blocks/src/c\convert.c ****                     }
 671:C:/Users/geoma/Desktop/Scilab/toolboxes/STM32_toolbox_1-1/scicos_blocks/src/c\convert.c ****                 }
 672:C:/Users/geoma/Desktop/Scilab/toolboxes/STM32_toolbox_1-1/scicos_blocks/src/c\convert.c ****                 break;
 673:C:/Users/geoma/Desktop/Scilab/toolboxes/STM32_toolbox_1-1/scicos_blocks/src/c\convert.c ****             }
 674:C:/Users/geoma/Desktop/Scilab/toolboxes/STM32_toolbox_1-1/scicos_blocks/src/c\convert.c ****             case 40:
 675:C:/Users/geoma/Desktop/Scilab/toolboxes/STM32_toolbox_1-1/scicos_blocks/src/c\convert.c ****             {
 676:C:/Users/geoma/Desktop/Scilab/toolboxes/STM32_toolbox_1-1/scicos_blocks/src/c\convert.c ****                 SCSREAL_COP *u = NULL;
 677:C:/Users/geoma/Desktop/Scilab/toolboxes/STM32_toolbox_1-1/scicos_blocks/src/c\convert.c ****                 SCSINT8_COP *y = NULL;
 678:C:/Users/geoma/Desktop/Scilab/toolboxes/STM32_toolbox_1-1/scicos_blocks/src/c\convert.c ****                 u = GetRealInPortPtrs(block, 1);
 2699              		.loc 1 678 0 is_stmt 1
 2700 10a8 436C     		ldr	r3, [r0, #68]
 2701 10aa 1D68     		ldr	r5, [r3]
 2702              	.LVL519:
 679:C:/Users/geoma/Desktop/Scilab/toolboxes/STM32_toolbox_1-1/scicos_blocks/src/c\convert.c ****                 y = Getint8OutPortPtrs(block, 1);
 2703              		.loc 1 679 0
 2704 10ac 036D     		ldr	r3, [r0, #80]
 2705 10ae D3F80080 		ldr	r8, [r3]
 2706              	.LVL520:
 680:C:/Users/geoma/Desktop/Scilab/toolboxes/STM32_toolbox_1-1/scicos_blocks/src/c\convert.c ****                 k = pow(2, 8);
 681:C:/Users/geoma/Desktop/Scilab/toolboxes/STM32_toolbox_1-1/scicos_blocks/src/c\convert.c ****                 for (i = 0; i < m * n; i++)
 2707              		.loc 1 681 0
 2708 10b2 0024     		movs	r4, #0
 2709              	.LVL521:
 2710 10b4 21E0     		b	.L216
 2711              	.LVL522:
 2712              	.L222:
 682:C:/Users/geoma/Desktop/Scilab/toolboxes/STM32_toolbox_1-1/scicos_blocks/src/c\convert.c ****                 {
 683:C:/Users/geoma/Desktop/Scilab/toolboxes/STM32_toolbox_1-1/scicos_blocks/src/c\convert.c ****                     if (u[i] > k / 2 - 1)
 2713              		.loc 1 683 0
 2714 10b6 05EBC403 		add	r3, r5, r4, lsl #3
 2715 10ba D3E90067 		ldrd	r6, [r3]
 2716 10be 3046     		mov	r0, r6
 2717 10c0 3946     		mov	r1, r7
 2718 10c2 47A3     		adr	r3, .L536+16
 2719 10c4 D3E90023 		ldrd	r2, [r3]
ARM GAS  C:\Users\geoma\AppData\Local\Temp\ccpZNVPJ.s 			page 62


 2720 10c8 FFF7FEFF 		bl	__aeabi_dcmpgt
 2721              	.LVL523:
 2722 10cc 18B1     		cbz	r0, .L510
 684:C:/Users/geoma/Desktop/Scilab/toolboxes/STM32_toolbox_1-1/scicos_blocks/src/c\convert.c ****                     {
 685:C:/Users/geoma/Desktop/Scilab/toolboxes/STM32_toolbox_1-1/scicos_blocks/src/c\convert.c ****                         y[i] = (SCSINT8_COP)(k / 2 - 1);
 2723              		.loc 1 685 0
 2724 10ce 7F23     		movs	r3, #127
 2725 10d0 08F80430 		strb	r3, [r8, r4]
 2726 10d4 10E0     		b	.L219
 2727              	.L510:
 686:C:/Users/geoma/Desktop/Scilab/toolboxes/STM32_toolbox_1-1/scicos_blocks/src/c\convert.c ****                     }
 687:C:/Users/geoma/Desktop/Scilab/toolboxes/STM32_toolbox_1-1/scicos_blocks/src/c\convert.c ****                     else if (u[i] < -(k / 2))
 2728              		.loc 1 687 0
 2729 10d6 3046     		mov	r0, r6
 2730 10d8 3946     		mov	r1, r7
 2731 10da 0022     		movs	r2, #0
 2732 10dc 474B     		ldr	r3, .L536+44
 2733 10de FFF7FEFF 		bl	__aeabi_dcmplt
 2734              	.LVL524:
 2735 10e2 18B1     		cbz	r0, .L511
 688:C:/Users/geoma/Desktop/Scilab/toolboxes/STM32_toolbox_1-1/scicos_blocks/src/c\convert.c ****                     {
 689:C:/Users/geoma/Desktop/Scilab/toolboxes/STM32_toolbox_1-1/scicos_blocks/src/c\convert.c ****                         y[i] = -(SCSINT8_COP)(k / 2);
 2736              		.loc 1 689 0
 2737 10e4 8023     		movs	r3, #128
 2738 10e6 08F80430 		strb	r3, [r8, r4]
 2739 10ea 05E0     		b	.L219
 2740              	.L511:
 690:C:/Users/geoma/Desktop/Scilab/toolboxes/STM32_toolbox_1-1/scicos_blocks/src/c\convert.c ****                     }
 691:C:/Users/geoma/Desktop/Scilab/toolboxes/STM32_toolbox_1-1/scicos_blocks/src/c\convert.c ****                     else
 692:C:/Users/geoma/Desktop/Scilab/toolboxes/STM32_toolbox_1-1/scicos_blocks/src/c\convert.c ****                     {
 693:C:/Users/geoma/Desktop/Scilab/toolboxes/STM32_toolbox_1-1/scicos_blocks/src/c\convert.c ****                         y[i] = (SCSINT8_COP)(u[i]);
 2741              		.loc 1 693 0
 2742 10ec 3046     		mov	r0, r6
 2743 10ee 3946     		mov	r1, r7
 2744 10f0 FFF7FEFF 		bl	__aeabi_d2uiz
 2745              	.LVL525:
 2746 10f4 08F80400 		strb	r0, [r8, r4]
 2747              	.L219:
 681:C:/Users/geoma/Desktop/Scilab/toolboxes/STM32_toolbox_1-1/scicos_blocks/src/c\convert.c ****                 {
 2748              		.loc 1 681 0 discriminator 2
 2749 10f8 0134     		adds	r4, r4, #1
 2750              	.LVL526:
 2751              	.L216:
 681:C:/Users/geoma/Desktop/Scilab/toolboxes/STM32_toolbox_1-1/scicos_blocks/src/c\convert.c ****                 {
 2752              		.loc 1 681 0 is_stmt 0 discriminator 1
 2753 10fa 0AFB0BF3 		mul	r3, r10, fp
 2754 10fe A342     		cmp	r3, r4
 2755 1100 D9DC     		bgt	.L222
 2756 1102 00F0A9BE 		b	.L1
 2757              	.LVL527:
 2758              	.L44:
 2759              	.LBE41:
 2760              	.LBB42:
 694:C:/Users/geoma/Desktop/Scilab/toolboxes/STM32_toolbox_1-1/scicos_blocks/src/c\convert.c ****                     }
 695:C:/Users/geoma/Desktop/Scilab/toolboxes/STM32_toolbox_1-1/scicos_blocks/src/c\convert.c ****                 }
 696:C:/Users/geoma/Desktop/Scilab/toolboxes/STM32_toolbox_1-1/scicos_blocks/src/c\convert.c ****                 break;
 697:C:/Users/geoma/Desktop/Scilab/toolboxes/STM32_toolbox_1-1/scicos_blocks/src/c\convert.c ****             }
ARM GAS  C:\Users\geoma\AppData\Local\Temp\ccpZNVPJ.s 			page 63


 698:C:/Users/geoma/Desktop/Scilab/toolboxes/STM32_toolbox_1-1/scicos_blocks/src/c\convert.c ****             case 41:
 699:C:/Users/geoma/Desktop/Scilab/toolboxes/STM32_toolbox_1-1/scicos_blocks/src/c\convert.c ****             {
 700:C:/Users/geoma/Desktop/Scilab/toolboxes/STM32_toolbox_1-1/scicos_blocks/src/c\convert.c ****                 SCSREAL_COP *u = NULL;
 701:C:/Users/geoma/Desktop/Scilab/toolboxes/STM32_toolbox_1-1/scicos_blocks/src/c\convert.c ****                 SCSUINT32_COP *y = NULL;
 702:C:/Users/geoma/Desktop/Scilab/toolboxes/STM32_toolbox_1-1/scicos_blocks/src/c\convert.c ****                 u = GetRealInPortPtrs(block, 1);
 2761              		.loc 1 702 0 is_stmt 1
 2762 1106 436C     		ldr	r3, [r0, #68]
 2763 1108 1D68     		ldr	r5, [r3]
 2764              	.LVL528:
 703:C:/Users/geoma/Desktop/Scilab/toolboxes/STM32_toolbox_1-1/scicos_blocks/src/c\convert.c ****                 y = Getuint32OutPortPtrs(block, 1);
 2765              		.loc 1 703 0
 2766 110a 036D     		ldr	r3, [r0, #80]
 2767 110c D3F80080 		ldr	r8, [r3]
 2768              	.LVL529:
 704:C:/Users/geoma/Desktop/Scilab/toolboxes/STM32_toolbox_1-1/scicos_blocks/src/c\convert.c ****                 k = pow(2, 32);
 705:C:/Users/geoma/Desktop/Scilab/toolboxes/STM32_toolbox_1-1/scicos_blocks/src/c\convert.c ****                 for (i = 0; i < m * n; i++)
 2769              		.loc 1 705 0
 2770 1110 0024     		movs	r4, #0
 2771              	.LVL530:
 2772 1112 21E0     		b	.L223
 2773              	.LVL531:
 2774              	.L229:
 706:C:/Users/geoma/Desktop/Scilab/toolboxes/STM32_toolbox_1-1/scicos_blocks/src/c\convert.c ****                 {
 707:C:/Users/geoma/Desktop/Scilab/toolboxes/STM32_toolbox_1-1/scicos_blocks/src/c\convert.c ****                     if (u[i] >= k)
 2775              		.loc 1 707 0
 2776 1114 05EBC403 		add	r3, r5, r4, lsl #3
 2777 1118 D3E90067 		ldrd	r6, [r3]
 2778 111c 3046     		mov	r0, r6
 2779 111e 3946     		mov	r1, r7
 2780 1120 0022     		movs	r2, #0
 2781 1122 374B     		ldr	r3, .L536+48
 2782 1124 FFF7FEFF 		bl	__aeabi_dcmpge
 2783              	.LVL532:
 2784 1128 20B1     		cbz	r0, .L512
 708:C:/Users/geoma/Desktop/Scilab/toolboxes/STM32_toolbox_1-1/scicos_blocks/src/c\convert.c ****                     {
 709:C:/Users/geoma/Desktop/Scilab/toolboxes/STM32_toolbox_1-1/scicos_blocks/src/c\convert.c ****                         y[i] = (SCSUINT32_COP)(k - 1);
 2785              		.loc 1 709 0
 2786 112a 4FF0FF33 		mov	r3, #-1
 2787 112e 48F82430 		str	r3, [r8, r4, lsl #2]
 2788 1132 10E0     		b	.L226
 2789              	.L512:
 710:C:/Users/geoma/Desktop/Scilab/toolboxes/STM32_toolbox_1-1/scicos_blocks/src/c\convert.c ****                     }
 711:C:/Users/geoma/Desktop/Scilab/toolboxes/STM32_toolbox_1-1/scicos_blocks/src/c\convert.c ****                     else if (u[i] < 0)
 2790              		.loc 1 711 0
 2791 1134 3046     		mov	r0, r6
 2792 1136 3946     		mov	r1, r7
 2793 1138 0022     		movs	r2, #0
 2794 113a 0023     		movs	r3, #0
 2795 113c FFF7FEFF 		bl	__aeabi_dcmplt
 2796              	.LVL533:
 2797 1140 18B1     		cbz	r0, .L513
 712:C:/Users/geoma/Desktop/Scilab/toolboxes/STM32_toolbox_1-1/scicos_blocks/src/c\convert.c ****                     {
 713:C:/Users/geoma/Desktop/Scilab/toolboxes/STM32_toolbox_1-1/scicos_blocks/src/c\convert.c ****                         y[i] = 0;
 2798              		.loc 1 713 0
 2799 1142 0023     		movs	r3, #0
 2800 1144 48F82430 		str	r3, [r8, r4, lsl #2]
 2801 1148 05E0     		b	.L226
ARM GAS  C:\Users\geoma\AppData\Local\Temp\ccpZNVPJ.s 			page 64


 2802              	.L513:
 714:C:/Users/geoma/Desktop/Scilab/toolboxes/STM32_toolbox_1-1/scicos_blocks/src/c\convert.c ****                     }
 715:C:/Users/geoma/Desktop/Scilab/toolboxes/STM32_toolbox_1-1/scicos_blocks/src/c\convert.c ****                     else
 716:C:/Users/geoma/Desktop/Scilab/toolboxes/STM32_toolbox_1-1/scicos_blocks/src/c\convert.c ****                     {
 717:C:/Users/geoma/Desktop/Scilab/toolboxes/STM32_toolbox_1-1/scicos_blocks/src/c\convert.c ****                         y[i] = (SCSUINT32_COP)(u[i]);
 2803              		.loc 1 717 0
 2804 114a 3046     		mov	r0, r6
 2805 114c 3946     		mov	r1, r7
 2806 114e FFF7FEFF 		bl	__aeabi_d2uiz
 2807              	.LVL534:
 2808 1152 48F82400 		str	r0, [r8, r4, lsl #2]
 2809              	.L226:
 705:C:/Users/geoma/Desktop/Scilab/toolboxes/STM32_toolbox_1-1/scicos_blocks/src/c\convert.c ****                 {
 2810              		.loc 1 705 0 discriminator 2
 2811 1156 0134     		adds	r4, r4, #1
 2812              	.LVL535:
 2813              	.L223:
 705:C:/Users/geoma/Desktop/Scilab/toolboxes/STM32_toolbox_1-1/scicos_blocks/src/c\convert.c ****                 {
 2814              		.loc 1 705 0 is_stmt 0 discriminator 1
 2815 1158 0AFB0BF3 		mul	r3, r10, fp
 2816 115c A342     		cmp	r3, r4
 2817 115e D9DC     		bgt	.L229
 2818 1160 00F07ABE 		b	.L1
 2819              	.LVL536:
 2820              	.L45:
 2821              	.LBE42:
 2822              	.LBB43:
 718:C:/Users/geoma/Desktop/Scilab/toolboxes/STM32_toolbox_1-1/scicos_blocks/src/c\convert.c ****                     }
 719:C:/Users/geoma/Desktop/Scilab/toolboxes/STM32_toolbox_1-1/scicos_blocks/src/c\convert.c ****                 }
 720:C:/Users/geoma/Desktop/Scilab/toolboxes/STM32_toolbox_1-1/scicos_blocks/src/c\convert.c ****                 break;
 721:C:/Users/geoma/Desktop/Scilab/toolboxes/STM32_toolbox_1-1/scicos_blocks/src/c\convert.c ****             }
 722:C:/Users/geoma/Desktop/Scilab/toolboxes/STM32_toolbox_1-1/scicos_blocks/src/c\convert.c ****             case 42:
 723:C:/Users/geoma/Desktop/Scilab/toolboxes/STM32_toolbox_1-1/scicos_blocks/src/c\convert.c ****             {
 724:C:/Users/geoma/Desktop/Scilab/toolboxes/STM32_toolbox_1-1/scicos_blocks/src/c\convert.c ****                 SCSREAL_COP *u = NULL;
 725:C:/Users/geoma/Desktop/Scilab/toolboxes/STM32_toolbox_1-1/scicos_blocks/src/c\convert.c ****                 SCSUINT16_COP *y = NULL;
 726:C:/Users/geoma/Desktop/Scilab/toolboxes/STM32_toolbox_1-1/scicos_blocks/src/c\convert.c ****                 u = GetRealInPortPtrs(block, 1);
 2823              		.loc 1 726 0 is_stmt 1
 2824 1164 436C     		ldr	r3, [r0, #68]
 2825 1166 1D68     		ldr	r5, [r3]
 2826              	.LVL537:
 727:C:/Users/geoma/Desktop/Scilab/toolboxes/STM32_toolbox_1-1/scicos_blocks/src/c\convert.c ****                 y = Getuint16OutPortPtrs(block, 1);
 2827              		.loc 1 727 0
 2828 1168 036D     		ldr	r3, [r0, #80]
 2829 116a D3F80080 		ldr	r8, [r3]
 2830              	.LVL538:
 728:C:/Users/geoma/Desktop/Scilab/toolboxes/STM32_toolbox_1-1/scicos_blocks/src/c\convert.c ****                 k = pow(2, 16);
 729:C:/Users/geoma/Desktop/Scilab/toolboxes/STM32_toolbox_1-1/scicos_blocks/src/c\convert.c ****                 for (i = 0; i < m * n; i++)
 2831              		.loc 1 729 0
 2832 116e 0024     		movs	r4, #0
 2833              	.LVL539:
 2834 1170 21E0     		b	.L230
 2835              	.LVL540:
 2836              	.L236:
 730:C:/Users/geoma/Desktop/Scilab/toolboxes/STM32_toolbox_1-1/scicos_blocks/src/c\convert.c ****                 {
 731:C:/Users/geoma/Desktop/Scilab/toolboxes/STM32_toolbox_1-1/scicos_blocks/src/c\convert.c ****                     if (u[i] >= k)
 2837              		.loc 1 731 0
 2838 1172 05EBC403 		add	r3, r5, r4, lsl #3
ARM GAS  C:\Users\geoma\AppData\Local\Temp\ccpZNVPJ.s 			page 65


 2839 1176 D3E90067 		ldrd	r6, [r3]
 2840 117a 3046     		mov	r0, r6
 2841 117c 3946     		mov	r1, r7
 2842 117e 0022     		movs	r2, #0
 2843 1180 204B     		ldr	r3, .L536+52
 2844 1182 FFF7FEFF 		bl	__aeabi_dcmpge
 2845              	.LVL541:
 2846 1186 20B1     		cbz	r0, .L514
 732:C:/Users/geoma/Desktop/Scilab/toolboxes/STM32_toolbox_1-1/scicos_blocks/src/c\convert.c ****                     {
 733:C:/Users/geoma/Desktop/Scilab/toolboxes/STM32_toolbox_1-1/scicos_blocks/src/c\convert.c ****                         y[i] = (SCSUINT16_COP)(k - 1);
 2847              		.loc 1 733 0
 2848 1188 4FF6FF73 		movw	r3, #65535
 2849 118c 28F81430 		strh	r3, [r8, r4, lsl #1]	@ movhi
 2850 1190 10E0     		b	.L233
 2851              	.L514:
 734:C:/Users/geoma/Desktop/Scilab/toolboxes/STM32_toolbox_1-1/scicos_blocks/src/c\convert.c ****                     }
 735:C:/Users/geoma/Desktop/Scilab/toolboxes/STM32_toolbox_1-1/scicos_blocks/src/c\convert.c ****                     else if (u[i] < 0)
 2852              		.loc 1 735 0
 2853 1192 3046     		mov	r0, r6
 2854 1194 3946     		mov	r1, r7
 2855 1196 0022     		movs	r2, #0
 2856 1198 0023     		movs	r3, #0
 2857 119a FFF7FEFF 		bl	__aeabi_dcmplt
 2858              	.LVL542:
 2859 119e 18B1     		cbz	r0, .L515
 736:C:/Users/geoma/Desktop/Scilab/toolboxes/STM32_toolbox_1-1/scicos_blocks/src/c\convert.c ****                     {
 737:C:/Users/geoma/Desktop/Scilab/toolboxes/STM32_toolbox_1-1/scicos_blocks/src/c\convert.c ****                         y[i] = 0;
 2860              		.loc 1 737 0
 2861 11a0 0023     		movs	r3, #0
 2862 11a2 28F81430 		strh	r3, [r8, r4, lsl #1]	@ movhi
 2863 11a6 05E0     		b	.L233
 2864              	.L515:
 738:C:/Users/geoma/Desktop/Scilab/toolboxes/STM32_toolbox_1-1/scicos_blocks/src/c\convert.c ****                     }
 739:C:/Users/geoma/Desktop/Scilab/toolboxes/STM32_toolbox_1-1/scicos_blocks/src/c\convert.c ****                     else
 740:C:/Users/geoma/Desktop/Scilab/toolboxes/STM32_toolbox_1-1/scicos_blocks/src/c\convert.c ****                     {
 741:C:/Users/geoma/Desktop/Scilab/toolboxes/STM32_toolbox_1-1/scicos_blocks/src/c\convert.c ****                         y[i] = (SCSUINT16_COP)(u[i]);
 2865              		.loc 1 741 0
 2866 11a8 3046     		mov	r0, r6
 2867 11aa 3946     		mov	r1, r7
 2868 11ac FFF7FEFF 		bl	__aeabi_d2uiz
 2869              	.LVL543:
 2870 11b0 28F81400 		strh	r0, [r8, r4, lsl #1]	@ movhi
 2871              	.L233:
 729:C:/Users/geoma/Desktop/Scilab/toolboxes/STM32_toolbox_1-1/scicos_blocks/src/c\convert.c ****                 {
 2872              		.loc 1 729 0 discriminator 2
 2873 11b4 0134     		adds	r4, r4, #1
 2874              	.LVL544:
 2875              	.L230:
 729:C:/Users/geoma/Desktop/Scilab/toolboxes/STM32_toolbox_1-1/scicos_blocks/src/c\convert.c ****                 {
 2876              		.loc 1 729 0 is_stmt 0 discriminator 1
 2877 11b6 0AFB0BF3 		mul	r3, r10, fp
 2878 11ba A342     		cmp	r3, r4
 2879 11bc D9DC     		bgt	.L236
 2880 11be 00F04BBE 		b	.L1
 2881              	.LVL545:
 2882              	.L46:
 2883              	.LBE43:
ARM GAS  C:\Users\geoma\AppData\Local\Temp\ccpZNVPJ.s 			page 66


 2884              	.LBB44:
 742:C:/Users/geoma/Desktop/Scilab/toolboxes/STM32_toolbox_1-1/scicos_blocks/src/c\convert.c ****                     }
 743:C:/Users/geoma/Desktop/Scilab/toolboxes/STM32_toolbox_1-1/scicos_blocks/src/c\convert.c ****                 }
 744:C:/Users/geoma/Desktop/Scilab/toolboxes/STM32_toolbox_1-1/scicos_blocks/src/c\convert.c ****                 break;
 745:C:/Users/geoma/Desktop/Scilab/toolboxes/STM32_toolbox_1-1/scicos_blocks/src/c\convert.c ****             }
 746:C:/Users/geoma/Desktop/Scilab/toolboxes/STM32_toolbox_1-1/scicos_blocks/src/c\convert.c ****             case 43:
 747:C:/Users/geoma/Desktop/Scilab/toolboxes/STM32_toolbox_1-1/scicos_blocks/src/c\convert.c ****             {
 748:C:/Users/geoma/Desktop/Scilab/toolboxes/STM32_toolbox_1-1/scicos_blocks/src/c\convert.c ****                 SCSREAL_COP *u = NULL;
 749:C:/Users/geoma/Desktop/Scilab/toolboxes/STM32_toolbox_1-1/scicos_blocks/src/c\convert.c ****                 SCSUINT8_COP *y = NULL;
 750:C:/Users/geoma/Desktop/Scilab/toolboxes/STM32_toolbox_1-1/scicos_blocks/src/c\convert.c ****                 u = GetRealInPortPtrs(block, 1);
 2885              		.loc 1 750 0 is_stmt 1
 2886 11c2 436C     		ldr	r3, [r0, #68]
 2887 11c4 1D68     		ldr	r5, [r3]
 2888              	.LVL546:
 751:C:/Users/geoma/Desktop/Scilab/toolboxes/STM32_toolbox_1-1/scicos_blocks/src/c\convert.c ****                 y = Getuint8OutPortPtrs(block, 1);
 2889              		.loc 1 751 0
 2890 11c6 036D     		ldr	r3, [r0, #80]
 2891 11c8 D3F80080 		ldr	r8, [r3]
 2892              	.LVL547:
 752:C:/Users/geoma/Desktop/Scilab/toolboxes/STM32_toolbox_1-1/scicos_blocks/src/c\convert.c ****                 k = pow(2, 8);
 753:C:/Users/geoma/Desktop/Scilab/toolboxes/STM32_toolbox_1-1/scicos_blocks/src/c\convert.c ****                 for (i = 0; i < m * n; i++)
 2893              		.loc 1 753 0
 2894 11cc 0024     		movs	r4, #0
 2895              	.LVL548:
 2896 11ce 3CE0     		b	.L237
 2897              	.L537:
 2898              		.align	3
 2899              	.L536:
 2900 11d0 0000C0FF 		.word	-4194304
 2901 11d4 FFFFDF41 		.word	1105199103
 2902 11d8 00000000 		.word	0
 2903 11dc C0FFDF40 		.word	1088421824
 2904 11e0 00000000 		.word	0
 2905 11e4 00C05F40 		.word	1080016896
 2906 11e8 0000703F 		.word	1064304640
 2907 11ec 00007040 		.word	1081081856
 2908 11f0 0000E0C1 		.word	-1042284544
 2909 11f4 01000080 		.word	-2147483647
 2910 11f8 0000E0C0 		.word	-1059061760
 2911 11fc 000060C0 		.word	-1067450368
 2912 1200 0000F041 		.word	1106247680
 2913 1204 0000F040 		.word	1089470464
 2914              	.LVL549:
 2915              	.L243:
 754:C:/Users/geoma/Desktop/Scilab/toolboxes/STM32_toolbox_1-1/scicos_blocks/src/c\convert.c ****                 {
 755:C:/Users/geoma/Desktop/Scilab/toolboxes/STM32_toolbox_1-1/scicos_blocks/src/c\convert.c ****                     if (u[i] >= k)
 2916              		.loc 1 755 0
 2917 1208 05EBC403 		add	r3, r5, r4, lsl #3
 2918 120c D3E90067 		ldrd	r6, [r3]
 2919 1210 3046     		mov	r0, r6
 2920 1212 3946     		mov	r1, r7
 2921 1214 0022     		movs	r2, #0
 2922 1216 B74B     		ldr	r3, .L538
 2923 1218 FFF7FEFF 		bl	__aeabi_dcmpge
 2924              	.LVL550:
 2925 121c 18B1     		cbz	r0, .L516
 756:C:/Users/geoma/Desktop/Scilab/toolboxes/STM32_toolbox_1-1/scicos_blocks/src/c\convert.c ****                     {
ARM GAS  C:\Users\geoma\AppData\Local\Temp\ccpZNVPJ.s 			page 67


 757:C:/Users/geoma/Desktop/Scilab/toolboxes/STM32_toolbox_1-1/scicos_blocks/src/c\convert.c ****                         y[i] = (SCSUINT8_COP)(k - 1);
 2926              		.loc 1 757 0
 2927 121e FF23     		movs	r3, #255
 2928 1220 08F80430 		strb	r3, [r8, r4]
 2929 1224 10E0     		b	.L240
 2930              	.L516:
 758:C:/Users/geoma/Desktop/Scilab/toolboxes/STM32_toolbox_1-1/scicos_blocks/src/c\convert.c ****                     }
 759:C:/Users/geoma/Desktop/Scilab/toolboxes/STM32_toolbox_1-1/scicos_blocks/src/c\convert.c ****                     else if (u[i] < 0)
 2931              		.loc 1 759 0
 2932 1226 3046     		mov	r0, r6
 2933 1228 3946     		mov	r1, r7
 2934 122a 0022     		movs	r2, #0
 2935 122c 0023     		movs	r3, #0
 2936 122e FFF7FEFF 		bl	__aeabi_dcmplt
 2937              	.LVL551:
 2938 1232 18B1     		cbz	r0, .L517
 760:C:/Users/geoma/Desktop/Scilab/toolboxes/STM32_toolbox_1-1/scicos_blocks/src/c\convert.c ****                     {
 761:C:/Users/geoma/Desktop/Scilab/toolboxes/STM32_toolbox_1-1/scicos_blocks/src/c\convert.c ****                         y[i] = 0;
 2939              		.loc 1 761 0
 2940 1234 0023     		movs	r3, #0
 2941 1236 08F80430 		strb	r3, [r8, r4]
 2942 123a 05E0     		b	.L240
 2943              	.L517:
 762:C:/Users/geoma/Desktop/Scilab/toolboxes/STM32_toolbox_1-1/scicos_blocks/src/c\convert.c ****                     }
 763:C:/Users/geoma/Desktop/Scilab/toolboxes/STM32_toolbox_1-1/scicos_blocks/src/c\convert.c ****                     else
 764:C:/Users/geoma/Desktop/Scilab/toolboxes/STM32_toolbox_1-1/scicos_blocks/src/c\convert.c ****                     {
 765:C:/Users/geoma/Desktop/Scilab/toolboxes/STM32_toolbox_1-1/scicos_blocks/src/c\convert.c ****                         y[i] = (SCSUINT8_COP)(u[i]);
 2944              		.loc 1 765 0
 2945 123c 3046     		mov	r0, r6
 2946 123e 3946     		mov	r1, r7
 2947 1240 FFF7FEFF 		bl	__aeabi_d2uiz
 2948              	.LVL552:
 2949 1244 08F80400 		strb	r0, [r8, r4]
 2950              	.L240:
 753:C:/Users/geoma/Desktop/Scilab/toolboxes/STM32_toolbox_1-1/scicos_blocks/src/c\convert.c ****                 {
 2951              		.loc 1 753 0 discriminator 2
 2952 1248 0134     		adds	r4, r4, #1
 2953              	.LVL553:
 2954              	.L237:
 753:C:/Users/geoma/Desktop/Scilab/toolboxes/STM32_toolbox_1-1/scicos_blocks/src/c\convert.c ****                 {
 2955              		.loc 1 753 0 is_stmt 0 discriminator 1
 2956 124a 0AFB0BF3 		mul	r3, r10, fp
 2957 124e A342     		cmp	r3, r4
 2958 1250 DADC     		bgt	.L243
 2959 1252 00F001BE 		b	.L1
 2960              	.LVL554:
 2961              	.L47:
 2962              	.LBE44:
 2963              	.LBB45:
 766:C:/Users/geoma/Desktop/Scilab/toolboxes/STM32_toolbox_1-1/scicos_blocks/src/c\convert.c ****                     }
 767:C:/Users/geoma/Desktop/Scilab/toolboxes/STM32_toolbox_1-1/scicos_blocks/src/c\convert.c ****                 }
 768:C:/Users/geoma/Desktop/Scilab/toolboxes/STM32_toolbox_1-1/scicos_blocks/src/c\convert.c ****                 break;
 769:C:/Users/geoma/Desktop/Scilab/toolboxes/STM32_toolbox_1-1/scicos_blocks/src/c\convert.c ****             }
 770:C:/Users/geoma/Desktop/Scilab/toolboxes/STM32_toolbox_1-1/scicos_blocks/src/c\convert.c ****             case 44:
 771:C:/Users/geoma/Desktop/Scilab/toolboxes/STM32_toolbox_1-1/scicos_blocks/src/c\convert.c ****             {
 772:C:/Users/geoma/Desktop/Scilab/toolboxes/STM32_toolbox_1-1/scicos_blocks/src/c\convert.c ****                 SCSINT32_COP *u = NULL;
 773:C:/Users/geoma/Desktop/Scilab/toolboxes/STM32_toolbox_1-1/scicos_blocks/src/c\convert.c ****                 SCSINT16_COP *y = NULL;
ARM GAS  C:\Users\geoma\AppData\Local\Temp\ccpZNVPJ.s 			page 68


 774:C:/Users/geoma/Desktop/Scilab/toolboxes/STM32_toolbox_1-1/scicos_blocks/src/c\convert.c ****                 u = Getint32InPortPtrs(block, 1);
 2964              		.loc 1 774 0 is_stmt 1
 2965 1256 436C     		ldr	r3, [r0, #68]
 2966 1258 1C68     		ldr	r4, [r3]
 2967              	.LVL555:
 775:C:/Users/geoma/Desktop/Scilab/toolboxes/STM32_toolbox_1-1/scicos_blocks/src/c\convert.c ****                 y = Getint16OutPortPtrs(block, 1);
 2968              		.loc 1 775 0
 2969 125a 036D     		ldr	r3, [r0, #80]
 2970 125c 1868     		ldr	r0, [r3]
 2971              	.LVL556:
 776:C:/Users/geoma/Desktop/Scilab/toolboxes/STM32_toolbox_1-1/scicos_blocks/src/c\convert.c ****                 k = pow(2, 16);
 777:C:/Users/geoma/Desktop/Scilab/toolboxes/STM32_toolbox_1-1/scicos_blocks/src/c\convert.c ****                 for (i = 0; i < m * n; i++)
 2972              		.loc 1 777 0
 2973 125e 0023     		movs	r3, #0
 2974 1260 14E0     		b	.L244
 2975              	.LVL557:
 2976              	.L248:
 778:C:/Users/geoma/Desktop/Scilab/toolboxes/STM32_toolbox_1-1/scicos_blocks/src/c\convert.c ****                 {
 779:C:/Users/geoma/Desktop/Scilab/toolboxes/STM32_toolbox_1-1/scicos_blocks/src/c\convert.c ****                     if (u[i] > (SCSINT32_COP)(k / 2 - 1))
 2977              		.loc 1 779 0
 2978 1262 54F82320 		ldr	r2, [r4, r3, lsl #2]
 2979 1266 B2F5004F 		cmp	r2, #32768
 2980 126a 04DB     		blt	.L245
 780:C:/Users/geoma/Desktop/Scilab/toolboxes/STM32_toolbox_1-1/scicos_blocks/src/c\convert.c ****                     {
 781:C:/Users/geoma/Desktop/Scilab/toolboxes/STM32_toolbox_1-1/scicos_blocks/src/c\convert.c ****                         y[i] = (SCSINT16_COP)(k / 2 - 1);
 2981              		.loc 1 781 0
 2982 126c 47F6FF72 		movw	r2, #32767
 2983 1270 20F81320 		strh	r2, [r0, r3, lsl #1]	@ movhi
 2984 1274 09E0     		b	.L246
 2985              	.L245:
 782:C:/Users/geoma/Desktop/Scilab/toolboxes/STM32_toolbox_1-1/scicos_blocks/src/c\convert.c ****                     }
 783:C:/Users/geoma/Desktop/Scilab/toolboxes/STM32_toolbox_1-1/scicos_blocks/src/c\convert.c ****                     else if (u[i] < -(SCSINT32_COP)(k / 2))
 2986              		.loc 1 783 0
 2987 1276 12F5004F 		cmn	r2, #32768
 2988 127a 04DA     		bge	.L247
 784:C:/Users/geoma/Desktop/Scilab/toolboxes/STM32_toolbox_1-1/scicos_blocks/src/c\convert.c ****                     {
 785:C:/Users/geoma/Desktop/Scilab/toolboxes/STM32_toolbox_1-1/scicos_blocks/src/c\convert.c ****                         y[i] = -(SCSINT16_COP)(k / 2);
 2989              		.loc 1 785 0
 2990 127c 48F20102 		movw	r2, #32769
 2991 1280 20F81320 		strh	r2, [r0, r3, lsl #1]	@ movhi
 2992 1284 01E0     		b	.L246
 2993              	.L247:
 786:C:/Users/geoma/Desktop/Scilab/toolboxes/STM32_toolbox_1-1/scicos_blocks/src/c\convert.c ****                     }
 787:C:/Users/geoma/Desktop/Scilab/toolboxes/STM32_toolbox_1-1/scicos_blocks/src/c\convert.c ****                     else
 788:C:/Users/geoma/Desktop/Scilab/toolboxes/STM32_toolbox_1-1/scicos_blocks/src/c\convert.c ****                     {
 789:C:/Users/geoma/Desktop/Scilab/toolboxes/STM32_toolbox_1-1/scicos_blocks/src/c\convert.c ****                         y[i] = (SCSINT16_COP)(u[i]);
 2994              		.loc 1 789 0
 2995 1286 20F81320 		strh	r2, [r0, r3, lsl #1]	@ movhi
 2996              	.L246:
 777:C:/Users/geoma/Desktop/Scilab/toolboxes/STM32_toolbox_1-1/scicos_blocks/src/c\convert.c ****                 {
 2997              		.loc 1 777 0 discriminator 2
 2998 128a 0133     		adds	r3, r3, #1
 2999              	.LVL558:
 3000              	.L244:
 777:C:/Users/geoma/Desktop/Scilab/toolboxes/STM32_toolbox_1-1/scicos_blocks/src/c\convert.c ****                 {
 3001              		.loc 1 777 0 is_stmt 0 discriminator 1
 3002 128c 0AFB0BF2 		mul	r2, r10, fp
ARM GAS  C:\Users\geoma\AppData\Local\Temp\ccpZNVPJ.s 			page 69


 3003 1290 9A42     		cmp	r2, r3
 3004 1292 E6DC     		bgt	.L248
 3005 1294 00F0E0BD 		b	.L1
 3006              	.LVL559:
 3007              	.L48:
 3008              	.LBE45:
 3009              	.LBB46:
 790:C:/Users/geoma/Desktop/Scilab/toolboxes/STM32_toolbox_1-1/scicos_blocks/src/c\convert.c ****                     }
 791:C:/Users/geoma/Desktop/Scilab/toolboxes/STM32_toolbox_1-1/scicos_blocks/src/c\convert.c ****                 }
 792:C:/Users/geoma/Desktop/Scilab/toolboxes/STM32_toolbox_1-1/scicos_blocks/src/c\convert.c ****                 break;
 793:C:/Users/geoma/Desktop/Scilab/toolboxes/STM32_toolbox_1-1/scicos_blocks/src/c\convert.c ****             }
 794:C:/Users/geoma/Desktop/Scilab/toolboxes/STM32_toolbox_1-1/scicos_blocks/src/c\convert.c ****             case 45:
 795:C:/Users/geoma/Desktop/Scilab/toolboxes/STM32_toolbox_1-1/scicos_blocks/src/c\convert.c ****             {
 796:C:/Users/geoma/Desktop/Scilab/toolboxes/STM32_toolbox_1-1/scicos_blocks/src/c\convert.c ****                 SCSINT32_COP *u = NULL;
 797:C:/Users/geoma/Desktop/Scilab/toolboxes/STM32_toolbox_1-1/scicos_blocks/src/c\convert.c ****                 SCSINT8_COP *y = NULL;
 798:C:/Users/geoma/Desktop/Scilab/toolboxes/STM32_toolbox_1-1/scicos_blocks/src/c\convert.c ****                 u = Getint32InPortPtrs(block, 1);
 3010              		.loc 1 798 0 is_stmt 1
 3011 1298 436C     		ldr	r3, [r0, #68]
 3012 129a 1C68     		ldr	r4, [r3]
 3013              	.LVL560:
 799:C:/Users/geoma/Desktop/Scilab/toolboxes/STM32_toolbox_1-1/scicos_blocks/src/c\convert.c ****                 y = Getint8OutPortPtrs(block, 1);
 3014              		.loc 1 799 0
 3015 129c 036D     		ldr	r3, [r0, #80]
 3016 129e 1868     		ldr	r0, [r3]
 3017              	.LVL561:
 800:C:/Users/geoma/Desktop/Scilab/toolboxes/STM32_toolbox_1-1/scicos_blocks/src/c\convert.c ****                 k = pow(2, 8);
 801:C:/Users/geoma/Desktop/Scilab/toolboxes/STM32_toolbox_1-1/scicos_blocks/src/c\convert.c ****                 for (i = 0; i < m * n; i++)
 3018              		.loc 1 801 0
 3019 12a0 0023     		movs	r3, #0
 3020 12a2 0EE0     		b	.L249
 3021              	.LVL562:
 3022              	.L253:
 802:C:/Users/geoma/Desktop/Scilab/toolboxes/STM32_toolbox_1-1/scicos_blocks/src/c\convert.c ****                 {
 803:C:/Users/geoma/Desktop/Scilab/toolboxes/STM32_toolbox_1-1/scicos_blocks/src/c\convert.c ****                     if (u[i] > (SCSINT32_COP)(k / 2 - 1))
 3023              		.loc 1 803 0
 3024 12a4 54F82320 		ldr	r2, [r4, r3, lsl #2]
 3025 12a8 7F2A     		cmp	r2, #127
 3026 12aa 02DD     		ble	.L250
 804:C:/Users/geoma/Desktop/Scilab/toolboxes/STM32_toolbox_1-1/scicos_blocks/src/c\convert.c ****                     {
 805:C:/Users/geoma/Desktop/Scilab/toolboxes/STM32_toolbox_1-1/scicos_blocks/src/c\convert.c ****                         y[i] = (SCSINT8_COP)(k / 2 - 1);
 3027              		.loc 1 805 0
 3028 12ac 7F22     		movs	r2, #127
 3029 12ae C254     		strb	r2, [r0, r3]
 3030 12b0 06E0     		b	.L251
 3031              	.L250:
 806:C:/Users/geoma/Desktop/Scilab/toolboxes/STM32_toolbox_1-1/scicos_blocks/src/c\convert.c ****                     }
 807:C:/Users/geoma/Desktop/Scilab/toolboxes/STM32_toolbox_1-1/scicos_blocks/src/c\convert.c ****                     else if (u[i] < -(SCSINT32_COP)(k / 2))
 3032              		.loc 1 807 0
 3033 12b2 12F1800F 		cmn	r2, #128
 3034 12b6 02DA     		bge	.L252
 808:C:/Users/geoma/Desktop/Scilab/toolboxes/STM32_toolbox_1-1/scicos_blocks/src/c\convert.c ****                     {
 809:C:/Users/geoma/Desktop/Scilab/toolboxes/STM32_toolbox_1-1/scicos_blocks/src/c\convert.c ****                         y[i] = -(SCSINT8_COP)(k / 2);
 3035              		.loc 1 809 0
 3036 12b8 8022     		movs	r2, #128
 3037 12ba C254     		strb	r2, [r0, r3]
 3038 12bc 00E0     		b	.L251
 3039              	.L252:
ARM GAS  C:\Users\geoma\AppData\Local\Temp\ccpZNVPJ.s 			page 70


 810:C:/Users/geoma/Desktop/Scilab/toolboxes/STM32_toolbox_1-1/scicos_blocks/src/c\convert.c ****                     }
 811:C:/Users/geoma/Desktop/Scilab/toolboxes/STM32_toolbox_1-1/scicos_blocks/src/c\convert.c ****                     else
 812:C:/Users/geoma/Desktop/Scilab/toolboxes/STM32_toolbox_1-1/scicos_blocks/src/c\convert.c ****                     {
 813:C:/Users/geoma/Desktop/Scilab/toolboxes/STM32_toolbox_1-1/scicos_blocks/src/c\convert.c ****                         y[i] = (SCSINT8_COP)(u[i]);
 3040              		.loc 1 813 0
 3041 12be C254     		strb	r2, [r0, r3]
 3042              	.L251:
 801:C:/Users/geoma/Desktop/Scilab/toolboxes/STM32_toolbox_1-1/scicos_blocks/src/c\convert.c ****                 {
 3043              		.loc 1 801 0 discriminator 2
 3044 12c0 0133     		adds	r3, r3, #1
 3045              	.LVL563:
 3046              	.L249:
 801:C:/Users/geoma/Desktop/Scilab/toolboxes/STM32_toolbox_1-1/scicos_blocks/src/c\convert.c ****                 {
 3047              		.loc 1 801 0 is_stmt 0 discriminator 1
 3048 12c2 0AFB0BF2 		mul	r2, r10, fp
 3049 12c6 9A42     		cmp	r2, r3
 3050 12c8 ECDC     		bgt	.L253
 3051 12ca 00F0C5BD 		b	.L1
 3052              	.LVL564:
 3053              	.L49:
 3054              	.LBE46:
 3055              	.LBB47:
 814:C:/Users/geoma/Desktop/Scilab/toolboxes/STM32_toolbox_1-1/scicos_blocks/src/c\convert.c ****                     }
 815:C:/Users/geoma/Desktop/Scilab/toolboxes/STM32_toolbox_1-1/scicos_blocks/src/c\convert.c ****                 }
 816:C:/Users/geoma/Desktop/Scilab/toolboxes/STM32_toolbox_1-1/scicos_blocks/src/c\convert.c ****                 break;
 817:C:/Users/geoma/Desktop/Scilab/toolboxes/STM32_toolbox_1-1/scicos_blocks/src/c\convert.c ****             }
 818:C:/Users/geoma/Desktop/Scilab/toolboxes/STM32_toolbox_1-1/scicos_blocks/src/c\convert.c ****             case 46:
 819:C:/Users/geoma/Desktop/Scilab/toolboxes/STM32_toolbox_1-1/scicos_blocks/src/c\convert.c ****             {
 820:C:/Users/geoma/Desktop/Scilab/toolboxes/STM32_toolbox_1-1/scicos_blocks/src/c\convert.c ****                 SCSINT32_COP *u = NULL;
 821:C:/Users/geoma/Desktop/Scilab/toolboxes/STM32_toolbox_1-1/scicos_blocks/src/c\convert.c ****                 SCSUINT32_COP *y = NULL;
 822:C:/Users/geoma/Desktop/Scilab/toolboxes/STM32_toolbox_1-1/scicos_blocks/src/c\convert.c ****                 u = Getint32InPortPtrs(block, 1);
 3056              		.loc 1 822 0 is_stmt 1
 3057 12ce 436C     		ldr	r3, [r0, #68]
 3058 12d0 1C68     		ldr	r4, [r3]
 3059              	.LVL565:
 823:C:/Users/geoma/Desktop/Scilab/toolboxes/STM32_toolbox_1-1/scicos_blocks/src/c\convert.c ****                 y = Getuint32OutPortPtrs(block, 1);
 3060              		.loc 1 823 0
 3061 12d2 036D     		ldr	r3, [r0, #80]
 3062 12d4 1968     		ldr	r1, [r3]
 3063              	.LVL566:
 824:C:/Users/geoma/Desktop/Scilab/toolboxes/STM32_toolbox_1-1/scicos_blocks/src/c\convert.c ****                 for (i = 0; i < m * n; i++)
 3064              		.loc 1 824 0
 3065 12d6 0023     		movs	r3, #0
 3066 12d8 0AE0     		b	.L254
 3067              	.LVL567:
 3068              	.L257:
 825:C:/Users/geoma/Desktop/Scilab/toolboxes/STM32_toolbox_1-1/scicos_blocks/src/c\convert.c ****                 {
 826:C:/Users/geoma/Desktop/Scilab/toolboxes/STM32_toolbox_1-1/scicos_blocks/src/c\convert.c ****                     if (u[i] < 0)
 3069              		.loc 1 826 0
 3070 12da 54F82320 		ldr	r2, [r4, r3, lsl #2]
 3071 12de 002A     		cmp	r2, #0
 3072 12e0 03DA     		bge	.L255
 827:C:/Users/geoma/Desktop/Scilab/toolboxes/STM32_toolbox_1-1/scicos_blocks/src/c\convert.c ****                     {
 828:C:/Users/geoma/Desktop/Scilab/toolboxes/STM32_toolbox_1-1/scicos_blocks/src/c\convert.c ****                         y[i] = 0;
 3073              		.loc 1 828 0
 3074 12e2 0022     		movs	r2, #0
 3075 12e4 41F82320 		str	r2, [r1, r3, lsl #2]
ARM GAS  C:\Users\geoma\AppData\Local\Temp\ccpZNVPJ.s 			page 71


 3076 12e8 01E0     		b	.L256
 3077              	.L255:
 829:C:/Users/geoma/Desktop/Scilab/toolboxes/STM32_toolbox_1-1/scicos_blocks/src/c\convert.c ****                     }
 830:C:/Users/geoma/Desktop/Scilab/toolboxes/STM32_toolbox_1-1/scicos_blocks/src/c\convert.c ****                     else
 831:C:/Users/geoma/Desktop/Scilab/toolboxes/STM32_toolbox_1-1/scicos_blocks/src/c\convert.c ****                     {
 832:C:/Users/geoma/Desktop/Scilab/toolboxes/STM32_toolbox_1-1/scicos_blocks/src/c\convert.c ****                         y[i] = (SCSUINT32_COP)(u[i]);
 3078              		.loc 1 832 0
 3079 12ea 41F82320 		str	r2, [r1, r3, lsl #2]
 3080              	.L256:
 824:C:/Users/geoma/Desktop/Scilab/toolboxes/STM32_toolbox_1-1/scicos_blocks/src/c\convert.c ****                 {
 3081              		.loc 1 824 0 discriminator 2
 3082 12ee 0133     		adds	r3, r3, #1
 3083              	.LVL568:
 3084              	.L254:
 824:C:/Users/geoma/Desktop/Scilab/toolboxes/STM32_toolbox_1-1/scicos_blocks/src/c\convert.c ****                 {
 3085              		.loc 1 824 0 is_stmt 0 discriminator 1
 3086 12f0 0AFB0BF2 		mul	r2, r10, fp
 3087 12f4 9A42     		cmp	r2, r3
 3088 12f6 F0DC     		bgt	.L257
 3089 12f8 00F0AEBD 		b	.L1
 3090              	.LVL569:
 3091              	.L50:
 3092              	.LBE47:
 3093              	.LBB48:
 833:C:/Users/geoma/Desktop/Scilab/toolboxes/STM32_toolbox_1-1/scicos_blocks/src/c\convert.c ****                     }
 834:C:/Users/geoma/Desktop/Scilab/toolboxes/STM32_toolbox_1-1/scicos_blocks/src/c\convert.c ****                 }
 835:C:/Users/geoma/Desktop/Scilab/toolboxes/STM32_toolbox_1-1/scicos_blocks/src/c\convert.c ****                 break;
 836:C:/Users/geoma/Desktop/Scilab/toolboxes/STM32_toolbox_1-1/scicos_blocks/src/c\convert.c ****             }
 837:C:/Users/geoma/Desktop/Scilab/toolboxes/STM32_toolbox_1-1/scicos_blocks/src/c\convert.c ****             case 47:
 838:C:/Users/geoma/Desktop/Scilab/toolboxes/STM32_toolbox_1-1/scicos_blocks/src/c\convert.c ****             {
 839:C:/Users/geoma/Desktop/Scilab/toolboxes/STM32_toolbox_1-1/scicos_blocks/src/c\convert.c ****                 SCSINT32_COP *u = NULL;
 840:C:/Users/geoma/Desktop/Scilab/toolboxes/STM32_toolbox_1-1/scicos_blocks/src/c\convert.c ****                 SCSUINT16_COP *y = NULL;
 841:C:/Users/geoma/Desktop/Scilab/toolboxes/STM32_toolbox_1-1/scicos_blocks/src/c\convert.c ****                 u = Getint32InPortPtrs(block, 1);
 3094              		.loc 1 841 0 is_stmt 1
 3095 12fc 436C     		ldr	r3, [r0, #68]
 3096 12fe 1C68     		ldr	r4, [r3]
 3097              	.LVL570:
 842:C:/Users/geoma/Desktop/Scilab/toolboxes/STM32_toolbox_1-1/scicos_blocks/src/c\convert.c ****                 y = Getuint16OutPortPtrs(block, 1);
 3098              		.loc 1 842 0
 3099 1300 036D     		ldr	r3, [r0, #80]
 3100 1302 1868     		ldr	r0, [r3]
 3101              	.LVL571:
 843:C:/Users/geoma/Desktop/Scilab/toolboxes/STM32_toolbox_1-1/scicos_blocks/src/c\convert.c ****                 k = pow(2, 16);
 844:C:/Users/geoma/Desktop/Scilab/toolboxes/STM32_toolbox_1-1/scicos_blocks/src/c\convert.c ****                 for (i = 0; i < m * n; i++)
 3102              		.loc 1 844 0
 3103 1304 0023     		movs	r3, #0
 3104 1306 12E0     		b	.L258
 3105              	.LVL572:
 3106              	.L262:
 845:C:/Users/geoma/Desktop/Scilab/toolboxes/STM32_toolbox_1-1/scicos_blocks/src/c\convert.c ****                 {
 846:C:/Users/geoma/Desktop/Scilab/toolboxes/STM32_toolbox_1-1/scicos_blocks/src/c\convert.c ****                     if (u[i] >= (SCSINT32_COP)(k))
 3107              		.loc 1 846 0
 3108 1308 54F82320 		ldr	r2, [r4, r3, lsl #2]
 3109 130c B2F5803F 		cmp	r2, #65536
 3110 1310 04DB     		blt	.L259
 847:C:/Users/geoma/Desktop/Scilab/toolboxes/STM32_toolbox_1-1/scicos_blocks/src/c\convert.c ****                     {
 848:C:/Users/geoma/Desktop/Scilab/toolboxes/STM32_toolbox_1-1/scicos_blocks/src/c\convert.c ****                         y[i] = (SCSUINT16_COP)(k - 1);
ARM GAS  C:\Users\geoma\AppData\Local\Temp\ccpZNVPJ.s 			page 72


 3111              		.loc 1 848 0
 3112 1312 4FF6FF72 		movw	r2, #65535
 3113 1316 20F81320 		strh	r2, [r0, r3, lsl #1]	@ movhi
 3114 131a 07E0     		b	.L260
 3115              	.L259:
 849:C:/Users/geoma/Desktop/Scilab/toolboxes/STM32_toolbox_1-1/scicos_blocks/src/c\convert.c ****                     }
 850:C:/Users/geoma/Desktop/Scilab/toolboxes/STM32_toolbox_1-1/scicos_blocks/src/c\convert.c ****                     else if (u[i] < 0)
 3116              		.loc 1 850 0
 3117 131c 002A     		cmp	r2, #0
 3118 131e 03DA     		bge	.L261
 851:C:/Users/geoma/Desktop/Scilab/toolboxes/STM32_toolbox_1-1/scicos_blocks/src/c\convert.c ****                     {
 852:C:/Users/geoma/Desktop/Scilab/toolboxes/STM32_toolbox_1-1/scicos_blocks/src/c\convert.c ****                         y[i] = 0;
 3119              		.loc 1 852 0
 3120 1320 0022     		movs	r2, #0
 3121 1322 20F81320 		strh	r2, [r0, r3, lsl #1]	@ movhi
 3122 1326 01E0     		b	.L260
 3123              	.L261:
 853:C:/Users/geoma/Desktop/Scilab/toolboxes/STM32_toolbox_1-1/scicos_blocks/src/c\convert.c ****                     }
 854:C:/Users/geoma/Desktop/Scilab/toolboxes/STM32_toolbox_1-1/scicos_blocks/src/c\convert.c ****                     else
 855:C:/Users/geoma/Desktop/Scilab/toolboxes/STM32_toolbox_1-1/scicos_blocks/src/c\convert.c ****                     {
 856:C:/Users/geoma/Desktop/Scilab/toolboxes/STM32_toolbox_1-1/scicos_blocks/src/c\convert.c ****                         y[i] = (SCSUINT16_COP)(u[i]);
 3124              		.loc 1 856 0
 3125 1328 20F81320 		strh	r2, [r0, r3, lsl #1]	@ movhi
 3126              	.L260:
 844:C:/Users/geoma/Desktop/Scilab/toolboxes/STM32_toolbox_1-1/scicos_blocks/src/c\convert.c ****                 {
 3127              		.loc 1 844 0 discriminator 2
 3128 132c 0133     		adds	r3, r3, #1
 3129              	.LVL573:
 3130              	.L258:
 844:C:/Users/geoma/Desktop/Scilab/toolboxes/STM32_toolbox_1-1/scicos_blocks/src/c\convert.c ****                 {
 3131              		.loc 1 844 0 is_stmt 0 discriminator 1
 3132 132e 0AFB0BF2 		mul	r2, r10, fp
 3133 1332 9A42     		cmp	r2, r3
 3134 1334 E8DC     		bgt	.L262
 3135 1336 00F08FBD 		b	.L1
 3136              	.LVL574:
 3137              	.L51:
 3138              	.LBE48:
 3139              	.LBB49:
 857:C:/Users/geoma/Desktop/Scilab/toolboxes/STM32_toolbox_1-1/scicos_blocks/src/c\convert.c ****                     }
 858:C:/Users/geoma/Desktop/Scilab/toolboxes/STM32_toolbox_1-1/scicos_blocks/src/c\convert.c ****                 }
 859:C:/Users/geoma/Desktop/Scilab/toolboxes/STM32_toolbox_1-1/scicos_blocks/src/c\convert.c ****                 break;
 860:C:/Users/geoma/Desktop/Scilab/toolboxes/STM32_toolbox_1-1/scicos_blocks/src/c\convert.c ****             }
 861:C:/Users/geoma/Desktop/Scilab/toolboxes/STM32_toolbox_1-1/scicos_blocks/src/c\convert.c ****             case 48:
 862:C:/Users/geoma/Desktop/Scilab/toolboxes/STM32_toolbox_1-1/scicos_blocks/src/c\convert.c ****             {
 863:C:/Users/geoma/Desktop/Scilab/toolboxes/STM32_toolbox_1-1/scicos_blocks/src/c\convert.c ****                 SCSINT32_COP *u = NULL;
 864:C:/Users/geoma/Desktop/Scilab/toolboxes/STM32_toolbox_1-1/scicos_blocks/src/c\convert.c ****                 SCSUINT8_COP *y = NULL;
 865:C:/Users/geoma/Desktop/Scilab/toolboxes/STM32_toolbox_1-1/scicos_blocks/src/c\convert.c ****                 u = Getint32InPortPtrs(block, 1);
 3140              		.loc 1 865 0 is_stmt 1
 3141 133a 436C     		ldr	r3, [r0, #68]
 3142 133c 1C68     		ldr	r4, [r3]
 3143              	.LVL575:
 866:C:/Users/geoma/Desktop/Scilab/toolboxes/STM32_toolbox_1-1/scicos_blocks/src/c\convert.c ****                 y = Getuint8OutPortPtrs(block, 1);
 3144              		.loc 1 866 0
 3145 133e 036D     		ldr	r3, [r0, #80]
 3146 1340 1868     		ldr	r0, [r3]
 3147              	.LVL576:
ARM GAS  C:\Users\geoma\AppData\Local\Temp\ccpZNVPJ.s 			page 73


 867:C:/Users/geoma/Desktop/Scilab/toolboxes/STM32_toolbox_1-1/scicos_blocks/src/c\convert.c ****                 k = pow(2, 8);
 868:C:/Users/geoma/Desktop/Scilab/toolboxes/STM32_toolbox_1-1/scicos_blocks/src/c\convert.c ****                 for (i = 0; i < m * n; i++)
 3148              		.loc 1 868 0
 3149 1342 0023     		movs	r3, #0
 3150 1344 0DE0     		b	.L263
 3151              	.LVL577:
 3152              	.L267:
 869:C:/Users/geoma/Desktop/Scilab/toolboxes/STM32_toolbox_1-1/scicos_blocks/src/c\convert.c ****                 {
 870:C:/Users/geoma/Desktop/Scilab/toolboxes/STM32_toolbox_1-1/scicos_blocks/src/c\convert.c ****                     if (u[i] >= (SCSINT32_COP)k)
 3153              		.loc 1 870 0
 3154 1346 54F82320 		ldr	r2, [r4, r3, lsl #2]
 3155 134a FF2A     		cmp	r2, #255
 3156 134c 02DD     		ble	.L264
 871:C:/Users/geoma/Desktop/Scilab/toolboxes/STM32_toolbox_1-1/scicos_blocks/src/c\convert.c ****                     {
 872:C:/Users/geoma/Desktop/Scilab/toolboxes/STM32_toolbox_1-1/scicos_blocks/src/c\convert.c ****                         y[i] = (SCSUINT8_COP)(k - 1);
 3157              		.loc 1 872 0
 3158 134e FF22     		movs	r2, #255
 3159 1350 C254     		strb	r2, [r0, r3]
 3160 1352 05E0     		b	.L265
 3161              	.L264:
 873:C:/Users/geoma/Desktop/Scilab/toolboxes/STM32_toolbox_1-1/scicos_blocks/src/c\convert.c ****                     }
 874:C:/Users/geoma/Desktop/Scilab/toolboxes/STM32_toolbox_1-1/scicos_blocks/src/c\convert.c ****                     else if (u[i] < 0)
 3162              		.loc 1 874 0
 3163 1354 002A     		cmp	r2, #0
 3164 1356 02DA     		bge	.L266
 875:C:/Users/geoma/Desktop/Scilab/toolboxes/STM32_toolbox_1-1/scicos_blocks/src/c\convert.c ****                     {
 876:C:/Users/geoma/Desktop/Scilab/toolboxes/STM32_toolbox_1-1/scicos_blocks/src/c\convert.c ****                         y[i] = 0;
 3165              		.loc 1 876 0
 3166 1358 0022     		movs	r2, #0
 3167 135a C254     		strb	r2, [r0, r3]
 3168 135c 00E0     		b	.L265
 3169              	.L266:
 877:C:/Users/geoma/Desktop/Scilab/toolboxes/STM32_toolbox_1-1/scicos_blocks/src/c\convert.c ****                     }
 878:C:/Users/geoma/Desktop/Scilab/toolboxes/STM32_toolbox_1-1/scicos_blocks/src/c\convert.c ****                     else
 879:C:/Users/geoma/Desktop/Scilab/toolboxes/STM32_toolbox_1-1/scicos_blocks/src/c\convert.c ****                     {
 880:C:/Users/geoma/Desktop/Scilab/toolboxes/STM32_toolbox_1-1/scicos_blocks/src/c\convert.c ****                         y[i] = (SCSUINT8_COP)(u[i]);
 3170              		.loc 1 880 0
 3171 135e C254     		strb	r2, [r0, r3]
 3172              	.L265:
 868:C:/Users/geoma/Desktop/Scilab/toolboxes/STM32_toolbox_1-1/scicos_blocks/src/c\convert.c ****                 {
 3173              		.loc 1 868 0 discriminator 2
 3174 1360 0133     		adds	r3, r3, #1
 3175              	.LVL578:
 3176              	.L263:
 868:C:/Users/geoma/Desktop/Scilab/toolboxes/STM32_toolbox_1-1/scicos_blocks/src/c\convert.c ****                 {
 3177              		.loc 1 868 0 is_stmt 0 discriminator 1
 3178 1362 0AFB0BF2 		mul	r2, r10, fp
 3179 1366 9A42     		cmp	r2, r3
 3180 1368 EDDC     		bgt	.L267
 3181 136a 00F075BD 		b	.L1
 3182              	.LVL579:
 3183              	.L52:
 3184              	.LBE49:
 3185              	.LBB50:
 881:C:/Users/geoma/Desktop/Scilab/toolboxes/STM32_toolbox_1-1/scicos_blocks/src/c\convert.c ****                     }
 882:C:/Users/geoma/Desktop/Scilab/toolboxes/STM32_toolbox_1-1/scicos_blocks/src/c\convert.c ****                 }
 883:C:/Users/geoma/Desktop/Scilab/toolboxes/STM32_toolbox_1-1/scicos_blocks/src/c\convert.c ****                 break;
ARM GAS  C:\Users\geoma\AppData\Local\Temp\ccpZNVPJ.s 			page 74


 884:C:/Users/geoma/Desktop/Scilab/toolboxes/STM32_toolbox_1-1/scicos_blocks/src/c\convert.c ****             }
 885:C:/Users/geoma/Desktop/Scilab/toolboxes/STM32_toolbox_1-1/scicos_blocks/src/c\convert.c ****             case 49:
 886:C:/Users/geoma/Desktop/Scilab/toolboxes/STM32_toolbox_1-1/scicos_blocks/src/c\convert.c ****             {
 887:C:/Users/geoma/Desktop/Scilab/toolboxes/STM32_toolbox_1-1/scicos_blocks/src/c\convert.c ****                 SCSINT16_COP *u = NULL;
 888:C:/Users/geoma/Desktop/Scilab/toolboxes/STM32_toolbox_1-1/scicos_blocks/src/c\convert.c ****                 SCSINT8_COP *y = NULL;
 889:C:/Users/geoma/Desktop/Scilab/toolboxes/STM32_toolbox_1-1/scicos_blocks/src/c\convert.c ****                 u = Getint16InPortPtrs(block, 1);
 3186              		.loc 1 889 0 is_stmt 1
 3187 136e 436C     		ldr	r3, [r0, #68]
 3188 1370 1C68     		ldr	r4, [r3]
 3189              	.LVL580:
 890:C:/Users/geoma/Desktop/Scilab/toolboxes/STM32_toolbox_1-1/scicos_blocks/src/c\convert.c ****                 y = Getint8OutPortPtrs(block, 1);
 3190              		.loc 1 890 0
 3191 1372 036D     		ldr	r3, [r0, #80]
 3192 1374 1D68     		ldr	r5, [r3]
 3193              	.LVL581:
 891:C:/Users/geoma/Desktop/Scilab/toolboxes/STM32_toolbox_1-1/scicos_blocks/src/c\convert.c ****                 k = pow(2, 8);
 892:C:/Users/geoma/Desktop/Scilab/toolboxes/STM32_toolbox_1-1/scicos_blocks/src/c\convert.c ****                 for (i = 0; i < m * n; i++)
 3194              		.loc 1 892 0
 3195 1376 0023     		movs	r3, #0
 3196 1378 10E0     		b	.L268
 3197              	.LVL582:
 3198              	.L272:
 893:C:/Users/geoma/Desktop/Scilab/toolboxes/STM32_toolbox_1-1/scicos_blocks/src/c\convert.c ****                 {
 894:C:/Users/geoma/Desktop/Scilab/toolboxes/STM32_toolbox_1-1/scicos_blocks/src/c\convert.c ****                     if (u[i] > (SCSINT16_COP)(k / 2 - 1))
 3199              		.loc 1 894 0
 3200 137a 34F81320 		ldrh	r2, [r4, r3, lsl #1]
 3201 137e 11B2     		sxth	r1, r2
 3202 1380 7F29     		cmp	r1, #127
 3203 1382 02DD     		ble	.L269
 895:C:/Users/geoma/Desktop/Scilab/toolboxes/STM32_toolbox_1-1/scicos_blocks/src/c\convert.c ****                     {
 896:C:/Users/geoma/Desktop/Scilab/toolboxes/STM32_toolbox_1-1/scicos_blocks/src/c\convert.c ****                         y[i] = (SCSINT8_COP)(k / 2 - 1);
 3204              		.loc 1 896 0
 3205 1384 7F22     		movs	r2, #127
 3206 1386 EA54     		strb	r2, [r5, r3]
 3207 1388 07E0     		b	.L270
 3208              	.L269:
 897:C:/Users/geoma/Desktop/Scilab/toolboxes/STM32_toolbox_1-1/scicos_blocks/src/c\convert.c ****                     }
 898:C:/Users/geoma/Desktop/Scilab/toolboxes/STM32_toolbox_1-1/scicos_blocks/src/c\convert.c ****                     else if (u[i] < -(SCSINT16_COP)(k / 2))
 3209              		.loc 1 898 0
 3210 138a 11B2     		sxth	r1, r2
 3211 138c 11F1800F 		cmn	r1, #128
 3212 1390 02DA     		bge	.L271
 899:C:/Users/geoma/Desktop/Scilab/toolboxes/STM32_toolbox_1-1/scicos_blocks/src/c\convert.c ****                     {
 900:C:/Users/geoma/Desktop/Scilab/toolboxes/STM32_toolbox_1-1/scicos_blocks/src/c\convert.c ****                         y[i] = -(SCSINT8_COP)(k / 2);
 3213              		.loc 1 900 0
 3214 1392 8022     		movs	r2, #128
 3215 1394 EA54     		strb	r2, [r5, r3]
 3216 1396 00E0     		b	.L270
 3217              	.L271:
 901:C:/Users/geoma/Desktop/Scilab/toolboxes/STM32_toolbox_1-1/scicos_blocks/src/c\convert.c ****                     }
 902:C:/Users/geoma/Desktop/Scilab/toolboxes/STM32_toolbox_1-1/scicos_blocks/src/c\convert.c ****                     else
 903:C:/Users/geoma/Desktop/Scilab/toolboxes/STM32_toolbox_1-1/scicos_blocks/src/c\convert.c ****                     {
 904:C:/Users/geoma/Desktop/Scilab/toolboxes/STM32_toolbox_1-1/scicos_blocks/src/c\convert.c ****                         y[i] = (SCSINT8_COP)(u[i]);
 3218              		.loc 1 904 0
 3219 1398 EA54     		strb	r2, [r5, r3]
 3220              	.L270:
 892:C:/Users/geoma/Desktop/Scilab/toolboxes/STM32_toolbox_1-1/scicos_blocks/src/c\convert.c ****                 {
ARM GAS  C:\Users\geoma\AppData\Local\Temp\ccpZNVPJ.s 			page 75


 3221              		.loc 1 892 0 discriminator 2
 3222 139a 0133     		adds	r3, r3, #1
 3223              	.LVL583:
 3224              	.L268:
 892:C:/Users/geoma/Desktop/Scilab/toolboxes/STM32_toolbox_1-1/scicos_blocks/src/c\convert.c ****                 {
 3225              		.loc 1 892 0 is_stmt 0 discriminator 1
 3226 139c 0AFB0BF2 		mul	r2, r10, fp
 3227 13a0 9A42     		cmp	r2, r3
 3228 13a2 EADC     		bgt	.L272
 3229 13a4 00F058BD 		b	.L1
 3230              	.LVL584:
 3231              	.L53:
 3232              	.LBE50:
 3233              	.LBB51:
 905:C:/Users/geoma/Desktop/Scilab/toolboxes/STM32_toolbox_1-1/scicos_blocks/src/c\convert.c ****                     }
 906:C:/Users/geoma/Desktop/Scilab/toolboxes/STM32_toolbox_1-1/scicos_blocks/src/c\convert.c ****                 }
 907:C:/Users/geoma/Desktop/Scilab/toolboxes/STM32_toolbox_1-1/scicos_blocks/src/c\convert.c ****                 break;
 908:C:/Users/geoma/Desktop/Scilab/toolboxes/STM32_toolbox_1-1/scicos_blocks/src/c\convert.c ****             }
 909:C:/Users/geoma/Desktop/Scilab/toolboxes/STM32_toolbox_1-1/scicos_blocks/src/c\convert.c ****             case 50:
 910:C:/Users/geoma/Desktop/Scilab/toolboxes/STM32_toolbox_1-1/scicos_blocks/src/c\convert.c ****             {
 911:C:/Users/geoma/Desktop/Scilab/toolboxes/STM32_toolbox_1-1/scicos_blocks/src/c\convert.c ****                 SCSINT16_COP *u = NULL;
 912:C:/Users/geoma/Desktop/Scilab/toolboxes/STM32_toolbox_1-1/scicos_blocks/src/c\convert.c ****                 SCSUINT32_COP *y = NULL;
 913:C:/Users/geoma/Desktop/Scilab/toolboxes/STM32_toolbox_1-1/scicos_blocks/src/c\convert.c ****                 u = Getint16InPortPtrs(block, 1);
 3234              		.loc 1 913 0 is_stmt 1
 3235 13a8 436C     		ldr	r3, [r0, #68]
 3236 13aa 1C68     		ldr	r4, [r3]
 3237              	.LVL585:
 914:C:/Users/geoma/Desktop/Scilab/toolboxes/STM32_toolbox_1-1/scicos_blocks/src/c\convert.c ****                 y = Getuint32OutPortPtrs(block, 1);
 3238              		.loc 1 914 0
 3239 13ac 036D     		ldr	r3, [r0, #80]
 3240 13ae 1968     		ldr	r1, [r3]
 3241              	.LVL586:
