ARM GAS  C:\Users\geoma\AppData\Local\Temp\ccuxvdtO.s 			page 1


   1              		.syntax unified
   2              		.cpu cortex-m4
   3              		.eabi_attribute 27, 1
   4              		.eabi_attribute 28, 1
   5              		.fpu fpv4-sp-d16
   6              		.eabi_attribute 20, 1
   7              		.eabi_attribute 21, 1
   8              		.eabi_attribute 23, 3
   9              		.eabi_attribute 24, 1
  10              		.eabi_attribute 25, 1
  11              		.eabi_attribute 26, 1
  12              		.eabi_attribute 30, 1
  13              		.eabi_attribute 34, 1
  14              		.eabi_attribute 18, 4
  15              		.thumb
  16              		.file	"stm32f3xx_hal_rcc.c"
  17              		.text
  18              	.Ltext0:
  19              		.cfi_sections	.debug_frame
  20              		.section	.text.HAL_RCC_DeInit,"ax",%progbits
  21              		.align	2
  22              		.global	HAL_RCC_DeInit
  23              		.thumb
  24              		.thumb_func
  26              	HAL_RCC_DeInit:
  27              	.LFB123:
  28              		.file 1 "Drivers/STM32F3xx_HAL_Driver/Src/stm32f3xx_hal_rcc.c"
   1:Drivers/STM32F3xx_HAL_Driver/Src/stm32f3xx_hal_rcc.c **** /**
   2:Drivers/STM32F3xx_HAL_Driver/Src/stm32f3xx_hal_rcc.c ****   ******************************************************************************
   3:Drivers/STM32F3xx_HAL_Driver/Src/stm32f3xx_hal_rcc.c ****   * @file    stm32f3xx_hal_rcc.c
   4:Drivers/STM32F3xx_HAL_Driver/Src/stm32f3xx_hal_rcc.c ****   * @author  MCD Application Team
   5:Drivers/STM32F3xx_HAL_Driver/Src/stm32f3xx_hal_rcc.c ****   * @version V1.4.0
   6:Drivers/STM32F3xx_HAL_Driver/Src/stm32f3xx_hal_rcc.c ****   * @date    16-December-2016
   7:Drivers/STM32F3xx_HAL_Driver/Src/stm32f3xx_hal_rcc.c ****   * @brief   RCC HAL module driver.
   8:Drivers/STM32F3xx_HAL_Driver/Src/stm32f3xx_hal_rcc.c ****   *          This file provides firmware functions to manage the following 
   9:Drivers/STM32F3xx_HAL_Driver/Src/stm32f3xx_hal_rcc.c ****   *          functionalities of the Reset and Clock Control (RCC) peripheral:
  10:Drivers/STM32F3xx_HAL_Driver/Src/stm32f3xx_hal_rcc.c ****   *           + Initialization and de-initialization functions
  11:Drivers/STM32F3xx_HAL_Driver/Src/stm32f3xx_hal_rcc.c ****   *           + Peripheral Control functions
  12:Drivers/STM32F3xx_HAL_Driver/Src/stm32f3xx_hal_rcc.c ****   *       
  13:Drivers/STM32F3xx_HAL_Driver/Src/stm32f3xx_hal_rcc.c ****   @verbatim                
  14:Drivers/STM32F3xx_HAL_Driver/Src/stm32f3xx_hal_rcc.c ****   ==============================================================================
  15:Drivers/STM32F3xx_HAL_Driver/Src/stm32f3xx_hal_rcc.c ****                       ##### RCC specific features #####
  16:Drivers/STM32F3xx_HAL_Driver/Src/stm32f3xx_hal_rcc.c ****   ==============================================================================
  17:Drivers/STM32F3xx_HAL_Driver/Src/stm32f3xx_hal_rcc.c ****     [..]  
  18:Drivers/STM32F3xx_HAL_Driver/Src/stm32f3xx_hal_rcc.c ****       After reset the device is running from Internal High Speed oscillator
  19:Drivers/STM32F3xx_HAL_Driver/Src/stm32f3xx_hal_rcc.c ****       (HSI 8MHz) with Flash 0 wait state, Flash prefetch buffer is enabled, 
  20:Drivers/STM32F3xx_HAL_Driver/Src/stm32f3xx_hal_rcc.c ****       and all peripherals are off except internal SRAM, Flash and JTAG.
  21:Drivers/STM32F3xx_HAL_Driver/Src/stm32f3xx_hal_rcc.c ****       (+) There is no prescaler on High speed (AHB) and Low speed (APB) buses;
  22:Drivers/STM32F3xx_HAL_Driver/Src/stm32f3xx_hal_rcc.c ****           all peripherals mapped on these buses are running at HSI speed.
  23:Drivers/STM32F3xx_HAL_Driver/Src/stm32f3xx_hal_rcc.c ****       (+) The clock for all peripherals is switched off, except the SRAM and FLASH.
  24:Drivers/STM32F3xx_HAL_Driver/Src/stm32f3xx_hal_rcc.c ****       (+) All GPIOs are in input floating state, except the JTAG pins which
  25:Drivers/STM32F3xx_HAL_Driver/Src/stm32f3xx_hal_rcc.c ****           are assigned to be used for debug purpose.
  26:Drivers/STM32F3xx_HAL_Driver/Src/stm32f3xx_hal_rcc.c ****     [..] Once the device started from reset, the user application has to:
  27:Drivers/STM32F3xx_HAL_Driver/Src/stm32f3xx_hal_rcc.c ****       (+) Configure the clock source to be used to drive the System clock
  28:Drivers/STM32F3xx_HAL_Driver/Src/stm32f3xx_hal_rcc.c ****           (if the application needs higher frequency/performance)
  29:Drivers/STM32F3xx_HAL_Driver/Src/stm32f3xx_hal_rcc.c ****       (+) Configure the System clock frequency and Flash settings  
  30:Drivers/STM32F3xx_HAL_Driver/Src/stm32f3xx_hal_rcc.c ****       (+) Configure the AHB and APB buses prescalers
ARM GAS  C:\Users\geoma\AppData\Local\Temp\ccuxvdtO.s 			page 2


  31:Drivers/STM32F3xx_HAL_Driver/Src/stm32f3xx_hal_rcc.c ****       (+) Enable the clock for the peripheral(s) to be used
  32:Drivers/STM32F3xx_HAL_Driver/Src/stm32f3xx_hal_rcc.c ****       (+) Configure the clock source(s) for peripherals whose clocks are not
  33:Drivers/STM32F3xx_HAL_Driver/Src/stm32f3xx_hal_rcc.c ****           derived from the System clock (RTC, ADC, I2C, I2S, TIM, USB FS)
  34:Drivers/STM32F3xx_HAL_Driver/Src/stm32f3xx_hal_rcc.c **** 
  35:Drivers/STM32F3xx_HAL_Driver/Src/stm32f3xx_hal_rcc.c ****                       ##### RCC Limitations #####
  36:Drivers/STM32F3xx_HAL_Driver/Src/stm32f3xx_hal_rcc.c ****   ==============================================================================
  37:Drivers/STM32F3xx_HAL_Driver/Src/stm32f3xx_hal_rcc.c ****     [..]  
  38:Drivers/STM32F3xx_HAL_Driver/Src/stm32f3xx_hal_rcc.c ****       A delay between an RCC peripheral clock enable and the effective peripheral 
  39:Drivers/STM32F3xx_HAL_Driver/Src/stm32f3xx_hal_rcc.c ****       enabling should be taken into account in order to manage the peripheral read/write 
  40:Drivers/STM32F3xx_HAL_Driver/Src/stm32f3xx_hal_rcc.c ****       from/to registers.
  41:Drivers/STM32F3xx_HAL_Driver/Src/stm32f3xx_hal_rcc.c ****       (+) This delay depends on the peripheral mapping.
  42:Drivers/STM32F3xx_HAL_Driver/Src/stm32f3xx_hal_rcc.c ****         (++) AHB & APB peripherals, 1 dummy read is necessary
  43:Drivers/STM32F3xx_HAL_Driver/Src/stm32f3xx_hal_rcc.c **** 
  44:Drivers/STM32F3xx_HAL_Driver/Src/stm32f3xx_hal_rcc.c ****     [..]  
  45:Drivers/STM32F3xx_HAL_Driver/Src/stm32f3xx_hal_rcc.c ****       Workarounds:
  46:Drivers/STM32F3xx_HAL_Driver/Src/stm32f3xx_hal_rcc.c ****       (#) For AHB & APB peripherals, a dummy read to the peripheral register has been
  47:Drivers/STM32F3xx_HAL_Driver/Src/stm32f3xx_hal_rcc.c ****           inserted in each __HAL_RCC_PPP_CLK_ENABLE() macro.
  48:Drivers/STM32F3xx_HAL_Driver/Src/stm32f3xx_hal_rcc.c **** 
  49:Drivers/STM32F3xx_HAL_Driver/Src/stm32f3xx_hal_rcc.c ****   @endverbatim
  50:Drivers/STM32F3xx_HAL_Driver/Src/stm32f3xx_hal_rcc.c ****   ******************************************************************************
  51:Drivers/STM32F3xx_HAL_Driver/Src/stm32f3xx_hal_rcc.c ****   * @attention
  52:Drivers/STM32F3xx_HAL_Driver/Src/stm32f3xx_hal_rcc.c ****   *
  53:Drivers/STM32F3xx_HAL_Driver/Src/stm32f3xx_hal_rcc.c ****   * <h2><center>&copy; COPYRIGHT(c) 2016 STMicroelectronics</center></h2>
  54:Drivers/STM32F3xx_HAL_Driver/Src/stm32f3xx_hal_rcc.c ****   *
  55:Drivers/STM32F3xx_HAL_Driver/Src/stm32f3xx_hal_rcc.c ****   * Redistribution and use in source and binary forms, with or without modification,
  56:Drivers/STM32F3xx_HAL_Driver/Src/stm32f3xx_hal_rcc.c ****   * are permitted provided that the following conditions are met:
  57:Drivers/STM32F3xx_HAL_Driver/Src/stm32f3xx_hal_rcc.c ****   *   1. Redistributions of source code must retain the above copyright notice,
  58:Drivers/STM32F3xx_HAL_Driver/Src/stm32f3xx_hal_rcc.c ****   *      this list of conditions and the following disclaimer.
  59:Drivers/STM32F3xx_HAL_Driver/Src/stm32f3xx_hal_rcc.c ****   *   2. Redistributions in binary form must reproduce the above copyright notice,
  60:Drivers/STM32F3xx_HAL_Driver/Src/stm32f3xx_hal_rcc.c ****   *      this list of conditions and the following disclaimer in the documentation
  61:Drivers/STM32F3xx_HAL_Driver/Src/stm32f3xx_hal_rcc.c ****   *      and/or other materials provided with the distribution.
  62:Drivers/STM32F3xx_HAL_Driver/Src/stm32f3xx_hal_rcc.c ****   *   3. Neither the name of STMicroelectronics nor the names of its contributors
  63:Drivers/STM32F3xx_HAL_Driver/Src/stm32f3xx_hal_rcc.c ****   *      may be used to endorse or promote products derived from this software
  64:Drivers/STM32F3xx_HAL_Driver/Src/stm32f3xx_hal_rcc.c ****   *      without specific prior written permission.
  65:Drivers/STM32F3xx_HAL_Driver/Src/stm32f3xx_hal_rcc.c ****   *
  66:Drivers/STM32F3xx_HAL_Driver/Src/stm32f3xx_hal_rcc.c ****   * THIS SOFTWARE IS PROVIDED BY THE COPYRIGHT HOLDERS AND CONTRIBUTORS "AS IS"
  67:Drivers/STM32F3xx_HAL_Driver/Src/stm32f3xx_hal_rcc.c ****   * AND ANY EXPRESS OR IMPLIED WARRANTIES, INCLUDING, BUT NOT LIMITED TO, THE
  68:Drivers/STM32F3xx_HAL_Driver/Src/stm32f3xx_hal_rcc.c ****   * IMPLIED WARRANTIES OF MERCHANTABILITY AND FITNESS FOR A PARTICULAR PURPOSE ARE
  69:Drivers/STM32F3xx_HAL_Driver/Src/stm32f3xx_hal_rcc.c ****   * DISCLAIMED. IN NO EVENT SHALL THE COPYRIGHT HOLDER OR CONTRIBUTORS BE LIABLE
  70:Drivers/STM32F3xx_HAL_Driver/Src/stm32f3xx_hal_rcc.c ****   * FOR ANY DIRECT, INDIRECT, INCIDENTAL, SPECIAL, EXEMPLARY, OR CONSEQUENTIAL
  71:Drivers/STM32F3xx_HAL_Driver/Src/stm32f3xx_hal_rcc.c ****   * DAMAGES (INCLUDING, BUT NOT LIMITED TO, PROCUREMENT OF SUBSTITUTE GOODS OR
  72:Drivers/STM32F3xx_HAL_Driver/Src/stm32f3xx_hal_rcc.c ****   * SERVICES; LOSS OF USE, DATA, OR PROFITS; OR BUSINESS INTERRUPTION) HOWEVER
  73:Drivers/STM32F3xx_HAL_Driver/Src/stm32f3xx_hal_rcc.c ****   * CAUSED AND ON ANY THEORY OF LIABILITY, WHETHER IN CONTRACT, STRICT LIABILITY,
  74:Drivers/STM32F3xx_HAL_Driver/Src/stm32f3xx_hal_rcc.c ****   * OR TORT (INCLUDING NEGLIGENCE OR OTHERWISE) ARISING IN ANY WAY OUT OF THE USE
  75:Drivers/STM32F3xx_HAL_Driver/Src/stm32f3xx_hal_rcc.c ****   * OF THIS SOFTWARE, EVEN IF ADVISED OF THE POSSIBILITY OF SUCH DAMAGE.
  76:Drivers/STM32F3xx_HAL_Driver/Src/stm32f3xx_hal_rcc.c ****   *
  77:Drivers/STM32F3xx_HAL_Driver/Src/stm32f3xx_hal_rcc.c ****   ******************************************************************************  
  78:Drivers/STM32F3xx_HAL_Driver/Src/stm32f3xx_hal_rcc.c **** */
  79:Drivers/STM32F3xx_HAL_Driver/Src/stm32f3xx_hal_rcc.c **** 
  80:Drivers/STM32F3xx_HAL_Driver/Src/stm32f3xx_hal_rcc.c **** /* Includes ------------------------------------------------------------------*/
  81:Drivers/STM32F3xx_HAL_Driver/Src/stm32f3xx_hal_rcc.c **** #include "stm32f3xx_hal.h"
  82:Drivers/STM32F3xx_HAL_Driver/Src/stm32f3xx_hal_rcc.c **** 
  83:Drivers/STM32F3xx_HAL_Driver/Src/stm32f3xx_hal_rcc.c **** /** @addtogroup STM32F3xx_HAL_Driver
  84:Drivers/STM32F3xx_HAL_Driver/Src/stm32f3xx_hal_rcc.c ****   * @{
  85:Drivers/STM32F3xx_HAL_Driver/Src/stm32f3xx_hal_rcc.c ****   */
  86:Drivers/STM32F3xx_HAL_Driver/Src/stm32f3xx_hal_rcc.c **** 
  87:Drivers/STM32F3xx_HAL_Driver/Src/stm32f3xx_hal_rcc.c **** /** @defgroup RCC RCC
ARM GAS  C:\Users\geoma\AppData\Local\Temp\ccuxvdtO.s 			page 3


  88:Drivers/STM32F3xx_HAL_Driver/Src/stm32f3xx_hal_rcc.c **** * @brief RCC HAL module driver
  89:Drivers/STM32F3xx_HAL_Driver/Src/stm32f3xx_hal_rcc.c ****   * @{
  90:Drivers/STM32F3xx_HAL_Driver/Src/stm32f3xx_hal_rcc.c ****   */
  91:Drivers/STM32F3xx_HAL_Driver/Src/stm32f3xx_hal_rcc.c **** 
  92:Drivers/STM32F3xx_HAL_Driver/Src/stm32f3xx_hal_rcc.c **** #ifdef HAL_RCC_MODULE_ENABLED
  93:Drivers/STM32F3xx_HAL_Driver/Src/stm32f3xx_hal_rcc.c **** 
  94:Drivers/STM32F3xx_HAL_Driver/Src/stm32f3xx_hal_rcc.c **** /* Private typedef -----------------------------------------------------------*/
  95:Drivers/STM32F3xx_HAL_Driver/Src/stm32f3xx_hal_rcc.c **** /* Private define ------------------------------------------------------------*/
  96:Drivers/STM32F3xx_HAL_Driver/Src/stm32f3xx_hal_rcc.c **** /** @defgroup RCC_Private_Constants RCC Private Constants
  97:Drivers/STM32F3xx_HAL_Driver/Src/stm32f3xx_hal_rcc.c ****  * @{
  98:Drivers/STM32F3xx_HAL_Driver/Src/stm32f3xx_hal_rcc.c ****  */
  99:Drivers/STM32F3xx_HAL_Driver/Src/stm32f3xx_hal_rcc.c **** /* Bits position in  in the CFGR register */
 100:Drivers/STM32F3xx_HAL_Driver/Src/stm32f3xx_hal_rcc.c **** #define RCC_CFGR_HPRE_BITNUMBER           POSITION_VAL(RCC_CFGR_HPRE)
 101:Drivers/STM32F3xx_HAL_Driver/Src/stm32f3xx_hal_rcc.c **** #define RCC_CFGR_PPRE1_BITNUMBER          POSITION_VAL(RCC_CFGR_PPRE1)
 102:Drivers/STM32F3xx_HAL_Driver/Src/stm32f3xx_hal_rcc.c **** #define RCC_CFGR_PPRE2_BITNUMBER          POSITION_VAL(RCC_CFGR_PPRE2)
 103:Drivers/STM32F3xx_HAL_Driver/Src/stm32f3xx_hal_rcc.c **** /**
 104:Drivers/STM32F3xx_HAL_Driver/Src/stm32f3xx_hal_rcc.c ****   * @}
 105:Drivers/STM32F3xx_HAL_Driver/Src/stm32f3xx_hal_rcc.c ****   */
 106:Drivers/STM32F3xx_HAL_Driver/Src/stm32f3xx_hal_rcc.c **** /* Private macro -------------------------------------------------------------*/
 107:Drivers/STM32F3xx_HAL_Driver/Src/stm32f3xx_hal_rcc.c **** /** @defgroup RCC_Private_Macros RCC Private Macros
 108:Drivers/STM32F3xx_HAL_Driver/Src/stm32f3xx_hal_rcc.c ****   * @{
 109:Drivers/STM32F3xx_HAL_Driver/Src/stm32f3xx_hal_rcc.c ****   */
 110:Drivers/STM32F3xx_HAL_Driver/Src/stm32f3xx_hal_rcc.c **** 
 111:Drivers/STM32F3xx_HAL_Driver/Src/stm32f3xx_hal_rcc.c **** #define MCO1_CLK_ENABLE()     __HAL_RCC_GPIOA_CLK_ENABLE()
 112:Drivers/STM32F3xx_HAL_Driver/Src/stm32f3xx_hal_rcc.c **** #define MCO1_GPIO_PORT        GPIOA
 113:Drivers/STM32F3xx_HAL_Driver/Src/stm32f3xx_hal_rcc.c **** #define MCO1_PIN              GPIO_PIN_8
 114:Drivers/STM32F3xx_HAL_Driver/Src/stm32f3xx_hal_rcc.c **** 
 115:Drivers/STM32F3xx_HAL_Driver/Src/stm32f3xx_hal_rcc.c **** /**
 116:Drivers/STM32F3xx_HAL_Driver/Src/stm32f3xx_hal_rcc.c ****   * @}
 117:Drivers/STM32F3xx_HAL_Driver/Src/stm32f3xx_hal_rcc.c ****   */
 118:Drivers/STM32F3xx_HAL_Driver/Src/stm32f3xx_hal_rcc.c **** 
 119:Drivers/STM32F3xx_HAL_Driver/Src/stm32f3xx_hal_rcc.c **** /* Private variables ---------------------------------------------------------*/
 120:Drivers/STM32F3xx_HAL_Driver/Src/stm32f3xx_hal_rcc.c **** /** @defgroup RCC_Private_Variables RCC Private Variables
 121:Drivers/STM32F3xx_HAL_Driver/Src/stm32f3xx_hal_rcc.c ****   * @{
 122:Drivers/STM32F3xx_HAL_Driver/Src/stm32f3xx_hal_rcc.c ****   */
 123:Drivers/STM32F3xx_HAL_Driver/Src/stm32f3xx_hal_rcc.c **** const uint8_t aPLLMULFactorTable[16] = { 2U,  3U,  4U,  5U,  6U,  7U,  8U,  9U,
 124:Drivers/STM32F3xx_HAL_Driver/Src/stm32f3xx_hal_rcc.c ****                                        10U, 11U, 12U, 13U, 14U, 15U, 16U, 16U};
 125:Drivers/STM32F3xx_HAL_Driver/Src/stm32f3xx_hal_rcc.c **** const uint8_t aPredivFactorTable[16] = { 1U, 2U,  3U,  4U,  5U,  6U,  7U,  8U,
 126:Drivers/STM32F3xx_HAL_Driver/Src/stm32f3xx_hal_rcc.c ****                                          9U,10U, 11U, 12U, 13U, 14U, 15U, 16U};
 127:Drivers/STM32F3xx_HAL_Driver/Src/stm32f3xx_hal_rcc.c **** /**
 128:Drivers/STM32F3xx_HAL_Driver/Src/stm32f3xx_hal_rcc.c ****   * @}
 129:Drivers/STM32F3xx_HAL_Driver/Src/stm32f3xx_hal_rcc.c ****   */
 130:Drivers/STM32F3xx_HAL_Driver/Src/stm32f3xx_hal_rcc.c **** 
 131:Drivers/STM32F3xx_HAL_Driver/Src/stm32f3xx_hal_rcc.c **** /* Private function prototypes -----------------------------------------------*/
 132:Drivers/STM32F3xx_HAL_Driver/Src/stm32f3xx_hal_rcc.c **** /* Exported functions ---------------------------------------------------------*/
 133:Drivers/STM32F3xx_HAL_Driver/Src/stm32f3xx_hal_rcc.c **** 
 134:Drivers/STM32F3xx_HAL_Driver/Src/stm32f3xx_hal_rcc.c **** /** @defgroup RCC_Exported_Functions RCC Exported Functions
 135:Drivers/STM32F3xx_HAL_Driver/Src/stm32f3xx_hal_rcc.c ****   * @{
 136:Drivers/STM32F3xx_HAL_Driver/Src/stm32f3xx_hal_rcc.c ****   */
 137:Drivers/STM32F3xx_HAL_Driver/Src/stm32f3xx_hal_rcc.c **** 
 138:Drivers/STM32F3xx_HAL_Driver/Src/stm32f3xx_hal_rcc.c **** /** @defgroup RCC_Exported_Functions_Group1 Initialization and de-initialization functions 
 139:Drivers/STM32F3xx_HAL_Driver/Src/stm32f3xx_hal_rcc.c ****   *  @brief    Initialization and Configuration functions 
 140:Drivers/STM32F3xx_HAL_Driver/Src/stm32f3xx_hal_rcc.c ****   *
 141:Drivers/STM32F3xx_HAL_Driver/Src/stm32f3xx_hal_rcc.c ****   @verbatim    
 142:Drivers/STM32F3xx_HAL_Driver/Src/stm32f3xx_hal_rcc.c ****   ===============================================================================
 143:Drivers/STM32F3xx_HAL_Driver/Src/stm32f3xx_hal_rcc.c ****            ##### Initialization and de-initialization functions #####
 144:Drivers/STM32F3xx_HAL_Driver/Src/stm32f3xx_hal_rcc.c ****   ===============================================================================
ARM GAS  C:\Users\geoma\AppData\Local\Temp\ccuxvdtO.s 			page 4


 145:Drivers/STM32F3xx_HAL_Driver/Src/stm32f3xx_hal_rcc.c ****     [..]
 146:Drivers/STM32F3xx_HAL_Driver/Src/stm32f3xx_hal_rcc.c ****       This section provides functions allowing to configure the internal/external oscillators
 147:Drivers/STM32F3xx_HAL_Driver/Src/stm32f3xx_hal_rcc.c ****       (HSE, HSI, LSE, LSI, PLL, CSS and MCO) and the System buses clocks (SYSCLK, AHB, APB1
 148:Drivers/STM32F3xx_HAL_Driver/Src/stm32f3xx_hal_rcc.c ****       and APB2).
 149:Drivers/STM32F3xx_HAL_Driver/Src/stm32f3xx_hal_rcc.c **** 
 150:Drivers/STM32F3xx_HAL_Driver/Src/stm32f3xx_hal_rcc.c ****     [..] Internal/external clock and PLL configuration
 151:Drivers/STM32F3xx_HAL_Driver/Src/stm32f3xx_hal_rcc.c ****       (#) HSI (high-speed internal), 8 MHz factory-trimmed RC used directly or through
 152:Drivers/STM32F3xx_HAL_Driver/Src/stm32f3xx_hal_rcc.c ****           the PLL as System clock source.
 153:Drivers/STM32F3xx_HAL_Driver/Src/stm32f3xx_hal_rcc.c ****           The HSI clock can be used also to clock the USART and I2C peripherals.
 154:Drivers/STM32F3xx_HAL_Driver/Src/stm32f3xx_hal_rcc.c **** 
 155:Drivers/STM32F3xx_HAL_Driver/Src/stm32f3xx_hal_rcc.c ****       (#) LSI (low-speed internal), ~40 KHz low consumption RC used as IWDG and/or RTC
 156:Drivers/STM32F3xx_HAL_Driver/Src/stm32f3xx_hal_rcc.c ****           clock source.
 157:Drivers/STM32F3xx_HAL_Driver/Src/stm32f3xx_hal_rcc.c **** 
 158:Drivers/STM32F3xx_HAL_Driver/Src/stm32f3xx_hal_rcc.c ****       (#) HSE (high-speed external), 4 to 32 MHz crystal oscillator used directly or
 159:Drivers/STM32F3xx_HAL_Driver/Src/stm32f3xx_hal_rcc.c ****           through the PLL as System clock source. Can be used also as RTC clock source.
 160:Drivers/STM32F3xx_HAL_Driver/Src/stm32f3xx_hal_rcc.c **** 
 161:Drivers/STM32F3xx_HAL_Driver/Src/stm32f3xx_hal_rcc.c ****       (#) LSE (low-speed external), 32 KHz oscillator used as RTC clock source.   
 162:Drivers/STM32F3xx_HAL_Driver/Src/stm32f3xx_hal_rcc.c **** 
 163:Drivers/STM32F3xx_HAL_Driver/Src/stm32f3xx_hal_rcc.c ****       (#) PLL (clocked by HSI or HSE), featuring different output clocks:
 164:Drivers/STM32F3xx_HAL_Driver/Src/stm32f3xx_hal_rcc.c ****         (++) The first output is used to generate the high speed system clock (up to 72 MHz)
 165:Drivers/STM32F3xx_HAL_Driver/Src/stm32f3xx_hal_rcc.c ****         (++) The second output is used to generate the clock for the USB FS (48 MHz)
 166:Drivers/STM32F3xx_HAL_Driver/Src/stm32f3xx_hal_rcc.c ****         (++) The third output may be used to generate the clock for the ADC peripherals (up to 72 M
 167:Drivers/STM32F3xx_HAL_Driver/Src/stm32f3xx_hal_rcc.c ****         (++) The fourth output may be used to generate the clock for the TIM peripherals (144 MHz)
 168:Drivers/STM32F3xx_HAL_Driver/Src/stm32f3xx_hal_rcc.c **** 
 169:Drivers/STM32F3xx_HAL_Driver/Src/stm32f3xx_hal_rcc.c ****       (#) CSS (Clock security system), once enable using the macro __HAL_RCC_CSS_ENABLE()
 170:Drivers/STM32F3xx_HAL_Driver/Src/stm32f3xx_hal_rcc.c ****           and if a HSE clock failure occurs(HSE used directly or through PLL as System 
 171:Drivers/STM32F3xx_HAL_Driver/Src/stm32f3xx_hal_rcc.c ****           clock source), the System clocks automatically switched to HSI and an interrupt
 172:Drivers/STM32F3xx_HAL_Driver/Src/stm32f3xx_hal_rcc.c ****           is generated if enabled. The interrupt is linked to the Cortex-M4 NMI 
 173:Drivers/STM32F3xx_HAL_Driver/Src/stm32f3xx_hal_rcc.c ****           (Non-Maskable Interrupt) exception vector.   
 174:Drivers/STM32F3xx_HAL_Driver/Src/stm32f3xx_hal_rcc.c **** 
 175:Drivers/STM32F3xx_HAL_Driver/Src/stm32f3xx_hal_rcc.c ****       (#) MCO (microcontroller clock output), used to output SYSCLK, HSI, HSE, LSI, LSE or PLL
 176:Drivers/STM32F3xx_HAL_Driver/Src/stm32f3xx_hal_rcc.c ****           clock (divided by 2) output on pin (such as PA8 pin).
 177:Drivers/STM32F3xx_HAL_Driver/Src/stm32f3xx_hal_rcc.c **** 
 178:Drivers/STM32F3xx_HAL_Driver/Src/stm32f3xx_hal_rcc.c ****     [..] System, AHB and APB buses clocks configuration
 179:Drivers/STM32F3xx_HAL_Driver/Src/stm32f3xx_hal_rcc.c ****       (#) Several clock sources can be used to drive the System clock (SYSCLK): HSI,
 180:Drivers/STM32F3xx_HAL_Driver/Src/stm32f3xx_hal_rcc.c ****           HSE and PLL.
 181:Drivers/STM32F3xx_HAL_Driver/Src/stm32f3xx_hal_rcc.c ****           The AHB clock (HCLK) is derived from System clock through configurable
 182:Drivers/STM32F3xx_HAL_Driver/Src/stm32f3xx_hal_rcc.c ****           prescaler and used to clock the CPU, memory and peripherals mapped
 183:Drivers/STM32F3xx_HAL_Driver/Src/stm32f3xx_hal_rcc.c ****           on AHB bus (DMA, GPIO...). APB1 (PCLK1) and APB2 (PCLK2) clocks are derived
 184:Drivers/STM32F3xx_HAL_Driver/Src/stm32f3xx_hal_rcc.c ****           from AHB clock through configurable prescalers and used to clock
 185:Drivers/STM32F3xx_HAL_Driver/Src/stm32f3xx_hal_rcc.c ****           the peripherals mapped on these buses. You can use
 186:Drivers/STM32F3xx_HAL_Driver/Src/stm32f3xx_hal_rcc.c ****           "@ref HAL_RCC_GetSysClockFreq()" function to retrieve the frequencies of these clocks.
 187:Drivers/STM32F3xx_HAL_Driver/Src/stm32f3xx_hal_rcc.c **** 
 188:Drivers/STM32F3xx_HAL_Driver/Src/stm32f3xx_hal_rcc.c ****       (#) All the peripheral clocks are derived from the System clock (SYSCLK) except:
 189:Drivers/STM32F3xx_HAL_Driver/Src/stm32f3xx_hal_rcc.c ****         (++) The FLASH program/erase clock  which is always HSI 8MHz clock.
 190:Drivers/STM32F3xx_HAL_Driver/Src/stm32f3xx_hal_rcc.c ****         (++) The USB 48 MHz clock which is derived from the PLL VCO clock.
 191:Drivers/STM32F3xx_HAL_Driver/Src/stm32f3xx_hal_rcc.c ****         (++) The USART clock which can be derived as well from HSI 8MHz, LSI or LSE.
 192:Drivers/STM32F3xx_HAL_Driver/Src/stm32f3xx_hal_rcc.c ****         (++) The I2C clock which can be derived as well from HSI 8MHz clock.
 193:Drivers/STM32F3xx_HAL_Driver/Src/stm32f3xx_hal_rcc.c ****         (++) The ADC clock which is derived from PLL output.
 194:Drivers/STM32F3xx_HAL_Driver/Src/stm32f3xx_hal_rcc.c ****         (++) The RTC clock which is derived from the LSE, LSI or 1 MHz HSE_RTC
 195:Drivers/STM32F3xx_HAL_Driver/Src/stm32f3xx_hal_rcc.c ****              (HSE divided by a programmable prescaler). The System clock (SYSCLK)
 196:Drivers/STM32F3xx_HAL_Driver/Src/stm32f3xx_hal_rcc.c ****              frequency must be higher or equal to the RTC clock frequency.
 197:Drivers/STM32F3xx_HAL_Driver/Src/stm32f3xx_hal_rcc.c ****         (++) IWDG clock which is always the LSI clock.
 198:Drivers/STM32F3xx_HAL_Driver/Src/stm32f3xx_hal_rcc.c **** 
 199:Drivers/STM32F3xx_HAL_Driver/Src/stm32f3xx_hal_rcc.c ****          (#) For the STM32F3xx devices, the maximum frequency of the SYSCLK, HCLK, PCLK1 and PCLK2 
 200:Drivers/STM32F3xx_HAL_Driver/Src/stm32f3xx_hal_rcc.c ****              Depending on the SYSCLK frequency, the flash latency should be adapted accordingly.
 201:Drivers/STM32F3xx_HAL_Driver/Src/stm32f3xx_hal_rcc.c **** 
ARM GAS  C:\Users\geoma\AppData\Local\Temp\ccuxvdtO.s 			page 5


 202:Drivers/STM32F3xx_HAL_Driver/Src/stm32f3xx_hal_rcc.c ****          (#) After reset, the System clock source is the HSI (8 MHz) with 0 WS and
 203:Drivers/STM32F3xx_HAL_Driver/Src/stm32f3xx_hal_rcc.c ****              prefetch is disabled.
 204:Drivers/STM32F3xx_HAL_Driver/Src/stm32f3xx_hal_rcc.c ****   @endverbatim
 205:Drivers/STM32F3xx_HAL_Driver/Src/stm32f3xx_hal_rcc.c ****   * @{
 206:Drivers/STM32F3xx_HAL_Driver/Src/stm32f3xx_hal_rcc.c ****   */
 207:Drivers/STM32F3xx_HAL_Driver/Src/stm32f3xx_hal_rcc.c ****   
 208:Drivers/STM32F3xx_HAL_Driver/Src/stm32f3xx_hal_rcc.c **** /*
 209:Drivers/STM32F3xx_HAL_Driver/Src/stm32f3xx_hal_rcc.c ****   Additional consideration on the SYSCLK based on Latency settings:
 210:Drivers/STM32F3xx_HAL_Driver/Src/stm32f3xx_hal_rcc.c ****         +-----------------------------------------------+
 211:Drivers/STM32F3xx_HAL_Driver/Src/stm32f3xx_hal_rcc.c ****         | Latency       | SYSCLK clock frequency (MHz)  |
 212:Drivers/STM32F3xx_HAL_Driver/Src/stm32f3xx_hal_rcc.c ****         |---------------|-------------------------------|
 213:Drivers/STM32F3xx_HAL_Driver/Src/stm32f3xx_hal_rcc.c ****         |0WS(1CPU cycle)|       0 < SYSCLK <= 24        |
 214:Drivers/STM32F3xx_HAL_Driver/Src/stm32f3xx_hal_rcc.c ****         |---------------|-------------------------------|
 215:Drivers/STM32F3xx_HAL_Driver/Src/stm32f3xx_hal_rcc.c ****         |1WS(2CPU cycle)|      24 < SYSCLK <= 48        |
 216:Drivers/STM32F3xx_HAL_Driver/Src/stm32f3xx_hal_rcc.c ****         |---------------|-------------------------------|
 217:Drivers/STM32F3xx_HAL_Driver/Src/stm32f3xx_hal_rcc.c ****         |2WS(3CPU cycle)|      48 < SYSCLK <= 72        |
 218:Drivers/STM32F3xx_HAL_Driver/Src/stm32f3xx_hal_rcc.c ****         +-----------------------------------------------+
 219:Drivers/STM32F3xx_HAL_Driver/Src/stm32f3xx_hal_rcc.c ****   */
 220:Drivers/STM32F3xx_HAL_Driver/Src/stm32f3xx_hal_rcc.c **** 
 221:Drivers/STM32F3xx_HAL_Driver/Src/stm32f3xx_hal_rcc.c **** /**
 222:Drivers/STM32F3xx_HAL_Driver/Src/stm32f3xx_hal_rcc.c ****   * @brief  Resets the RCC clock configuration to the default reset state.
 223:Drivers/STM32F3xx_HAL_Driver/Src/stm32f3xx_hal_rcc.c ****   * @note   The default reset state of the clock configuration is given below:
 224:Drivers/STM32F3xx_HAL_Driver/Src/stm32f3xx_hal_rcc.c ****   *            - HSI ON and used as system clock source
 225:Drivers/STM32F3xx_HAL_Driver/Src/stm32f3xx_hal_rcc.c ****   *            - HSE and PLL OFF
 226:Drivers/STM32F3xx_HAL_Driver/Src/stm32f3xx_hal_rcc.c ****   *            - AHB, APB1 and APB2 prescaler set to 1.
 227:Drivers/STM32F3xx_HAL_Driver/Src/stm32f3xx_hal_rcc.c ****   *            - CSS and MCO1 OFF
 228:Drivers/STM32F3xx_HAL_Driver/Src/stm32f3xx_hal_rcc.c ****   *            - All interrupts disabled
 229:Drivers/STM32F3xx_HAL_Driver/Src/stm32f3xx_hal_rcc.c ****   * @note   This function does not modify the configuration of the
 230:Drivers/STM32F3xx_HAL_Driver/Src/stm32f3xx_hal_rcc.c ****   *            - Peripheral clocks
 231:Drivers/STM32F3xx_HAL_Driver/Src/stm32f3xx_hal_rcc.c ****   *            - LSI, LSE and RTC clocks
 232:Drivers/STM32F3xx_HAL_Driver/Src/stm32f3xx_hal_rcc.c ****   * @retval None
 233:Drivers/STM32F3xx_HAL_Driver/Src/stm32f3xx_hal_rcc.c ****   */
 234:Drivers/STM32F3xx_HAL_Driver/Src/stm32f3xx_hal_rcc.c **** void HAL_RCC_DeInit(void)
 235:Drivers/STM32F3xx_HAL_Driver/Src/stm32f3xx_hal_rcc.c **** {
  29              		.loc 1 235 0
  30              		.cfi_startproc
  31              		@ args = 0, pretend = 0, frame = 0
  32              		@ frame_needed = 0, uses_anonymous_args = 0
  33              		@ link register save eliminated.
 236:Drivers/STM32F3xx_HAL_Driver/Src/stm32f3xx_hal_rcc.c ****   /* Set HSION bit, HSITRIM[4:0] bits to the reset value*/
 237:Drivers/STM32F3xx_HAL_Driver/Src/stm32f3xx_hal_rcc.c ****   SET_BIT(RCC->CR, RCC_CR_HSION | RCC_CR_HSITRIM_4); 
  34              		.loc 1 237 0
  35 0000 0D4B     		ldr	r3, .L2
  36 0002 1A68     		ldr	r2, [r3]
  37 0004 42F08102 		orr	r2, r2, #129
  38 0008 1A60     		str	r2, [r3]
 238:Drivers/STM32F3xx_HAL_Driver/Src/stm32f3xx_hal_rcc.c **** 
 239:Drivers/STM32F3xx_HAL_Driver/Src/stm32f3xx_hal_rcc.c ****   /* Reset SW[1:0], HPRE[3:0], PPRE1[2:0], PPRE2[2:0] and MCOSEL[2:0] bits */
 240:Drivers/STM32F3xx_HAL_Driver/Src/stm32f3xx_hal_rcc.c ****   CLEAR_BIT(RCC->CFGR, RCC_CFGR_SW | RCC_CFGR_HPRE | RCC_CFGR_PPRE1 | RCC_CFGR_PPRE2 | RCC_CFGR_MCO
  39              		.loc 1 240 0
  40 000a 5968     		ldr	r1, [r3, #4]
  41 000c 0B4A     		ldr	r2, .L2+4
  42 000e 0A40     		ands	r2, r2, r1
  43 0010 5A60     		str	r2, [r3, #4]
 241:Drivers/STM32F3xx_HAL_Driver/Src/stm32f3xx_hal_rcc.c **** 
 242:Drivers/STM32F3xx_HAL_Driver/Src/stm32f3xx_hal_rcc.c ****   /* Reset HSEON, CSSON, PLLON bits */
 243:Drivers/STM32F3xx_HAL_Driver/Src/stm32f3xx_hal_rcc.c ****   CLEAR_BIT(RCC->CR, RCC_CR_PLLON | RCC_CR_CSSON | RCC_CR_HSEON);
ARM GAS  C:\Users\geoma\AppData\Local\Temp\ccuxvdtO.s 			page 6


  44              		.loc 1 243 0
  45 0012 1A68     		ldr	r2, [r3]
  46 0014 22F08472 		bic	r2, r2, #17301504
  47 0018 22F48032 		bic	r2, r2, #65536
  48 001c 1A60     		str	r2, [r3]
 244:Drivers/STM32F3xx_HAL_Driver/Src/stm32f3xx_hal_rcc.c ****   
 245:Drivers/STM32F3xx_HAL_Driver/Src/stm32f3xx_hal_rcc.c ****   /* Reset HSEBYP bit */
 246:Drivers/STM32F3xx_HAL_Driver/Src/stm32f3xx_hal_rcc.c ****   CLEAR_BIT(RCC->CR, RCC_CR_HSEBYP);
  49              		.loc 1 246 0
  50 001e 1A68     		ldr	r2, [r3]
  51 0020 22F48022 		bic	r2, r2, #262144
  52 0024 1A60     		str	r2, [r3]
 247:Drivers/STM32F3xx_HAL_Driver/Src/stm32f3xx_hal_rcc.c **** 
 248:Drivers/STM32F3xx_HAL_Driver/Src/stm32f3xx_hal_rcc.c ****   /* Reset CFGR register */
 249:Drivers/STM32F3xx_HAL_Driver/Src/stm32f3xx_hal_rcc.c ****   CLEAR_REG(RCC->CFGR);
  53              		.loc 1 249 0
  54 0026 0022     		movs	r2, #0
  55 0028 5A60     		str	r2, [r3, #4]
 250:Drivers/STM32F3xx_HAL_Driver/Src/stm32f3xx_hal_rcc.c ****   
 251:Drivers/STM32F3xx_HAL_Driver/Src/stm32f3xx_hal_rcc.c ****   /* Reset CFGR2 register */
 252:Drivers/STM32F3xx_HAL_Driver/Src/stm32f3xx_hal_rcc.c ****   CLEAR_REG(RCC->CFGR2);
  56              		.loc 1 252 0
  57 002a DA62     		str	r2, [r3, #44]
 253:Drivers/STM32F3xx_HAL_Driver/Src/stm32f3xx_hal_rcc.c ****   
 254:Drivers/STM32F3xx_HAL_Driver/Src/stm32f3xx_hal_rcc.c ****   /* Reset CFGR3 register */
 255:Drivers/STM32F3xx_HAL_Driver/Src/stm32f3xx_hal_rcc.c ****   CLEAR_REG(RCC->CFGR3);
  58              		.loc 1 255 0
  59 002c 1A63     		str	r2, [r3, #48]
 256:Drivers/STM32F3xx_HAL_Driver/Src/stm32f3xx_hal_rcc.c ****   
 257:Drivers/STM32F3xx_HAL_Driver/Src/stm32f3xx_hal_rcc.c ****   /* Disable all interrupts */
 258:Drivers/STM32F3xx_HAL_Driver/Src/stm32f3xx_hal_rcc.c ****   CLEAR_REG(RCC->CIR);
  60              		.loc 1 258 0
  61 002e 9A60     		str	r2, [r3, #8]
 259:Drivers/STM32F3xx_HAL_Driver/Src/stm32f3xx_hal_rcc.c **** 
 260:Drivers/STM32F3xx_HAL_Driver/Src/stm32f3xx_hal_rcc.c ****   /* Update the SystemCoreClock global variable */
 261:Drivers/STM32F3xx_HAL_Driver/Src/stm32f3xx_hal_rcc.c ****   SystemCoreClock = HSI_VALUE;
  62              		.loc 1 261 0
  63 0030 034A     		ldr	r2, .L2+8
  64 0032 044B     		ldr	r3, .L2+12
  65 0034 1A60     		str	r2, [r3]
  66 0036 7047     		bx	lr
  67              	.L3:
  68              		.align	2
  69              	.L2:
  70 0038 00100240 		.word	1073876992
  71 003c 0CC0FFF8 		.word	-117456884
  72 0040 00127A00 		.word	8000000
  73 0044 00000000 		.word	SystemCoreClock
  74              		.cfi_endproc
  75              	.LFE123:
  77              		.section	.text.HAL_RCC_OscConfig,"ax",%progbits
  78              		.align	2
  79              		.global	HAL_RCC_OscConfig
  80              		.thumb
  81              		.thumb_func
  83              	HAL_RCC_OscConfig:
  84              	.LFB124:
ARM GAS  C:\Users\geoma\AppData\Local\Temp\ccuxvdtO.s 			page 7


 262:Drivers/STM32F3xx_HAL_Driver/Src/stm32f3xx_hal_rcc.c **** }
 263:Drivers/STM32F3xx_HAL_Driver/Src/stm32f3xx_hal_rcc.c **** 
 264:Drivers/STM32F3xx_HAL_Driver/Src/stm32f3xx_hal_rcc.c **** /**
 265:Drivers/STM32F3xx_HAL_Driver/Src/stm32f3xx_hal_rcc.c ****   * @brief  Initializes the RCC Oscillators according to the specified parameters in the
 266:Drivers/STM32F3xx_HAL_Driver/Src/stm32f3xx_hal_rcc.c ****   *         RCC_OscInitTypeDef.
 267:Drivers/STM32F3xx_HAL_Driver/Src/stm32f3xx_hal_rcc.c ****   * @param  RCC_OscInitStruct pointer to an RCC_OscInitTypeDef structure that
 268:Drivers/STM32F3xx_HAL_Driver/Src/stm32f3xx_hal_rcc.c ****   *         contains the configuration information for the RCC Oscillators.
 269:Drivers/STM32F3xx_HAL_Driver/Src/stm32f3xx_hal_rcc.c ****   * @note   The PLL is not disabled when used as system clock.
 270:Drivers/STM32F3xx_HAL_Driver/Src/stm32f3xx_hal_rcc.c ****   * @note   Transitions LSE Bypass to LSE On and LSE On to LSE Bypass are not
 271:Drivers/STM32F3xx_HAL_Driver/Src/stm32f3xx_hal_rcc.c ****   *         supported by this macro. User should request a transition to LSE Off
 272:Drivers/STM32F3xx_HAL_Driver/Src/stm32f3xx_hal_rcc.c ****   *         first and then LSE On or LSE Bypass.
 273:Drivers/STM32F3xx_HAL_Driver/Src/stm32f3xx_hal_rcc.c ****   * @note   Transition HSE Bypass to HSE On and HSE On to HSE Bypass are not
 274:Drivers/STM32F3xx_HAL_Driver/Src/stm32f3xx_hal_rcc.c ****   *         supported by this macro. User should request a transition to HSE Off
 275:Drivers/STM32F3xx_HAL_Driver/Src/stm32f3xx_hal_rcc.c ****   *         first and then HSE On or HSE Bypass.
 276:Drivers/STM32F3xx_HAL_Driver/Src/stm32f3xx_hal_rcc.c ****   * @retval HAL status
 277:Drivers/STM32F3xx_HAL_Driver/Src/stm32f3xx_hal_rcc.c ****   */
 278:Drivers/STM32F3xx_HAL_Driver/Src/stm32f3xx_hal_rcc.c **** HAL_StatusTypeDef HAL_RCC_OscConfig(RCC_OscInitTypeDef  *RCC_OscInitStruct)
 279:Drivers/STM32F3xx_HAL_Driver/Src/stm32f3xx_hal_rcc.c **** {
  85              		.loc 1 279 0
  86              		.cfi_startproc
  87              		@ args = 0, pretend = 0, frame = 8
  88              		@ frame_needed = 0, uses_anonymous_args = 0
  89              	.LVL0:
  90 0000 70B5     		push	{r4, r5, r6, lr}
  91              	.LCFI0:
  92              		.cfi_def_cfa_offset 16
  93              		.cfi_offset 4, -16
  94              		.cfi_offset 5, -12
  95              		.cfi_offset 6, -8
  96              		.cfi_offset 14, -4
  97 0002 82B0     		sub	sp, sp, #8
  98              	.LCFI1:
  99              		.cfi_def_cfa_offset 24
 100 0004 0446     		mov	r4, r0
 101              	.LVL1:
 280:Drivers/STM32F3xx_HAL_Driver/Src/stm32f3xx_hal_rcc.c ****    uint32_t tickstart = 0U;
 281:Drivers/STM32F3xx_HAL_Driver/Src/stm32f3xx_hal_rcc.c ****   
 282:Drivers/STM32F3xx_HAL_Driver/Src/stm32f3xx_hal_rcc.c ****   /* Check the parameters */
 283:Drivers/STM32F3xx_HAL_Driver/Src/stm32f3xx_hal_rcc.c ****   assert_param(RCC_OscInitStruct != NULL);
 284:Drivers/STM32F3xx_HAL_Driver/Src/stm32f3xx_hal_rcc.c ****   assert_param(IS_RCC_OSCILLATORTYPE(RCC_OscInitStruct->OscillatorType));
 285:Drivers/STM32F3xx_HAL_Driver/Src/stm32f3xx_hal_rcc.c **** 
 286:Drivers/STM32F3xx_HAL_Driver/Src/stm32f3xx_hal_rcc.c ****   /*------------------------------- HSE Configuration ------------------------*/ 
 287:Drivers/STM32F3xx_HAL_Driver/Src/stm32f3xx_hal_rcc.c ****   if(((RCC_OscInitStruct->OscillatorType) & RCC_OSCILLATORTYPE_HSE) == RCC_OSCILLATORTYPE_HSE)
 102              		.loc 1 287 0
 103 0006 0368     		ldr	r3, [r0]
 104 0008 13F0010F 		tst	r3, #1
 105 000c 00F09D80 		beq	.L5
 288:Drivers/STM32F3xx_HAL_Driver/Src/stm32f3xx_hal_rcc.c ****   {
 289:Drivers/STM32F3xx_HAL_Driver/Src/stm32f3xx_hal_rcc.c ****     /* Check the parameters */
 290:Drivers/STM32F3xx_HAL_Driver/Src/stm32f3xx_hal_rcc.c ****     assert_param(IS_RCC_HSE(RCC_OscInitStruct->HSEState));
 291:Drivers/STM32F3xx_HAL_Driver/Src/stm32f3xx_hal_rcc.c **** 
 292:Drivers/STM32F3xx_HAL_Driver/Src/stm32f3xx_hal_rcc.c ****     /* When the HSE is used as system clock or clock source for PLL in these cases it is not allowe
 293:Drivers/STM32F3xx_HAL_Driver/Src/stm32f3xx_hal_rcc.c ****     if((__HAL_RCC_GET_SYSCLK_SOURCE() == RCC_SYSCLKSOURCE_STATUS_HSE) 
 106              		.loc 1 293 0
 107 0010 B64B     		ldr	r3, .L95
 108 0012 5B68     		ldr	r3, [r3, #4]
 109 0014 03F00C03 		and	r3, r3, #12
ARM GAS  C:\Users\geoma\AppData\Local\Temp\ccuxvdtO.s 			page 8


 110 0018 042B     		cmp	r3, #4
 111 001a 0AD0     		beq	.L6
 294:Drivers/STM32F3xx_HAL_Driver/Src/stm32f3xx_hal_rcc.c ****        || ((__HAL_RCC_GET_SYSCLK_SOURCE() == RCC_SYSCLKSOURCE_STATUS_PLLCLK) && (__HAL_RCC_GET_PLL_
 112              		.loc 1 294 0
 113 001c B34B     		ldr	r3, .L95
 114 001e 5B68     		ldr	r3, [r3, #4]
 115 0020 03F00C03 		and	r3, r3, #12
 116 0024 082B     		cmp	r3, #8
 117 0026 1BD1     		bne	.L7
 118              		.loc 1 294 0 is_stmt 0 discriminator 1
 119 0028 B04B     		ldr	r3, .L95
 120 002a 5B68     		ldr	r3, [r3, #4]
 121 002c 13F4803F 		tst	r3, #65536
 122 0030 16D0     		beq	.L7
 123              	.L6:
 124              	.LVL2:
 125              	.LBB166:
 126              	.LBB167:
 127              		.file 2 "Drivers/CMSIS/Include/cmsis_gcc.h"
   1:Drivers/CMSIS/Include/cmsis_gcc.h **** /**************************************************************************//**
   2:Drivers/CMSIS/Include/cmsis_gcc.h ****  * @file     cmsis_gcc.h
   3:Drivers/CMSIS/Include/cmsis_gcc.h ****  * @brief    CMSIS Cortex-M Core Function/Instruction Header File
   4:Drivers/CMSIS/Include/cmsis_gcc.h ****  * @version  V4.30
   5:Drivers/CMSIS/Include/cmsis_gcc.h ****  * @date     20. October 2015
   6:Drivers/CMSIS/Include/cmsis_gcc.h ****  ******************************************************************************/
   7:Drivers/CMSIS/Include/cmsis_gcc.h **** /* Copyright (c) 2009 - 2015 ARM LIMITED
   8:Drivers/CMSIS/Include/cmsis_gcc.h **** 
   9:Drivers/CMSIS/Include/cmsis_gcc.h ****    All rights reserved.
  10:Drivers/CMSIS/Include/cmsis_gcc.h ****    Redistribution and use in source and binary forms, with or without
  11:Drivers/CMSIS/Include/cmsis_gcc.h ****    modification, are permitted provided that the following conditions are met:
  12:Drivers/CMSIS/Include/cmsis_gcc.h ****    - Redistributions of source code must retain the above copyright
  13:Drivers/CMSIS/Include/cmsis_gcc.h ****      notice, this list of conditions and the following disclaimer.
  14:Drivers/CMSIS/Include/cmsis_gcc.h ****    - Redistributions in binary form must reproduce the above copyright
  15:Drivers/CMSIS/Include/cmsis_gcc.h ****      notice, this list of conditions and the following disclaimer in the
  16:Drivers/CMSIS/Include/cmsis_gcc.h ****      documentation and/or other materials provided with the distribution.
  17:Drivers/CMSIS/Include/cmsis_gcc.h ****    - Neither the name of ARM nor the names of its contributors may be used
  18:Drivers/CMSIS/Include/cmsis_gcc.h ****      to endorse or promote products derived from this software without
  19:Drivers/CMSIS/Include/cmsis_gcc.h ****      specific prior written permission.
  20:Drivers/CMSIS/Include/cmsis_gcc.h ****    *
  21:Drivers/CMSIS/Include/cmsis_gcc.h ****    THIS SOFTWARE IS PROVIDED BY THE COPYRIGHT HOLDERS AND CONTRIBUTORS "AS IS"
  22:Drivers/CMSIS/Include/cmsis_gcc.h ****    AND ANY EXPRESS OR IMPLIED WARRANTIES, INCLUDING, BUT NOT LIMITED TO, THE
  23:Drivers/CMSIS/Include/cmsis_gcc.h ****    IMPLIED WARRANTIES OF MERCHANTABILITY AND FITNESS FOR A PARTICULAR PURPOSE
  24:Drivers/CMSIS/Include/cmsis_gcc.h ****    ARE DISCLAIMED. IN NO EVENT SHALL COPYRIGHT HOLDERS AND CONTRIBUTORS BE
  25:Drivers/CMSIS/Include/cmsis_gcc.h ****    LIABLE FOR ANY DIRECT, INDIRECT, INCIDENTAL, SPECIAL, EXEMPLARY, OR
  26:Drivers/CMSIS/Include/cmsis_gcc.h ****    CONSEQUENTIAL DAMAGES (INCLUDING, BUT NOT LIMITED TO, PROCUREMENT OF
  27:Drivers/CMSIS/Include/cmsis_gcc.h ****    SUBSTITUTE GOODS OR SERVICES; LOSS OF USE, DATA, OR PROFITS; OR BUSINESS
  28:Drivers/CMSIS/Include/cmsis_gcc.h ****    INTERRUPTION) HOWEVER CAUSED AND ON ANY THEORY OF LIABILITY, WHETHER IN
  29:Drivers/CMSIS/Include/cmsis_gcc.h ****    CONTRACT, STRICT LIABILITY, OR TORT (INCLUDING NEGLIGENCE OR OTHERWISE)
  30:Drivers/CMSIS/Include/cmsis_gcc.h ****    ARISING IN ANY WAY OUT OF THE USE OF THIS SOFTWARE, EVEN IF ADVISED OF THE
  31:Drivers/CMSIS/Include/cmsis_gcc.h ****    POSSIBILITY OF SUCH DAMAGE.
  32:Drivers/CMSIS/Include/cmsis_gcc.h ****    ---------------------------------------------------------------------------*/
  33:Drivers/CMSIS/Include/cmsis_gcc.h **** 
  34:Drivers/CMSIS/Include/cmsis_gcc.h **** 
  35:Drivers/CMSIS/Include/cmsis_gcc.h **** #ifndef __CMSIS_GCC_H
  36:Drivers/CMSIS/Include/cmsis_gcc.h **** #define __CMSIS_GCC_H
  37:Drivers/CMSIS/Include/cmsis_gcc.h **** 
  38:Drivers/CMSIS/Include/cmsis_gcc.h **** /* ignore some GCC warnings */
ARM GAS  C:\Users\geoma\AppData\Local\Temp\ccuxvdtO.s 			page 9


  39:Drivers/CMSIS/Include/cmsis_gcc.h **** #if defined ( __GNUC__ )
  40:Drivers/CMSIS/Include/cmsis_gcc.h **** #pragma GCC diagnostic push
  41:Drivers/CMSIS/Include/cmsis_gcc.h **** #pragma GCC diagnostic ignored "-Wsign-conversion"
  42:Drivers/CMSIS/Include/cmsis_gcc.h **** #pragma GCC diagnostic ignored "-Wconversion"
  43:Drivers/CMSIS/Include/cmsis_gcc.h **** #pragma GCC diagnostic ignored "-Wunused-parameter"
  44:Drivers/CMSIS/Include/cmsis_gcc.h **** #endif
  45:Drivers/CMSIS/Include/cmsis_gcc.h **** 
  46:Drivers/CMSIS/Include/cmsis_gcc.h **** 
  47:Drivers/CMSIS/Include/cmsis_gcc.h **** /* ###########################  Core Function Access  ########################### */
  48:Drivers/CMSIS/Include/cmsis_gcc.h **** /** \ingroup  CMSIS_Core_FunctionInterface
  49:Drivers/CMSIS/Include/cmsis_gcc.h ****     \defgroup CMSIS_Core_RegAccFunctions CMSIS Core Register Access Functions
  50:Drivers/CMSIS/Include/cmsis_gcc.h ****   @{
  51:Drivers/CMSIS/Include/cmsis_gcc.h ****  */
  52:Drivers/CMSIS/Include/cmsis_gcc.h **** 
  53:Drivers/CMSIS/Include/cmsis_gcc.h **** /**
  54:Drivers/CMSIS/Include/cmsis_gcc.h ****   \brief   Enable IRQ Interrupts
  55:Drivers/CMSIS/Include/cmsis_gcc.h ****   \details Enables IRQ interrupts by clearing the I-bit in the CPSR.
  56:Drivers/CMSIS/Include/cmsis_gcc.h ****            Can only be executed in Privileged modes.
  57:Drivers/CMSIS/Include/cmsis_gcc.h ****  */
  58:Drivers/CMSIS/Include/cmsis_gcc.h **** __attribute__( ( always_inline ) ) __STATIC_INLINE void __enable_irq(void)
  59:Drivers/CMSIS/Include/cmsis_gcc.h **** {
  60:Drivers/CMSIS/Include/cmsis_gcc.h ****   __ASM volatile ("cpsie i" : : : "memory");
  61:Drivers/CMSIS/Include/cmsis_gcc.h **** }
  62:Drivers/CMSIS/Include/cmsis_gcc.h **** 
  63:Drivers/CMSIS/Include/cmsis_gcc.h **** 
  64:Drivers/CMSIS/Include/cmsis_gcc.h **** /**
  65:Drivers/CMSIS/Include/cmsis_gcc.h ****   \brief   Disable IRQ Interrupts
  66:Drivers/CMSIS/Include/cmsis_gcc.h ****   \details Disables IRQ interrupts by setting the I-bit in the CPSR.
  67:Drivers/CMSIS/Include/cmsis_gcc.h ****   Can only be executed in Privileged modes.
  68:Drivers/CMSIS/Include/cmsis_gcc.h ****  */
  69:Drivers/CMSIS/Include/cmsis_gcc.h **** __attribute__( ( always_inline ) ) __STATIC_INLINE void __disable_irq(void)
  70:Drivers/CMSIS/Include/cmsis_gcc.h **** {
  71:Drivers/CMSIS/Include/cmsis_gcc.h ****   __ASM volatile ("cpsid i" : : : "memory");
  72:Drivers/CMSIS/Include/cmsis_gcc.h **** }
  73:Drivers/CMSIS/Include/cmsis_gcc.h **** 
  74:Drivers/CMSIS/Include/cmsis_gcc.h **** 
  75:Drivers/CMSIS/Include/cmsis_gcc.h **** /**
  76:Drivers/CMSIS/Include/cmsis_gcc.h ****   \brief   Get Control Register
  77:Drivers/CMSIS/Include/cmsis_gcc.h ****   \details Returns the content of the Control Register.
  78:Drivers/CMSIS/Include/cmsis_gcc.h ****   \return               Control Register value
  79:Drivers/CMSIS/Include/cmsis_gcc.h ****  */
  80:Drivers/CMSIS/Include/cmsis_gcc.h **** __attribute__( ( always_inline ) ) __STATIC_INLINE uint32_t __get_CONTROL(void)
  81:Drivers/CMSIS/Include/cmsis_gcc.h **** {
  82:Drivers/CMSIS/Include/cmsis_gcc.h ****   uint32_t result;
  83:Drivers/CMSIS/Include/cmsis_gcc.h **** 
  84:Drivers/CMSIS/Include/cmsis_gcc.h ****   __ASM volatile ("MRS %0, control" : "=r" (result) );
  85:Drivers/CMSIS/Include/cmsis_gcc.h ****   return(result);
  86:Drivers/CMSIS/Include/cmsis_gcc.h **** }
  87:Drivers/CMSIS/Include/cmsis_gcc.h **** 
  88:Drivers/CMSIS/Include/cmsis_gcc.h **** 
  89:Drivers/CMSIS/Include/cmsis_gcc.h **** /**
  90:Drivers/CMSIS/Include/cmsis_gcc.h ****   \brief   Set Control Register
  91:Drivers/CMSIS/Include/cmsis_gcc.h ****   \details Writes the given value to the Control Register.
  92:Drivers/CMSIS/Include/cmsis_gcc.h ****   \param [in]    control  Control Register value to set
  93:Drivers/CMSIS/Include/cmsis_gcc.h ****  */
  94:Drivers/CMSIS/Include/cmsis_gcc.h **** __attribute__( ( always_inline ) ) __STATIC_INLINE void __set_CONTROL(uint32_t control)
  95:Drivers/CMSIS/Include/cmsis_gcc.h **** {
ARM GAS  C:\Users\geoma\AppData\Local\Temp\ccuxvdtO.s 			page 10


  96:Drivers/CMSIS/Include/cmsis_gcc.h ****   __ASM volatile ("MSR control, %0" : : "r" (control) : "memory");
  97:Drivers/CMSIS/Include/cmsis_gcc.h **** }
  98:Drivers/CMSIS/Include/cmsis_gcc.h **** 
  99:Drivers/CMSIS/Include/cmsis_gcc.h **** 
 100:Drivers/CMSIS/Include/cmsis_gcc.h **** /**
 101:Drivers/CMSIS/Include/cmsis_gcc.h ****   \brief   Get IPSR Register
 102:Drivers/CMSIS/Include/cmsis_gcc.h ****   \details Returns the content of the IPSR Register.
 103:Drivers/CMSIS/Include/cmsis_gcc.h ****   \return               IPSR Register value
 104:Drivers/CMSIS/Include/cmsis_gcc.h ****  */
 105:Drivers/CMSIS/Include/cmsis_gcc.h **** __attribute__( ( always_inline ) ) __STATIC_INLINE uint32_t __get_IPSR(void)
 106:Drivers/CMSIS/Include/cmsis_gcc.h **** {
 107:Drivers/CMSIS/Include/cmsis_gcc.h ****   uint32_t result;
 108:Drivers/CMSIS/Include/cmsis_gcc.h **** 
 109:Drivers/CMSIS/Include/cmsis_gcc.h ****   __ASM volatile ("MRS %0, ipsr" : "=r" (result) );
 110:Drivers/CMSIS/Include/cmsis_gcc.h ****   return(result);
 111:Drivers/CMSIS/Include/cmsis_gcc.h **** }
 112:Drivers/CMSIS/Include/cmsis_gcc.h **** 
 113:Drivers/CMSIS/Include/cmsis_gcc.h **** 
 114:Drivers/CMSIS/Include/cmsis_gcc.h **** /**
 115:Drivers/CMSIS/Include/cmsis_gcc.h ****   \brief   Get APSR Register
 116:Drivers/CMSIS/Include/cmsis_gcc.h ****   \details Returns the content of the APSR Register.
 117:Drivers/CMSIS/Include/cmsis_gcc.h ****   \return               APSR Register value
 118:Drivers/CMSIS/Include/cmsis_gcc.h ****  */
 119:Drivers/CMSIS/Include/cmsis_gcc.h **** __attribute__( ( always_inline ) ) __STATIC_INLINE uint32_t __get_APSR(void)
 120:Drivers/CMSIS/Include/cmsis_gcc.h **** {
 121:Drivers/CMSIS/Include/cmsis_gcc.h ****   uint32_t result;
 122:Drivers/CMSIS/Include/cmsis_gcc.h **** 
 123:Drivers/CMSIS/Include/cmsis_gcc.h ****   __ASM volatile ("MRS %0, apsr" : "=r" (result) );
 124:Drivers/CMSIS/Include/cmsis_gcc.h ****   return(result);
 125:Drivers/CMSIS/Include/cmsis_gcc.h **** }
 126:Drivers/CMSIS/Include/cmsis_gcc.h **** 
 127:Drivers/CMSIS/Include/cmsis_gcc.h **** 
 128:Drivers/CMSIS/Include/cmsis_gcc.h **** /**
 129:Drivers/CMSIS/Include/cmsis_gcc.h ****   \brief   Get xPSR Register
 130:Drivers/CMSIS/Include/cmsis_gcc.h ****   \details Returns the content of the xPSR Register.
 131:Drivers/CMSIS/Include/cmsis_gcc.h **** 
 132:Drivers/CMSIS/Include/cmsis_gcc.h ****     \return               xPSR Register value
 133:Drivers/CMSIS/Include/cmsis_gcc.h ****  */
 134:Drivers/CMSIS/Include/cmsis_gcc.h **** __attribute__( ( always_inline ) ) __STATIC_INLINE uint32_t __get_xPSR(void)
 135:Drivers/CMSIS/Include/cmsis_gcc.h **** {
 136:Drivers/CMSIS/Include/cmsis_gcc.h ****   uint32_t result;
 137:Drivers/CMSIS/Include/cmsis_gcc.h **** 
 138:Drivers/CMSIS/Include/cmsis_gcc.h ****   __ASM volatile ("MRS %0, xpsr" : "=r" (result) );
 139:Drivers/CMSIS/Include/cmsis_gcc.h ****   return(result);
 140:Drivers/CMSIS/Include/cmsis_gcc.h **** }
 141:Drivers/CMSIS/Include/cmsis_gcc.h **** 
 142:Drivers/CMSIS/Include/cmsis_gcc.h **** 
 143:Drivers/CMSIS/Include/cmsis_gcc.h **** /**
 144:Drivers/CMSIS/Include/cmsis_gcc.h ****   \brief   Get Process Stack Pointer
 145:Drivers/CMSIS/Include/cmsis_gcc.h ****   \details Returns the current value of the Process Stack Pointer (PSP).
 146:Drivers/CMSIS/Include/cmsis_gcc.h ****   \return               PSP Register value
 147:Drivers/CMSIS/Include/cmsis_gcc.h ****  */
 148:Drivers/CMSIS/Include/cmsis_gcc.h **** __attribute__( ( always_inline ) ) __STATIC_INLINE uint32_t __get_PSP(void)
 149:Drivers/CMSIS/Include/cmsis_gcc.h **** {
 150:Drivers/CMSIS/Include/cmsis_gcc.h ****   register uint32_t result;
 151:Drivers/CMSIS/Include/cmsis_gcc.h **** 
 152:Drivers/CMSIS/Include/cmsis_gcc.h ****   __ASM volatile ("MRS %0, psp\n"  : "=r" (result) );
ARM GAS  C:\Users\geoma\AppData\Local\Temp\ccuxvdtO.s 			page 11


 153:Drivers/CMSIS/Include/cmsis_gcc.h ****   return(result);
 154:Drivers/CMSIS/Include/cmsis_gcc.h **** }
 155:Drivers/CMSIS/Include/cmsis_gcc.h **** 
 156:Drivers/CMSIS/Include/cmsis_gcc.h **** 
 157:Drivers/CMSIS/Include/cmsis_gcc.h **** /**
 158:Drivers/CMSIS/Include/cmsis_gcc.h ****   \brief   Set Process Stack Pointer
 159:Drivers/CMSIS/Include/cmsis_gcc.h ****   \details Assigns the given value to the Process Stack Pointer (PSP).
 160:Drivers/CMSIS/Include/cmsis_gcc.h ****   \param [in]    topOfProcStack  Process Stack Pointer value to set
 161:Drivers/CMSIS/Include/cmsis_gcc.h ****  */
 162:Drivers/CMSIS/Include/cmsis_gcc.h **** __attribute__( ( always_inline ) ) __STATIC_INLINE void __set_PSP(uint32_t topOfProcStack)
 163:Drivers/CMSIS/Include/cmsis_gcc.h **** {
 164:Drivers/CMSIS/Include/cmsis_gcc.h ****   __ASM volatile ("MSR psp, %0\n" : : "r" (topOfProcStack) : "sp");
 165:Drivers/CMSIS/Include/cmsis_gcc.h **** }
 166:Drivers/CMSIS/Include/cmsis_gcc.h **** 
 167:Drivers/CMSIS/Include/cmsis_gcc.h **** 
 168:Drivers/CMSIS/Include/cmsis_gcc.h **** /**
 169:Drivers/CMSIS/Include/cmsis_gcc.h ****   \brief   Get Main Stack Pointer
 170:Drivers/CMSIS/Include/cmsis_gcc.h ****   \details Returns the current value of the Main Stack Pointer (MSP).
 171:Drivers/CMSIS/Include/cmsis_gcc.h ****   \return               MSP Register value
 172:Drivers/CMSIS/Include/cmsis_gcc.h ****  */
 173:Drivers/CMSIS/Include/cmsis_gcc.h **** __attribute__( ( always_inline ) ) __STATIC_INLINE uint32_t __get_MSP(void)
 174:Drivers/CMSIS/Include/cmsis_gcc.h **** {
 175:Drivers/CMSIS/Include/cmsis_gcc.h ****   register uint32_t result;
 176:Drivers/CMSIS/Include/cmsis_gcc.h **** 
 177:Drivers/CMSIS/Include/cmsis_gcc.h ****   __ASM volatile ("MRS %0, msp\n" : "=r" (result) );
 178:Drivers/CMSIS/Include/cmsis_gcc.h ****   return(result);
 179:Drivers/CMSIS/Include/cmsis_gcc.h **** }
 180:Drivers/CMSIS/Include/cmsis_gcc.h **** 
 181:Drivers/CMSIS/Include/cmsis_gcc.h **** 
 182:Drivers/CMSIS/Include/cmsis_gcc.h **** /**
 183:Drivers/CMSIS/Include/cmsis_gcc.h ****   \brief   Set Main Stack Pointer
 184:Drivers/CMSIS/Include/cmsis_gcc.h ****   \details Assigns the given value to the Main Stack Pointer (MSP).
 185:Drivers/CMSIS/Include/cmsis_gcc.h **** 
 186:Drivers/CMSIS/Include/cmsis_gcc.h ****     \param [in]    topOfMainStack  Main Stack Pointer value to set
 187:Drivers/CMSIS/Include/cmsis_gcc.h ****  */
 188:Drivers/CMSIS/Include/cmsis_gcc.h **** __attribute__( ( always_inline ) ) __STATIC_INLINE void __set_MSP(uint32_t topOfMainStack)
 189:Drivers/CMSIS/Include/cmsis_gcc.h **** {
 190:Drivers/CMSIS/Include/cmsis_gcc.h ****   __ASM volatile ("MSR msp, %0\n" : : "r" (topOfMainStack) : "sp");
 191:Drivers/CMSIS/Include/cmsis_gcc.h **** }
 192:Drivers/CMSIS/Include/cmsis_gcc.h **** 
 193:Drivers/CMSIS/Include/cmsis_gcc.h **** 
 194:Drivers/CMSIS/Include/cmsis_gcc.h **** /**
 195:Drivers/CMSIS/Include/cmsis_gcc.h ****   \brief   Get Priority Mask
 196:Drivers/CMSIS/Include/cmsis_gcc.h ****   \details Returns the current state of the priority mask bit from the Priority Mask Register.
 197:Drivers/CMSIS/Include/cmsis_gcc.h ****   \return               Priority Mask value
 198:Drivers/CMSIS/Include/cmsis_gcc.h ****  */
 199:Drivers/CMSIS/Include/cmsis_gcc.h **** __attribute__( ( always_inline ) ) __STATIC_INLINE uint32_t __get_PRIMASK(void)
 200:Drivers/CMSIS/Include/cmsis_gcc.h **** {
 201:Drivers/CMSIS/Include/cmsis_gcc.h ****   uint32_t result;
 202:Drivers/CMSIS/Include/cmsis_gcc.h **** 
 203:Drivers/CMSIS/Include/cmsis_gcc.h ****   __ASM volatile ("MRS %0, primask" : "=r" (result) );
 204:Drivers/CMSIS/Include/cmsis_gcc.h ****   return(result);
 205:Drivers/CMSIS/Include/cmsis_gcc.h **** }
 206:Drivers/CMSIS/Include/cmsis_gcc.h **** 
 207:Drivers/CMSIS/Include/cmsis_gcc.h **** 
 208:Drivers/CMSIS/Include/cmsis_gcc.h **** /**
 209:Drivers/CMSIS/Include/cmsis_gcc.h ****   \brief   Set Priority Mask
ARM GAS  C:\Users\geoma\AppData\Local\Temp\ccuxvdtO.s 			page 12


 210:Drivers/CMSIS/Include/cmsis_gcc.h ****   \details Assigns the given value to the Priority Mask Register.
 211:Drivers/CMSIS/Include/cmsis_gcc.h ****   \param [in]    priMask  Priority Mask
 212:Drivers/CMSIS/Include/cmsis_gcc.h ****  */
 213:Drivers/CMSIS/Include/cmsis_gcc.h **** __attribute__( ( always_inline ) ) __STATIC_INLINE void __set_PRIMASK(uint32_t priMask)
 214:Drivers/CMSIS/Include/cmsis_gcc.h **** {
 215:Drivers/CMSIS/Include/cmsis_gcc.h ****   __ASM volatile ("MSR primask, %0" : : "r" (priMask) : "memory");
 216:Drivers/CMSIS/Include/cmsis_gcc.h **** }
 217:Drivers/CMSIS/Include/cmsis_gcc.h **** 
 218:Drivers/CMSIS/Include/cmsis_gcc.h **** 
 219:Drivers/CMSIS/Include/cmsis_gcc.h **** #if       (__CORTEX_M >= 0x03U)
 220:Drivers/CMSIS/Include/cmsis_gcc.h **** 
 221:Drivers/CMSIS/Include/cmsis_gcc.h **** /**
 222:Drivers/CMSIS/Include/cmsis_gcc.h ****   \brief   Enable FIQ
 223:Drivers/CMSIS/Include/cmsis_gcc.h ****   \details Enables FIQ interrupts by clearing the F-bit in the CPSR.
 224:Drivers/CMSIS/Include/cmsis_gcc.h ****            Can only be executed in Privileged modes.
 225:Drivers/CMSIS/Include/cmsis_gcc.h ****  */
 226:Drivers/CMSIS/Include/cmsis_gcc.h **** __attribute__( ( always_inline ) ) __STATIC_INLINE void __enable_fault_irq(void)
 227:Drivers/CMSIS/Include/cmsis_gcc.h **** {
 228:Drivers/CMSIS/Include/cmsis_gcc.h ****   __ASM volatile ("cpsie f" : : : "memory");
 229:Drivers/CMSIS/Include/cmsis_gcc.h **** }
 230:Drivers/CMSIS/Include/cmsis_gcc.h **** 
 231:Drivers/CMSIS/Include/cmsis_gcc.h **** 
 232:Drivers/CMSIS/Include/cmsis_gcc.h **** /**
 233:Drivers/CMSIS/Include/cmsis_gcc.h ****   \brief   Disable FIQ
 234:Drivers/CMSIS/Include/cmsis_gcc.h ****   \details Disables FIQ interrupts by setting the F-bit in the CPSR.
 235:Drivers/CMSIS/Include/cmsis_gcc.h ****            Can only be executed in Privileged modes.
 236:Drivers/CMSIS/Include/cmsis_gcc.h ****  */
 237:Drivers/CMSIS/Include/cmsis_gcc.h **** __attribute__( ( always_inline ) ) __STATIC_INLINE void __disable_fault_irq(void)
 238:Drivers/CMSIS/Include/cmsis_gcc.h **** {
 239:Drivers/CMSIS/Include/cmsis_gcc.h ****   __ASM volatile ("cpsid f" : : : "memory");
 240:Drivers/CMSIS/Include/cmsis_gcc.h **** }
 241:Drivers/CMSIS/Include/cmsis_gcc.h **** 
 242:Drivers/CMSIS/Include/cmsis_gcc.h **** 
 243:Drivers/CMSIS/Include/cmsis_gcc.h **** /**
 244:Drivers/CMSIS/Include/cmsis_gcc.h ****   \brief   Get Base Priority
 245:Drivers/CMSIS/Include/cmsis_gcc.h ****   \details Returns the current value of the Base Priority register.
 246:Drivers/CMSIS/Include/cmsis_gcc.h ****   \return               Base Priority register value
 247:Drivers/CMSIS/Include/cmsis_gcc.h ****  */
 248:Drivers/CMSIS/Include/cmsis_gcc.h **** __attribute__( ( always_inline ) ) __STATIC_INLINE uint32_t __get_BASEPRI(void)
 249:Drivers/CMSIS/Include/cmsis_gcc.h **** {
 250:Drivers/CMSIS/Include/cmsis_gcc.h ****   uint32_t result;
 251:Drivers/CMSIS/Include/cmsis_gcc.h **** 
 252:Drivers/CMSIS/Include/cmsis_gcc.h ****   __ASM volatile ("MRS %0, basepri" : "=r" (result) );
 253:Drivers/CMSIS/Include/cmsis_gcc.h ****   return(result);
 254:Drivers/CMSIS/Include/cmsis_gcc.h **** }
 255:Drivers/CMSIS/Include/cmsis_gcc.h **** 
 256:Drivers/CMSIS/Include/cmsis_gcc.h **** 
 257:Drivers/CMSIS/Include/cmsis_gcc.h **** /**
 258:Drivers/CMSIS/Include/cmsis_gcc.h ****   \brief   Set Base Priority
 259:Drivers/CMSIS/Include/cmsis_gcc.h ****   \details Assigns the given value to the Base Priority register.
 260:Drivers/CMSIS/Include/cmsis_gcc.h ****   \param [in]    basePri  Base Priority value to set
 261:Drivers/CMSIS/Include/cmsis_gcc.h ****  */
 262:Drivers/CMSIS/Include/cmsis_gcc.h **** __attribute__( ( always_inline ) ) __STATIC_INLINE void __set_BASEPRI(uint32_t value)
 263:Drivers/CMSIS/Include/cmsis_gcc.h **** {
 264:Drivers/CMSIS/Include/cmsis_gcc.h ****   __ASM volatile ("MSR basepri, %0" : : "r" (value) : "memory");
 265:Drivers/CMSIS/Include/cmsis_gcc.h **** }
 266:Drivers/CMSIS/Include/cmsis_gcc.h **** 
ARM GAS  C:\Users\geoma\AppData\Local\Temp\ccuxvdtO.s 			page 13


 267:Drivers/CMSIS/Include/cmsis_gcc.h **** 
 268:Drivers/CMSIS/Include/cmsis_gcc.h **** /**
 269:Drivers/CMSIS/Include/cmsis_gcc.h ****   \brief   Set Base Priority with condition
 270:Drivers/CMSIS/Include/cmsis_gcc.h ****   \details Assigns the given value to the Base Priority register only if BASEPRI masking is disable
 271:Drivers/CMSIS/Include/cmsis_gcc.h ****            or the new value increases the BASEPRI priority level.
 272:Drivers/CMSIS/Include/cmsis_gcc.h ****   \param [in]    basePri  Base Priority value to set
 273:Drivers/CMSIS/Include/cmsis_gcc.h ****  */
 274:Drivers/CMSIS/Include/cmsis_gcc.h **** __attribute__( ( always_inline ) ) __STATIC_INLINE void __set_BASEPRI_MAX(uint32_t value)
 275:Drivers/CMSIS/Include/cmsis_gcc.h **** {
 276:Drivers/CMSIS/Include/cmsis_gcc.h ****   __ASM volatile ("MSR basepri_max, %0" : : "r" (value) : "memory");
 277:Drivers/CMSIS/Include/cmsis_gcc.h **** }
 278:Drivers/CMSIS/Include/cmsis_gcc.h **** 
 279:Drivers/CMSIS/Include/cmsis_gcc.h **** 
 280:Drivers/CMSIS/Include/cmsis_gcc.h **** /**
 281:Drivers/CMSIS/Include/cmsis_gcc.h ****   \brief   Get Fault Mask
 282:Drivers/CMSIS/Include/cmsis_gcc.h ****   \details Returns the current value of the Fault Mask register.
 283:Drivers/CMSIS/Include/cmsis_gcc.h ****   \return               Fault Mask register value
 284:Drivers/CMSIS/Include/cmsis_gcc.h ****  */
 285:Drivers/CMSIS/Include/cmsis_gcc.h **** __attribute__( ( always_inline ) ) __STATIC_INLINE uint32_t __get_FAULTMASK(void)
 286:Drivers/CMSIS/Include/cmsis_gcc.h **** {
 287:Drivers/CMSIS/Include/cmsis_gcc.h ****   uint32_t result;
 288:Drivers/CMSIS/Include/cmsis_gcc.h **** 
 289:Drivers/CMSIS/Include/cmsis_gcc.h ****   __ASM volatile ("MRS %0, faultmask" : "=r" (result) );
 290:Drivers/CMSIS/Include/cmsis_gcc.h ****   return(result);
 291:Drivers/CMSIS/Include/cmsis_gcc.h **** }
 292:Drivers/CMSIS/Include/cmsis_gcc.h **** 
 293:Drivers/CMSIS/Include/cmsis_gcc.h **** 
 294:Drivers/CMSIS/Include/cmsis_gcc.h **** /**
 295:Drivers/CMSIS/Include/cmsis_gcc.h ****   \brief   Set Fault Mask
 296:Drivers/CMSIS/Include/cmsis_gcc.h ****   \details Assigns the given value to the Fault Mask register.
 297:Drivers/CMSIS/Include/cmsis_gcc.h ****   \param [in]    faultMask  Fault Mask value to set
 298:Drivers/CMSIS/Include/cmsis_gcc.h ****  */
 299:Drivers/CMSIS/Include/cmsis_gcc.h **** __attribute__( ( always_inline ) ) __STATIC_INLINE void __set_FAULTMASK(uint32_t faultMask)
 300:Drivers/CMSIS/Include/cmsis_gcc.h **** {
 301:Drivers/CMSIS/Include/cmsis_gcc.h ****   __ASM volatile ("MSR faultmask, %0" : : "r" (faultMask) : "memory");
 302:Drivers/CMSIS/Include/cmsis_gcc.h **** }
 303:Drivers/CMSIS/Include/cmsis_gcc.h **** 
 304:Drivers/CMSIS/Include/cmsis_gcc.h **** #endif /* (__CORTEX_M >= 0x03U) */
 305:Drivers/CMSIS/Include/cmsis_gcc.h **** 
 306:Drivers/CMSIS/Include/cmsis_gcc.h **** 
 307:Drivers/CMSIS/Include/cmsis_gcc.h **** #if       (__CORTEX_M == 0x04U) || (__CORTEX_M == 0x07U)
 308:Drivers/CMSIS/Include/cmsis_gcc.h **** 
 309:Drivers/CMSIS/Include/cmsis_gcc.h **** /**
 310:Drivers/CMSIS/Include/cmsis_gcc.h ****   \brief   Get FPSCR
 311:Drivers/CMSIS/Include/cmsis_gcc.h ****   \details Returns the current value of the Floating Point Status/Control register.
 312:Drivers/CMSIS/Include/cmsis_gcc.h ****   \return               Floating Point Status/Control register value
 313:Drivers/CMSIS/Include/cmsis_gcc.h ****  */
 314:Drivers/CMSIS/Include/cmsis_gcc.h **** __attribute__( ( always_inline ) ) __STATIC_INLINE uint32_t __get_FPSCR(void)
 315:Drivers/CMSIS/Include/cmsis_gcc.h **** {
 316:Drivers/CMSIS/Include/cmsis_gcc.h **** #if (__FPU_PRESENT == 1U) && (__FPU_USED == 1U)
 317:Drivers/CMSIS/Include/cmsis_gcc.h ****   uint32_t result;
 318:Drivers/CMSIS/Include/cmsis_gcc.h **** 
 319:Drivers/CMSIS/Include/cmsis_gcc.h ****   /* Empty asm statement works as a scheduling barrier */
 320:Drivers/CMSIS/Include/cmsis_gcc.h ****   __ASM volatile ("");
 321:Drivers/CMSIS/Include/cmsis_gcc.h ****   __ASM volatile ("VMRS %0, fpscr" : "=r" (result) );
 322:Drivers/CMSIS/Include/cmsis_gcc.h ****   __ASM volatile ("");
 323:Drivers/CMSIS/Include/cmsis_gcc.h ****   return(result);
ARM GAS  C:\Users\geoma\AppData\Local\Temp\ccuxvdtO.s 			page 14


 324:Drivers/CMSIS/Include/cmsis_gcc.h **** #else
 325:Drivers/CMSIS/Include/cmsis_gcc.h ****    return(0);
 326:Drivers/CMSIS/Include/cmsis_gcc.h **** #endif
 327:Drivers/CMSIS/Include/cmsis_gcc.h **** }
 328:Drivers/CMSIS/Include/cmsis_gcc.h **** 
 329:Drivers/CMSIS/Include/cmsis_gcc.h **** 
 330:Drivers/CMSIS/Include/cmsis_gcc.h **** /**
 331:Drivers/CMSIS/Include/cmsis_gcc.h ****   \brief   Set FPSCR
 332:Drivers/CMSIS/Include/cmsis_gcc.h ****   \details Assigns the given value to the Floating Point Status/Control register.
 333:Drivers/CMSIS/Include/cmsis_gcc.h ****   \param [in]    fpscr  Floating Point Status/Control value to set
 334:Drivers/CMSIS/Include/cmsis_gcc.h ****  */
 335:Drivers/CMSIS/Include/cmsis_gcc.h **** __attribute__( ( always_inline ) ) __STATIC_INLINE void __set_FPSCR(uint32_t fpscr)
 336:Drivers/CMSIS/Include/cmsis_gcc.h **** {
 337:Drivers/CMSIS/Include/cmsis_gcc.h **** #if (__FPU_PRESENT == 1U) && (__FPU_USED == 1U)
 338:Drivers/CMSIS/Include/cmsis_gcc.h ****   /* Empty asm statement works as a scheduling barrier */
 339:Drivers/CMSIS/Include/cmsis_gcc.h ****   __ASM volatile ("");
 340:Drivers/CMSIS/Include/cmsis_gcc.h ****   __ASM volatile ("VMSR fpscr, %0" : : "r" (fpscr) : "vfpcc");
 341:Drivers/CMSIS/Include/cmsis_gcc.h ****   __ASM volatile ("");
 342:Drivers/CMSIS/Include/cmsis_gcc.h **** #endif
 343:Drivers/CMSIS/Include/cmsis_gcc.h **** }
 344:Drivers/CMSIS/Include/cmsis_gcc.h **** 
 345:Drivers/CMSIS/Include/cmsis_gcc.h **** #endif /* (__CORTEX_M == 0x04U) || (__CORTEX_M == 0x07U) */
 346:Drivers/CMSIS/Include/cmsis_gcc.h **** 
 347:Drivers/CMSIS/Include/cmsis_gcc.h **** 
 348:Drivers/CMSIS/Include/cmsis_gcc.h **** 
 349:Drivers/CMSIS/Include/cmsis_gcc.h **** /*@} end of CMSIS_Core_RegAccFunctions */
 350:Drivers/CMSIS/Include/cmsis_gcc.h **** 
 351:Drivers/CMSIS/Include/cmsis_gcc.h **** 
 352:Drivers/CMSIS/Include/cmsis_gcc.h **** /* ##########################  Core Instruction Access  ######################### */
 353:Drivers/CMSIS/Include/cmsis_gcc.h **** /** \defgroup CMSIS_Core_InstructionInterface CMSIS Core Instruction Interface
 354:Drivers/CMSIS/Include/cmsis_gcc.h ****   Access to dedicated instructions
 355:Drivers/CMSIS/Include/cmsis_gcc.h ****   @{
 356:Drivers/CMSIS/Include/cmsis_gcc.h **** */
 357:Drivers/CMSIS/Include/cmsis_gcc.h **** 
 358:Drivers/CMSIS/Include/cmsis_gcc.h **** /* Define macros for porting to both thumb1 and thumb2.
 359:Drivers/CMSIS/Include/cmsis_gcc.h ****  * For thumb1, use low register (r0-r7), specified by constraint "l"
 360:Drivers/CMSIS/Include/cmsis_gcc.h ****  * Otherwise, use general registers, specified by constraint "r" */
 361:Drivers/CMSIS/Include/cmsis_gcc.h **** #if defined (__thumb__) && !defined (__thumb2__)
 362:Drivers/CMSIS/Include/cmsis_gcc.h **** #define __CMSIS_GCC_OUT_REG(r) "=l" (r)
 363:Drivers/CMSIS/Include/cmsis_gcc.h **** #define __CMSIS_GCC_USE_REG(r) "l" (r)
 364:Drivers/CMSIS/Include/cmsis_gcc.h **** #else
 365:Drivers/CMSIS/Include/cmsis_gcc.h **** #define __CMSIS_GCC_OUT_REG(r) "=r" (r)
 366:Drivers/CMSIS/Include/cmsis_gcc.h **** #define __CMSIS_GCC_USE_REG(r) "r" (r)
 367:Drivers/CMSIS/Include/cmsis_gcc.h **** #endif
 368:Drivers/CMSIS/Include/cmsis_gcc.h **** 
 369:Drivers/CMSIS/Include/cmsis_gcc.h **** /**
 370:Drivers/CMSIS/Include/cmsis_gcc.h ****   \brief   No Operation
 371:Drivers/CMSIS/Include/cmsis_gcc.h ****   \details No Operation does nothing. This instruction can be used for code alignment purposes.
 372:Drivers/CMSIS/Include/cmsis_gcc.h ****  */
 373:Drivers/CMSIS/Include/cmsis_gcc.h **** __attribute__((always_inline)) __STATIC_INLINE void __NOP(void)
 374:Drivers/CMSIS/Include/cmsis_gcc.h **** {
 375:Drivers/CMSIS/Include/cmsis_gcc.h ****   __ASM volatile ("nop");
 376:Drivers/CMSIS/Include/cmsis_gcc.h **** }
 377:Drivers/CMSIS/Include/cmsis_gcc.h **** 
 378:Drivers/CMSIS/Include/cmsis_gcc.h **** 
 379:Drivers/CMSIS/Include/cmsis_gcc.h **** /**
 380:Drivers/CMSIS/Include/cmsis_gcc.h ****   \brief   Wait For Interrupt
ARM GAS  C:\Users\geoma\AppData\Local\Temp\ccuxvdtO.s 			page 15


 381:Drivers/CMSIS/Include/cmsis_gcc.h ****   \details Wait For Interrupt is a hint instruction that suspends execution until one of a number o
 382:Drivers/CMSIS/Include/cmsis_gcc.h ****  */
 383:Drivers/CMSIS/Include/cmsis_gcc.h **** __attribute__((always_inline)) __STATIC_INLINE void __WFI(void)
 384:Drivers/CMSIS/Include/cmsis_gcc.h **** {
 385:Drivers/CMSIS/Include/cmsis_gcc.h ****   __ASM volatile ("wfi");
 386:Drivers/CMSIS/Include/cmsis_gcc.h **** }
 387:Drivers/CMSIS/Include/cmsis_gcc.h **** 
 388:Drivers/CMSIS/Include/cmsis_gcc.h **** 
 389:Drivers/CMSIS/Include/cmsis_gcc.h **** /**
 390:Drivers/CMSIS/Include/cmsis_gcc.h ****   \brief   Wait For Event
 391:Drivers/CMSIS/Include/cmsis_gcc.h ****   \details Wait For Event is a hint instruction that permits the processor to enter
 392:Drivers/CMSIS/Include/cmsis_gcc.h ****     a low-power state until one of a number of events occurs.
 393:Drivers/CMSIS/Include/cmsis_gcc.h ****  */
 394:Drivers/CMSIS/Include/cmsis_gcc.h **** __attribute__((always_inline)) __STATIC_INLINE void __WFE(void)
 395:Drivers/CMSIS/Include/cmsis_gcc.h **** {
 396:Drivers/CMSIS/Include/cmsis_gcc.h ****   __ASM volatile ("wfe");
 397:Drivers/CMSIS/Include/cmsis_gcc.h **** }
 398:Drivers/CMSIS/Include/cmsis_gcc.h **** 
 399:Drivers/CMSIS/Include/cmsis_gcc.h **** 
 400:Drivers/CMSIS/Include/cmsis_gcc.h **** /**
 401:Drivers/CMSIS/Include/cmsis_gcc.h ****   \brief   Send Event
 402:Drivers/CMSIS/Include/cmsis_gcc.h ****   \details Send Event is a hint instruction. It causes an event to be signaled to the CPU.
 403:Drivers/CMSIS/Include/cmsis_gcc.h ****  */
 404:Drivers/CMSIS/Include/cmsis_gcc.h **** __attribute__((always_inline)) __STATIC_INLINE void __SEV(void)
 405:Drivers/CMSIS/Include/cmsis_gcc.h **** {
 406:Drivers/CMSIS/Include/cmsis_gcc.h ****   __ASM volatile ("sev");
 407:Drivers/CMSIS/Include/cmsis_gcc.h **** }
 408:Drivers/CMSIS/Include/cmsis_gcc.h **** 
 409:Drivers/CMSIS/Include/cmsis_gcc.h **** 
 410:Drivers/CMSIS/Include/cmsis_gcc.h **** /**
 411:Drivers/CMSIS/Include/cmsis_gcc.h ****   \brief   Instruction Synchronization Barrier
 412:Drivers/CMSIS/Include/cmsis_gcc.h ****   \details Instruction Synchronization Barrier flushes the pipeline in the processor,
 413:Drivers/CMSIS/Include/cmsis_gcc.h ****            so that all instructions following the ISB are fetched from cache or memory,
 414:Drivers/CMSIS/Include/cmsis_gcc.h ****            after the instruction has been completed.
 415:Drivers/CMSIS/Include/cmsis_gcc.h ****  */
 416:Drivers/CMSIS/Include/cmsis_gcc.h **** __attribute__((always_inline)) __STATIC_INLINE void __ISB(void)
 417:Drivers/CMSIS/Include/cmsis_gcc.h **** {
 418:Drivers/CMSIS/Include/cmsis_gcc.h ****   __ASM volatile ("isb 0xF":::"memory");
 419:Drivers/CMSIS/Include/cmsis_gcc.h **** }
 420:Drivers/CMSIS/Include/cmsis_gcc.h **** 
 421:Drivers/CMSIS/Include/cmsis_gcc.h **** 
 422:Drivers/CMSIS/Include/cmsis_gcc.h **** /**
 423:Drivers/CMSIS/Include/cmsis_gcc.h ****   \brief   Data Synchronization Barrier
 424:Drivers/CMSIS/Include/cmsis_gcc.h ****   \details Acts as a special kind of Data Memory Barrier.
 425:Drivers/CMSIS/Include/cmsis_gcc.h ****            It completes when all explicit memory accesses before this instruction complete.
 426:Drivers/CMSIS/Include/cmsis_gcc.h ****  */
 427:Drivers/CMSIS/Include/cmsis_gcc.h **** __attribute__((always_inline)) __STATIC_INLINE void __DSB(void)
 428:Drivers/CMSIS/Include/cmsis_gcc.h **** {
 429:Drivers/CMSIS/Include/cmsis_gcc.h ****   __ASM volatile ("dsb 0xF":::"memory");
 430:Drivers/CMSIS/Include/cmsis_gcc.h **** }
 431:Drivers/CMSIS/Include/cmsis_gcc.h **** 
 432:Drivers/CMSIS/Include/cmsis_gcc.h **** 
 433:Drivers/CMSIS/Include/cmsis_gcc.h **** /**
 434:Drivers/CMSIS/Include/cmsis_gcc.h ****   \brief   Data Memory Barrier
 435:Drivers/CMSIS/Include/cmsis_gcc.h ****   \details Ensures the apparent order of the explicit memory operations before
 436:Drivers/CMSIS/Include/cmsis_gcc.h ****            and after the instruction, without ensuring their completion.
 437:Drivers/CMSIS/Include/cmsis_gcc.h ****  */
ARM GAS  C:\Users\geoma\AppData\Local\Temp\ccuxvdtO.s 			page 16


 438:Drivers/CMSIS/Include/cmsis_gcc.h **** __attribute__((always_inline)) __STATIC_INLINE void __DMB(void)
 439:Drivers/CMSIS/Include/cmsis_gcc.h **** {
 440:Drivers/CMSIS/Include/cmsis_gcc.h ****   __ASM volatile ("dmb 0xF":::"memory");
 441:Drivers/CMSIS/Include/cmsis_gcc.h **** }
 442:Drivers/CMSIS/Include/cmsis_gcc.h **** 
 443:Drivers/CMSIS/Include/cmsis_gcc.h **** 
 444:Drivers/CMSIS/Include/cmsis_gcc.h **** /**
 445:Drivers/CMSIS/Include/cmsis_gcc.h ****   \brief   Reverse byte order (32 bit)
 446:Drivers/CMSIS/Include/cmsis_gcc.h ****   \details Reverses the byte order in integer value.
 447:Drivers/CMSIS/Include/cmsis_gcc.h ****   \param [in]    value  Value to reverse
 448:Drivers/CMSIS/Include/cmsis_gcc.h ****   \return               Reversed value
 449:Drivers/CMSIS/Include/cmsis_gcc.h ****  */
 450:Drivers/CMSIS/Include/cmsis_gcc.h **** __attribute__((always_inline)) __STATIC_INLINE uint32_t __REV(uint32_t value)
 451:Drivers/CMSIS/Include/cmsis_gcc.h **** {
 452:Drivers/CMSIS/Include/cmsis_gcc.h **** #if (__GNUC__ > 4) || (__GNUC__ == 4 && __GNUC_MINOR__ >= 5)
 453:Drivers/CMSIS/Include/cmsis_gcc.h ****   return __builtin_bswap32(value);
 454:Drivers/CMSIS/Include/cmsis_gcc.h **** #else
 455:Drivers/CMSIS/Include/cmsis_gcc.h ****   uint32_t result;
 456:Drivers/CMSIS/Include/cmsis_gcc.h **** 
 457:Drivers/CMSIS/Include/cmsis_gcc.h ****   __ASM volatile ("rev %0, %1" : __CMSIS_GCC_OUT_REG (result) : __CMSIS_GCC_USE_REG (value) );
 458:Drivers/CMSIS/Include/cmsis_gcc.h ****   return(result);
 459:Drivers/CMSIS/Include/cmsis_gcc.h **** #endif
 460:Drivers/CMSIS/Include/cmsis_gcc.h **** }
 461:Drivers/CMSIS/Include/cmsis_gcc.h **** 
 462:Drivers/CMSIS/Include/cmsis_gcc.h **** 
 463:Drivers/CMSIS/Include/cmsis_gcc.h **** /**
 464:Drivers/CMSIS/Include/cmsis_gcc.h ****   \brief   Reverse byte order (16 bit)
 465:Drivers/CMSIS/Include/cmsis_gcc.h ****   \details Reverses the byte order in two unsigned short values.
 466:Drivers/CMSIS/Include/cmsis_gcc.h ****   \param [in]    value  Value to reverse
 467:Drivers/CMSIS/Include/cmsis_gcc.h ****   \return               Reversed value
 468:Drivers/CMSIS/Include/cmsis_gcc.h ****  */
 469:Drivers/CMSIS/Include/cmsis_gcc.h **** __attribute__((always_inline)) __STATIC_INLINE uint32_t __REV16(uint32_t value)
 470:Drivers/CMSIS/Include/cmsis_gcc.h **** {
 471:Drivers/CMSIS/Include/cmsis_gcc.h ****   uint32_t result;
 472:Drivers/CMSIS/Include/cmsis_gcc.h **** 
 473:Drivers/CMSIS/Include/cmsis_gcc.h ****   __ASM volatile ("rev16 %0, %1" : __CMSIS_GCC_OUT_REG (result) : __CMSIS_GCC_USE_REG (value) );
 474:Drivers/CMSIS/Include/cmsis_gcc.h ****   return(result);
 475:Drivers/CMSIS/Include/cmsis_gcc.h **** }
 476:Drivers/CMSIS/Include/cmsis_gcc.h **** 
 477:Drivers/CMSIS/Include/cmsis_gcc.h **** 
 478:Drivers/CMSIS/Include/cmsis_gcc.h **** /**
 479:Drivers/CMSIS/Include/cmsis_gcc.h ****   \brief   Reverse byte order in signed short value
 480:Drivers/CMSIS/Include/cmsis_gcc.h ****   \details Reverses the byte order in a signed short value with sign extension to integer.
 481:Drivers/CMSIS/Include/cmsis_gcc.h ****   \param [in]    value  Value to reverse
 482:Drivers/CMSIS/Include/cmsis_gcc.h ****   \return               Reversed value
 483:Drivers/CMSIS/Include/cmsis_gcc.h ****  */
 484:Drivers/CMSIS/Include/cmsis_gcc.h **** __attribute__((always_inline)) __STATIC_INLINE int32_t __REVSH(int32_t value)
 485:Drivers/CMSIS/Include/cmsis_gcc.h **** {
 486:Drivers/CMSIS/Include/cmsis_gcc.h **** #if (__GNUC__ > 4) || (__GNUC__ == 4 && __GNUC_MINOR__ >= 8)
 487:Drivers/CMSIS/Include/cmsis_gcc.h ****   return (short)__builtin_bswap16(value);
 488:Drivers/CMSIS/Include/cmsis_gcc.h **** #else
 489:Drivers/CMSIS/Include/cmsis_gcc.h ****   int32_t result;
 490:Drivers/CMSIS/Include/cmsis_gcc.h **** 
 491:Drivers/CMSIS/Include/cmsis_gcc.h ****   __ASM volatile ("revsh %0, %1" : __CMSIS_GCC_OUT_REG (result) : __CMSIS_GCC_USE_REG (value) );
 492:Drivers/CMSIS/Include/cmsis_gcc.h ****   return(result);
 493:Drivers/CMSIS/Include/cmsis_gcc.h **** #endif
 494:Drivers/CMSIS/Include/cmsis_gcc.h **** }
ARM GAS  C:\Users\geoma\AppData\Local\Temp\ccuxvdtO.s 			page 17


 495:Drivers/CMSIS/Include/cmsis_gcc.h **** 
 496:Drivers/CMSIS/Include/cmsis_gcc.h **** 
 497:Drivers/CMSIS/Include/cmsis_gcc.h **** /**
 498:Drivers/CMSIS/Include/cmsis_gcc.h ****   \brief   Rotate Right in unsigned value (32 bit)
 499:Drivers/CMSIS/Include/cmsis_gcc.h ****   \details Rotate Right (immediate) provides the value of the contents of a register rotated by a v
 500:Drivers/CMSIS/Include/cmsis_gcc.h ****   \param [in]    value  Value to rotate
 501:Drivers/CMSIS/Include/cmsis_gcc.h ****   \param [in]    value  Number of Bits to rotate
 502:Drivers/CMSIS/Include/cmsis_gcc.h ****   \return               Rotated value
 503:Drivers/CMSIS/Include/cmsis_gcc.h ****  */
 504:Drivers/CMSIS/Include/cmsis_gcc.h **** __attribute__((always_inline)) __STATIC_INLINE uint32_t __ROR(uint32_t op1, uint32_t op2)
 505:Drivers/CMSIS/Include/cmsis_gcc.h **** {
 506:Drivers/CMSIS/Include/cmsis_gcc.h ****   return (op1 >> op2) | (op1 << (32U - op2));
 507:Drivers/CMSIS/Include/cmsis_gcc.h **** }
 508:Drivers/CMSIS/Include/cmsis_gcc.h **** 
 509:Drivers/CMSIS/Include/cmsis_gcc.h **** 
 510:Drivers/CMSIS/Include/cmsis_gcc.h **** /**
 511:Drivers/CMSIS/Include/cmsis_gcc.h ****   \brief   Breakpoint
 512:Drivers/CMSIS/Include/cmsis_gcc.h ****   \details Causes the processor to enter Debug state.
 513:Drivers/CMSIS/Include/cmsis_gcc.h ****            Debug tools can use this to investigate system state when the instruction at a particula
 514:Drivers/CMSIS/Include/cmsis_gcc.h ****   \param [in]    value  is ignored by the processor.
 515:Drivers/CMSIS/Include/cmsis_gcc.h ****                  If required, a debugger can use it to store additional information about the break
 516:Drivers/CMSIS/Include/cmsis_gcc.h ****  */
 517:Drivers/CMSIS/Include/cmsis_gcc.h **** #define __BKPT(value)                       __ASM volatile ("bkpt "#value)
 518:Drivers/CMSIS/Include/cmsis_gcc.h **** 
 519:Drivers/CMSIS/Include/cmsis_gcc.h **** 
 520:Drivers/CMSIS/Include/cmsis_gcc.h **** /**
 521:Drivers/CMSIS/Include/cmsis_gcc.h ****   \brief   Reverse bit order of value
 522:Drivers/CMSIS/Include/cmsis_gcc.h ****   \details Reverses the bit order of the given value.
 523:Drivers/CMSIS/Include/cmsis_gcc.h ****   \param [in]    value  Value to reverse
 524:Drivers/CMSIS/Include/cmsis_gcc.h ****   \return               Reversed value
 525:Drivers/CMSIS/Include/cmsis_gcc.h ****  */
 526:Drivers/CMSIS/Include/cmsis_gcc.h **** __attribute__((always_inline)) __STATIC_INLINE uint32_t __RBIT(uint32_t value)
 527:Drivers/CMSIS/Include/cmsis_gcc.h **** {
 528:Drivers/CMSIS/Include/cmsis_gcc.h ****   uint32_t result;
 529:Drivers/CMSIS/Include/cmsis_gcc.h **** 
 530:Drivers/CMSIS/Include/cmsis_gcc.h **** #if       (__CORTEX_M >= 0x03U) || (__CORTEX_SC >= 300U)
 531:Drivers/CMSIS/Include/cmsis_gcc.h ****    __ASM volatile ("rbit %0, %1" : "=r" (result) : "r" (value) );
 128              		.loc 2 531 0 is_stmt 1
 129 0032 4FF40033 		mov	r3, #131072
 130              	@ 531 "Drivers/CMSIS/Include/cmsis_gcc.h" 1
 131 0036 93FAA3F3 		rbit r3, r3
 132              	@ 0 "" 2
 133              		.thumb
 134              	.LBE167:
 135              	.LBE166:
 295:Drivers/STM32F3xx_HAL_Driver/Src/stm32f3xx_hal_rcc.c ****     {
 296:Drivers/STM32F3xx_HAL_Driver/Src/stm32f3xx_hal_rcc.c ****       if((__HAL_RCC_GET_FLAG(RCC_FLAG_HSERDY) != RESET) && (RCC_OscInitStruct->HSEState == RCC_HSE_
 136              		.loc 1 296 0
 137 003a AC4B     		ldr	r3, .L95
 138 003c 1968     		ldr	r1, [r3]
 139              	.LVL3:
 140              	.LBB168:
 141              	.LBB169:
 142              		.loc 2 531 0
 143 003e 4FF40033 		mov	r3, #131072
 144              	@ 531 "Drivers/CMSIS/Include/cmsis_gcc.h" 1
 145 0042 93FAA3F3 		rbit r3, r3
ARM GAS  C:\Users\geoma\AppData\Local\Temp\ccuxvdtO.s 			page 18


 146              	@ 0 "" 2
 147              	.LVL4:
 148              		.thumb
 149              	.LBE169:
 150              	.LBE168:
 151              		.loc 1 296 0
 152 0046 B3FA83F3 		clz	r3, r3
 153              	.LVL5:
 154 004a 03F01F03 		and	r3, r3, #31
 155 004e 0122     		movs	r2, #1
 156 0050 02FA03F3 		lsl	r3, r2, r3
 157 0054 1942     		tst	r1, r3
 158 0056 78D0     		beq	.L5
 159              		.loc 1 296 0 is_stmt 0 discriminator 13
 160 0058 6368     		ldr	r3, [r4, #4]
 161 005a 002B     		cmp	r3, #0
 162 005c 75D1     		bne	.L5
 163 005e B6E2     		b	.L77
 164              	.LVL6:
 165              	.L7:
 297:Drivers/STM32F3xx_HAL_Driver/Src/stm32f3xx_hal_rcc.c ****       {
 298:Drivers/STM32F3xx_HAL_Driver/Src/stm32f3xx_hal_rcc.c ****         return HAL_ERROR;
 299:Drivers/STM32F3xx_HAL_Driver/Src/stm32f3xx_hal_rcc.c ****       }
 300:Drivers/STM32F3xx_HAL_Driver/Src/stm32f3xx_hal_rcc.c ****     }
 301:Drivers/STM32F3xx_HAL_Driver/Src/stm32f3xx_hal_rcc.c ****     else
 302:Drivers/STM32F3xx_HAL_Driver/Src/stm32f3xx_hal_rcc.c ****     {
 303:Drivers/STM32F3xx_HAL_Driver/Src/stm32f3xx_hal_rcc.c ****       /* Set the new HSE configuration ---------------------------------------*/
 304:Drivers/STM32F3xx_HAL_Driver/Src/stm32f3xx_hal_rcc.c ****       __HAL_RCC_HSE_CONFIG(RCC_OscInitStruct->HSEState);
 166              		.loc 1 304 0 is_stmt 1
 167 0060 6368     		ldr	r3, [r4, #4]
 168 0062 B3F5803F 		cmp	r3, #65536
 169 0066 05D1     		bne	.L11
 170              		.loc 1 304 0 is_stmt 0 discriminator 1
 171 0068 A04A     		ldr	r2, .L95
 172 006a 1368     		ldr	r3, [r2]
 173 006c 43F48033 		orr	r3, r3, #65536
 174 0070 1360     		str	r3, [r2]
 175 0072 26E0     		b	.L12
 176              	.L11:
 177              		.loc 1 304 0 discriminator 2
 178 0074 63B9     		cbnz	r3, .L13
 179              		.loc 1 304 0 discriminator 3
 180 0076 03F18043 		add	r3, r3, #1073741824
 181 007a 03F50433 		add	r3, r3, #135168
 182 007e 1A68     		ldr	r2, [r3]
 183 0080 22F48032 		bic	r2, r2, #65536
 184 0084 1A60     		str	r2, [r3]
 185 0086 1A68     		ldr	r2, [r3]
 186 0088 22F48022 		bic	r2, r2, #262144
 187 008c 1A60     		str	r2, [r3]
 188 008e 18E0     		b	.L12
 189              	.L13:
 190              		.loc 1 304 0 discriminator 4
 191 0090 B3F5A02F 		cmp	r3, #327680
 192 0094 0CD1     		bne	.L14
 193              		.loc 1 304 0 discriminator 5
 194 0096 03F18043 		add	r3, r3, #1073741824
ARM GAS  C:\Users\geoma\AppData\Local\Temp\ccuxvdtO.s 			page 19


 195 009a A3F53C33 		sub	r3, r3, #192512
 196 009e 1A68     		ldr	r2, [r3]
 197 00a0 42F48022 		orr	r2, r2, #262144
 198 00a4 1A60     		str	r2, [r3]
 199 00a6 1A68     		ldr	r2, [r3]
 200 00a8 42F48032 		orr	r2, r2, #65536
 201 00ac 1A60     		str	r2, [r3]
 202 00ae 08E0     		b	.L12
 203              	.L14:
 204              		.loc 1 304 0 discriminator 6
 205 00b0 8E4B     		ldr	r3, .L95
 206 00b2 1A68     		ldr	r2, [r3]
 207 00b4 22F48032 		bic	r2, r2, #65536
 208 00b8 1A60     		str	r2, [r3]
 209 00ba 1A68     		ldr	r2, [r3]
 210 00bc 22F48022 		bic	r2, r2, #262144
 211 00c0 1A60     		str	r2, [r3]
 212              	.L12:
 305:Drivers/STM32F3xx_HAL_Driver/Src/stm32f3xx_hal_rcc.c ****       
 306:Drivers/STM32F3xx_HAL_Driver/Src/stm32f3xx_hal_rcc.c **** #if defined(RCC_CFGR_PLLSRC_HSI_DIV2)
 307:Drivers/STM32F3xx_HAL_Driver/Src/stm32f3xx_hal_rcc.c ****       /* Configure the HSE predivision factor --------------------------------*/
 308:Drivers/STM32F3xx_HAL_Driver/Src/stm32f3xx_hal_rcc.c ****       __HAL_RCC_HSE_PREDIV_CONFIG(RCC_OscInitStruct->HSEPredivValue);
 213              		.loc 1 308 0 is_stmt 1
 214 00c2 8A49     		ldr	r1, .L95
 215 00c4 CB6A     		ldr	r3, [r1, #44]
 216 00c6 23F00F02 		bic	r2, r3, #15
 217 00ca A368     		ldr	r3, [r4, #8]
 218 00cc 1343     		orrs	r3, r3, r2
 219 00ce CB62     		str	r3, [r1, #44]
 309:Drivers/STM32F3xx_HAL_Driver/Src/stm32f3xx_hal_rcc.c **** #endif /* RCC_CFGR_PLLSRC_HSI_DIV2 */
 310:Drivers/STM32F3xx_HAL_Driver/Src/stm32f3xx_hal_rcc.c **** 
 311:Drivers/STM32F3xx_HAL_Driver/Src/stm32f3xx_hal_rcc.c ****        /* Check the HSE State */
 312:Drivers/STM32F3xx_HAL_Driver/Src/stm32f3xx_hal_rcc.c ****       if(RCC_OscInitStruct->HSEState != RCC_HSE_OFF)
 220              		.loc 1 312 0
 221 00d0 6368     		ldr	r3, [r4, #4]
 222 00d2 EBB1     		cbz	r3, .L15
 313:Drivers/STM32F3xx_HAL_Driver/Src/stm32f3xx_hal_rcc.c ****       {
 314:Drivers/STM32F3xx_HAL_Driver/Src/stm32f3xx_hal_rcc.c ****         /* Get Start Tick */
 315:Drivers/STM32F3xx_HAL_Driver/Src/stm32f3xx_hal_rcc.c ****         tickstart = HAL_GetTick();
 223              		.loc 1 315 0
 224 00d4 FFF7FEFF 		bl	HAL_GetTick
 225              	.LVL7:
 226 00d8 0546     		mov	r5, r0
 227              	.LVL8:
 316:Drivers/STM32F3xx_HAL_Driver/Src/stm32f3xx_hal_rcc.c ****         
 317:Drivers/STM32F3xx_HAL_Driver/Src/stm32f3xx_hal_rcc.c ****         /* Wait till HSE is ready */
 318:Drivers/STM32F3xx_HAL_Driver/Src/stm32f3xx_hal_rcc.c ****         while(__HAL_RCC_GET_FLAG(RCC_FLAG_HSERDY) == RESET)
 228              		.loc 1 318 0
 229 00da 05E0     		b	.L16
 230              	.LVL9:
 231              	.L19:
 319:Drivers/STM32F3xx_HAL_Driver/Src/stm32f3xx_hal_rcc.c ****         {
 320:Drivers/STM32F3xx_HAL_Driver/Src/stm32f3xx_hal_rcc.c ****           if((HAL_GetTick() - tickstart ) > HSE_TIMEOUT_VALUE)
 232              		.loc 1 320 0
 233 00dc FFF7FEFF 		bl	HAL_GetTick
 234              	.LVL10:
 235 00e0 401B     		subs	r0, r0, r5
ARM GAS  C:\Users\geoma\AppData\Local\Temp\ccuxvdtO.s 			page 20


 236 00e2 6428     		cmp	r0, #100
 237 00e4 00F27582 		bhi	.L78
 238              	.LVL11:
 239              	.L16:
 240              	.LBB170:
 241              	.LBB171:
 242              		.loc 2 531 0
 243 00e8 4FF40033 		mov	r3, #131072
 244              	@ 531 "Drivers/CMSIS/Include/cmsis_gcc.h" 1
 245 00ec 93FAA3F3 		rbit r3, r3
 246              	@ 0 "" 2
 247              		.thumb
 248              	.LBE171:
 249              	.LBE170:
 318:Drivers/STM32F3xx_HAL_Driver/Src/stm32f3xx_hal_rcc.c ****         {
 250              		.loc 1 318 0
 251 00f0 7E4B     		ldr	r3, .L95
 252 00f2 1968     		ldr	r1, [r3]
 253              	.LVL12:
 254              	.LBB172:
 255              	.LBB173:
 256              		.loc 2 531 0
 257 00f4 4FF40033 		mov	r3, #131072
 258              	@ 531 "Drivers/CMSIS/Include/cmsis_gcc.h" 1
 259 00f8 93FAA3F3 		rbit r3, r3
 260              	@ 0 "" 2
 261              	.LVL13:
 262              		.thumb
 263              	.LBE173:
 264              	.LBE172:
 318:Drivers/STM32F3xx_HAL_Driver/Src/stm32f3xx_hal_rcc.c ****         {
 265              		.loc 1 318 0
 266 00fc B3FA83F3 		clz	r3, r3
 267              	.LVL14:
 268 0100 03F01F03 		and	r3, r3, #31
 269 0104 0122     		movs	r2, #1
 270 0106 02FA03F3 		lsl	r3, r2, r3
 271 010a 1942     		tst	r1, r3
 272 010c E6D0     		beq	.L19
 273 010e 1CE0     		b	.L5
 274              	.LVL15:
 275              	.L15:
 321:Drivers/STM32F3xx_HAL_Driver/Src/stm32f3xx_hal_rcc.c ****           {
 322:Drivers/STM32F3xx_HAL_Driver/Src/stm32f3xx_hal_rcc.c ****             return HAL_TIMEOUT;
 323:Drivers/STM32F3xx_HAL_Driver/Src/stm32f3xx_hal_rcc.c ****           }
 324:Drivers/STM32F3xx_HAL_Driver/Src/stm32f3xx_hal_rcc.c ****         }
 325:Drivers/STM32F3xx_HAL_Driver/Src/stm32f3xx_hal_rcc.c ****       }
 326:Drivers/STM32F3xx_HAL_Driver/Src/stm32f3xx_hal_rcc.c ****       else
 327:Drivers/STM32F3xx_HAL_Driver/Src/stm32f3xx_hal_rcc.c ****       {
 328:Drivers/STM32F3xx_HAL_Driver/Src/stm32f3xx_hal_rcc.c ****         /* Get Start Tick */
 329:Drivers/STM32F3xx_HAL_Driver/Src/stm32f3xx_hal_rcc.c ****         tickstart = HAL_GetTick();
 276              		.loc 1 329 0
 277 0110 FFF7FEFF 		bl	HAL_GetTick
 278              	.LVL16:
 279 0114 0546     		mov	r5, r0
 280              	.LVL17:
 330:Drivers/STM32F3xx_HAL_Driver/Src/stm32f3xx_hal_rcc.c ****         
ARM GAS  C:\Users\geoma\AppData\Local\Temp\ccuxvdtO.s 			page 21


 331:Drivers/STM32F3xx_HAL_Driver/Src/stm32f3xx_hal_rcc.c ****         /* Wait till HSE is disabled */
 332:Drivers/STM32F3xx_HAL_Driver/Src/stm32f3xx_hal_rcc.c ****         while(__HAL_RCC_GET_FLAG(RCC_FLAG_HSERDY) != RESET)
 281              		.loc 1 332 0
 282 0116 05E0     		b	.L20
 283              	.LVL18:
 284              	.L23:
 333:Drivers/STM32F3xx_HAL_Driver/Src/stm32f3xx_hal_rcc.c ****         {
 334:Drivers/STM32F3xx_HAL_Driver/Src/stm32f3xx_hal_rcc.c ****            if((HAL_GetTick() - tickstart ) > HSE_TIMEOUT_VALUE)
 285              		.loc 1 334 0
 286 0118 FFF7FEFF 		bl	HAL_GetTick
 287              	.LVL19:
 288 011c 401B     		subs	r0, r0, r5
 289 011e 6428     		cmp	r0, #100
 290 0120 00F25982 		bhi	.L79
 291              	.LVL20:
 292              	.L20:
 293              	.LBB174:
 294              	.LBB175:
 295              		.loc 2 531 0
 296 0124 4FF40033 		mov	r3, #131072
 297              	@ 531 "Drivers/CMSIS/Include/cmsis_gcc.h" 1
 298 0128 93FAA3F3 		rbit r3, r3
 299              	@ 0 "" 2
 300              		.thumb
 301              	.LBE175:
 302              	.LBE174:
 332:Drivers/STM32F3xx_HAL_Driver/Src/stm32f3xx_hal_rcc.c ****         {
 303              		.loc 1 332 0
 304 012c 6F4B     		ldr	r3, .L95
 305 012e 1968     		ldr	r1, [r3]
 306              	.LVL21:
 307              	.LBB176:
 308              	.LBB177:
 309              		.loc 2 531 0
 310 0130 4FF40033 		mov	r3, #131072
 311              	@ 531 "Drivers/CMSIS/Include/cmsis_gcc.h" 1
 312 0134 93FAA3F3 		rbit r3, r3
 313              	@ 0 "" 2
 314              	.LVL22:
 315              		.thumb
 316              	.LBE177:
 317              	.LBE176:
 332:Drivers/STM32F3xx_HAL_Driver/Src/stm32f3xx_hal_rcc.c ****         {
 318              		.loc 1 332 0
 319 0138 B3FA83F3 		clz	r3, r3
 320              	.LVL23:
 321 013c 03F01F03 		and	r3, r3, #31
 322 0140 0122     		movs	r2, #1
 323 0142 02FA03F3 		lsl	r3, r2, r3
 324 0146 1942     		tst	r1, r3
 325 0148 E6D1     		bne	.L23
 326              	.LVL24:
 327              	.L5:
 335:Drivers/STM32F3xx_HAL_Driver/Src/stm32f3xx_hal_rcc.c ****           {
 336:Drivers/STM32F3xx_HAL_Driver/Src/stm32f3xx_hal_rcc.c ****             return HAL_TIMEOUT;
 337:Drivers/STM32F3xx_HAL_Driver/Src/stm32f3xx_hal_rcc.c ****           }
 338:Drivers/STM32F3xx_HAL_Driver/Src/stm32f3xx_hal_rcc.c ****         }
ARM GAS  C:\Users\geoma\AppData\Local\Temp\ccuxvdtO.s 			page 22


 339:Drivers/STM32F3xx_HAL_Driver/Src/stm32f3xx_hal_rcc.c ****       }
 340:Drivers/STM32F3xx_HAL_Driver/Src/stm32f3xx_hal_rcc.c ****     }
 341:Drivers/STM32F3xx_HAL_Driver/Src/stm32f3xx_hal_rcc.c ****   }
 342:Drivers/STM32F3xx_HAL_Driver/Src/stm32f3xx_hal_rcc.c ****   /*----------------------------- HSI Configuration --------------------------*/ 
 343:Drivers/STM32F3xx_HAL_Driver/Src/stm32f3xx_hal_rcc.c ****   if(((RCC_OscInitStruct->OscillatorType) & RCC_OSCILLATORTYPE_HSI) == RCC_OSCILLATORTYPE_HSI)
 328              		.loc 1 343 0
 329 014a 2368     		ldr	r3, [r4]
 330 014c 13F0020F 		tst	r3, #2
 331 0150 00F09080 		beq	.L24
 344:Drivers/STM32F3xx_HAL_Driver/Src/stm32f3xx_hal_rcc.c ****   {
 345:Drivers/STM32F3xx_HAL_Driver/Src/stm32f3xx_hal_rcc.c ****     /* Check the parameters */
 346:Drivers/STM32F3xx_HAL_Driver/Src/stm32f3xx_hal_rcc.c ****     assert_param(IS_RCC_HSI(RCC_OscInitStruct->HSIState));
 347:Drivers/STM32F3xx_HAL_Driver/Src/stm32f3xx_hal_rcc.c ****     assert_param(IS_RCC_CALIBRATION_VALUE(RCC_OscInitStruct->HSICalibrationValue));
 348:Drivers/STM32F3xx_HAL_Driver/Src/stm32f3xx_hal_rcc.c ****     
 349:Drivers/STM32F3xx_HAL_Driver/Src/stm32f3xx_hal_rcc.c ****     /* Check if HSI is used as system clock or as PLL source when PLL is selected as system clock *
 350:Drivers/STM32F3xx_HAL_Driver/Src/stm32f3xx_hal_rcc.c ****     if((__HAL_RCC_GET_SYSCLK_SOURCE() == RCC_SYSCLKSOURCE_STATUS_HSI) 
 332              		.loc 1 350 0
 333 0154 654B     		ldr	r3, .L95
 334 0156 5B68     		ldr	r3, [r3, #4]
 335 0158 13F00C0F 		tst	r3, #12
 336 015c 0AD0     		beq	.L25
 351:Drivers/STM32F3xx_HAL_Driver/Src/stm32f3xx_hal_rcc.c ****        || ((__HAL_RCC_GET_SYSCLK_SOURCE() == RCC_SYSCLKSOURCE_STATUS_PLLCLK) && (__HAL_RCC_GET_PLL_
 337              		.loc 1 351 0
 338 015e 634B     		ldr	r3, .L95
 339 0160 5B68     		ldr	r3, [r3, #4]
 340 0162 03F00C03 		and	r3, r3, #12
 341 0166 082B     		cmp	r3, #8
 342 0168 27D1     		bne	.L26
 343              		.loc 1 351 0 is_stmt 0 discriminator 1
 344 016a 604B     		ldr	r3, .L95
 345 016c 5B68     		ldr	r3, [r3, #4]
 346 016e 13F4803F 		tst	r3, #65536
 347 0172 22D1     		bne	.L26
 348              	.L25:
 349              	.LVL25:
 350              	.LBB178:
 351              	.LBB179:
 352              		.loc 2 531 0 is_stmt 1
 353 0174 0223     		movs	r3, #2
 354              	@ 531 "Drivers/CMSIS/Include/cmsis_gcc.h" 1
 355 0176 93FAA3F3 		rbit r3, r3
 356              	@ 0 "" 2
 357              		.thumb
 358              	.LBE179:
 359              	.LBE178:
 352:Drivers/STM32F3xx_HAL_Driver/Src/stm32f3xx_hal_rcc.c ****     {
 353:Drivers/STM32F3xx_HAL_Driver/Src/stm32f3xx_hal_rcc.c ****       /* When HSI is used as system clock it will not disabled */
 354:Drivers/STM32F3xx_HAL_Driver/Src/stm32f3xx_hal_rcc.c ****       if((__HAL_RCC_GET_FLAG(RCC_FLAG_HSIRDY) != RESET) && (RCC_OscInitStruct->HSIState != RCC_HSI_
 360              		.loc 1 354 0
 361 017a 5C4B     		ldr	r3, .L95
 362 017c 1968     		ldr	r1, [r3]
 363              	.LVL26:
 364              	.LBB180:
 365              	.LBB181:
 366              		.loc 2 531 0
 367 017e 0223     		movs	r3, #2
 368              	@ 531 "Drivers/CMSIS/Include/cmsis_gcc.h" 1
ARM GAS  C:\Users\geoma\AppData\Local\Temp\ccuxvdtO.s 			page 23


 369 0180 93FAA3F3 		rbit r3, r3
 370              	@ 0 "" 2
 371              	.LVL27:
 372              		.thumb
 373              	.LBE181:
 374              	.LBE180:
 375              		.loc 1 354 0
 376 0184 B3FA83F3 		clz	r3, r3
 377              	.LVL28:
 378 0188 03F01F03 		and	r3, r3, #31
 379 018c 0122     		movs	r2, #1
 380 018e 02FA03F3 		lsl	r3, r2, r3
 381 0192 1942     		tst	r1, r3
 382 0194 03D0     		beq	.L29
 383              		.loc 1 354 0 is_stmt 0 discriminator 13
 384 0196 2369     		ldr	r3, [r4, #16]
 385 0198 9342     		cmp	r3, r2
 386 019a 40F01E82 		bne	.L80
 387              	.L29:
 355:Drivers/STM32F3xx_HAL_Driver/Src/stm32f3xx_hal_rcc.c ****       {
 356:Drivers/STM32F3xx_HAL_Driver/Src/stm32f3xx_hal_rcc.c ****         return HAL_ERROR;
 357:Drivers/STM32F3xx_HAL_Driver/Src/stm32f3xx_hal_rcc.c ****       }
 358:Drivers/STM32F3xx_HAL_Driver/Src/stm32f3xx_hal_rcc.c ****       /* Otherwise, just the calibration is allowed */
 359:Drivers/STM32F3xx_HAL_Driver/Src/stm32f3xx_hal_rcc.c ****       else
 360:Drivers/STM32F3xx_HAL_Driver/Src/stm32f3xx_hal_rcc.c ****       {
 361:Drivers/STM32F3xx_HAL_Driver/Src/stm32f3xx_hal_rcc.c ****         /* Adjusts the Internal High Speed oscillator (HSI) calibration value.*/
 362:Drivers/STM32F3xx_HAL_Driver/Src/stm32f3xx_hal_rcc.c ****         __HAL_RCC_HSI_CALIBRATIONVALUE_ADJUST(RCC_OscInitStruct->HSICalibrationValue);
 388              		.loc 1 362 0 is_stmt 1
 389 019e 5348     		ldr	r0, .L95
 390 01a0 0368     		ldr	r3, [r0]
 391 01a2 23F0F801 		bic	r1, r3, #248
 392 01a6 6369     		ldr	r3, [r4, #20]
 393              	.LVL29:
 394              	.LBB182:
 395              	.LBB183:
 396              		.loc 2 531 0
 397 01a8 F822     		movs	r2, #248
 398              	@ 531 "Drivers/CMSIS/Include/cmsis_gcc.h" 1
 399 01aa 92FAA2F2 		rbit r2, r2
 400              	@ 0 "" 2
 401              	.LVL30:
 402              		.thumb
 403              	.LBE183:
 404              	.LBE182:
 405              		.loc 1 362 0
 406 01ae B2FA82F2 		clz	r2, r2
 407              	.LVL31:
 408 01b2 9340     		lsls	r3, r3, r2
 409 01b4 0B43     		orrs	r3, r3, r1
 410 01b6 0360     		str	r3, [r0]
 354:Drivers/STM32F3xx_HAL_Driver/Src/stm32f3xx_hal_rcc.c ****       {
 411              		.loc 1 354 0
 412 01b8 5CE0     		b	.L24
 413              	.LVL32:
 414              	.L26:
 363:Drivers/STM32F3xx_HAL_Driver/Src/stm32f3xx_hal_rcc.c ****       }
 364:Drivers/STM32F3xx_HAL_Driver/Src/stm32f3xx_hal_rcc.c ****     }
ARM GAS  C:\Users\geoma\AppData\Local\Temp\ccuxvdtO.s 			page 24


 365:Drivers/STM32F3xx_HAL_Driver/Src/stm32f3xx_hal_rcc.c ****     else
 366:Drivers/STM32F3xx_HAL_Driver/Src/stm32f3xx_hal_rcc.c ****     {
 367:Drivers/STM32F3xx_HAL_Driver/Src/stm32f3xx_hal_rcc.c ****       /* Check the HSI State */
 368:Drivers/STM32F3xx_HAL_Driver/Src/stm32f3xx_hal_rcc.c ****       if(RCC_OscInitStruct->HSIState != RCC_HSI_OFF)
 415              		.loc 1 368 0
 416 01ba 2369     		ldr	r3, [r4, #16]
 417 01bc 9BB3     		cbz	r3, .L30
 418              	.LVL33:
 419              	.LBB184:
 420              	.LBB185:
 421              		.loc 2 531 0
 422 01be 0122     		movs	r2, #1
 423              	@ 531 "Drivers/CMSIS/Include/cmsis_gcc.h" 1
 424 01c0 92FAA2F3 		rbit r3, r2
 425              	@ 0 "" 2
 426              	.LVL34:
 427              		.thumb
 428              	.LBE185:
 429              	.LBE184:
 369:Drivers/STM32F3xx_HAL_Driver/Src/stm32f3xx_hal_rcc.c ****       {
 370:Drivers/STM32F3xx_HAL_Driver/Src/stm32f3xx_hal_rcc.c ****        /* Enable the Internal High Speed oscillator (HSI). */
 371:Drivers/STM32F3xx_HAL_Driver/Src/stm32f3xx_hal_rcc.c ****         __HAL_RCC_HSI_ENABLE();
 430              		.loc 1 371 0
 431 01c4 B3FA83F3 		clz	r3, r3
 432              	.LVL35:
 433 01c8 03F18453 		add	r3, r3, #276824064
 434 01cc 03F58413 		add	r3, r3, #1081344
 435 01d0 9B00     		lsls	r3, r3, #2
 436 01d2 1A60     		str	r2, [r3]
 372:Drivers/STM32F3xx_HAL_Driver/Src/stm32f3xx_hal_rcc.c ****         
 373:Drivers/STM32F3xx_HAL_Driver/Src/stm32f3xx_hal_rcc.c ****         /* Get Start Tick */
 374:Drivers/STM32F3xx_HAL_Driver/Src/stm32f3xx_hal_rcc.c ****         tickstart = HAL_GetTick();
 437              		.loc 1 374 0
 438 01d4 FFF7FEFF 		bl	HAL_GetTick
 439              	.LVL36:
 440 01d8 0546     		mov	r5, r0
 441              	.LVL37:
 375:Drivers/STM32F3xx_HAL_Driver/Src/stm32f3xx_hal_rcc.c ****         
 376:Drivers/STM32F3xx_HAL_Driver/Src/stm32f3xx_hal_rcc.c ****         /* Wait till HSI is ready */
 377:Drivers/STM32F3xx_HAL_Driver/Src/stm32f3xx_hal_rcc.c ****         while(__HAL_RCC_GET_FLAG(RCC_FLAG_HSIRDY) == RESET)
 442              		.loc 1 377 0
 443 01da 05E0     		b	.L31
 444              	.LVL38:
 445              	.L34:
 378:Drivers/STM32F3xx_HAL_Driver/Src/stm32f3xx_hal_rcc.c ****         {
 379:Drivers/STM32F3xx_HAL_Driver/Src/stm32f3xx_hal_rcc.c ****           if((HAL_GetTick() - tickstart ) > HSI_TIMEOUT_VALUE)
 446              		.loc 1 379 0
 447 01dc FFF7FEFF 		bl	HAL_GetTick
 448              	.LVL39:
 449 01e0 401B     		subs	r0, r0, r5
 450 01e2 0228     		cmp	r0, #2
 451 01e4 00F2FB81 		bhi	.L81
 452              	.LVL40:
 453              	.L31:
 454              	.LBB186:
 455              	.LBB187:
 456              		.loc 2 531 0
ARM GAS  C:\Users\geoma\AppData\Local\Temp\ccuxvdtO.s 			page 25


 457 01e8 0223     		movs	r3, #2
 458              	@ 531 "Drivers/CMSIS/Include/cmsis_gcc.h" 1
 459 01ea 93FAA3F3 		rbit r3, r3
 460              	@ 0 "" 2
 461              		.thumb
 462              	.LBE187:
 463              	.LBE186:
 377:Drivers/STM32F3xx_HAL_Driver/Src/stm32f3xx_hal_rcc.c ****         {
 464              		.loc 1 377 0
 465 01ee 3F4B     		ldr	r3, .L95
 466 01f0 1968     		ldr	r1, [r3]
 467              	.LVL41:
 468              	.LBB188:
 469              	.LBB189:
 470              		.loc 2 531 0
 471 01f2 0223     		movs	r3, #2
 472              	@ 531 "Drivers/CMSIS/Include/cmsis_gcc.h" 1
 473 01f4 93FAA3F3 		rbit r3, r3
 474              	@ 0 "" 2
 475              	.LVL42:
 476              		.thumb
 477              	.LBE189:
 478              	.LBE188:
 377:Drivers/STM32F3xx_HAL_Driver/Src/stm32f3xx_hal_rcc.c ****         {
 479              		.loc 1 377 0
 480 01f8 B3FA83F3 		clz	r3, r3
 481              	.LVL43:
 482 01fc 03F01F03 		and	r3, r3, #31
 483 0200 0122     		movs	r2, #1
 484 0202 02FA03F3 		lsl	r3, r2, r3
 485 0206 1942     		tst	r1, r3
 486 0208 E8D0     		beq	.L34
 380:Drivers/STM32F3xx_HAL_Driver/Src/stm32f3xx_hal_rcc.c ****           {
 381:Drivers/STM32F3xx_HAL_Driver/Src/stm32f3xx_hal_rcc.c ****             return HAL_TIMEOUT;
 382:Drivers/STM32F3xx_HAL_Driver/Src/stm32f3xx_hal_rcc.c ****           }
 383:Drivers/STM32F3xx_HAL_Driver/Src/stm32f3xx_hal_rcc.c ****         }
 384:Drivers/STM32F3xx_HAL_Driver/Src/stm32f3xx_hal_rcc.c ****                 
 385:Drivers/STM32F3xx_HAL_Driver/Src/stm32f3xx_hal_rcc.c ****         /* Adjusts the Internal High Speed oscillator (HSI) calibration value.*/
 386:Drivers/STM32F3xx_HAL_Driver/Src/stm32f3xx_hal_rcc.c ****         __HAL_RCC_HSI_CALIBRATIONVALUE_ADJUST(RCC_OscInitStruct->HSICalibrationValue);
 487              		.loc 1 386 0
 488 020a 3848     		ldr	r0, .L95
 489 020c 0368     		ldr	r3, [r0]
 490 020e 23F0F801 		bic	r1, r3, #248
 491 0212 6369     		ldr	r3, [r4, #20]
 492              	.LVL44:
 493              	.LBB190:
 494              	.LBB191:
 495              		.loc 2 531 0
 496 0214 F822     		movs	r2, #248
 497              	@ 531 "Drivers/CMSIS/Include/cmsis_gcc.h" 1
 498 0216 92FAA2F2 		rbit r2, r2
 499              	@ 0 "" 2
 500              	.LVL45:
 501              		.thumb
 502              	.LBE191:
 503              	.LBE190:
 504              		.loc 1 386 0
ARM GAS  C:\Users\geoma\AppData\Local\Temp\ccuxvdtO.s 			page 26


 505 021a B2FA82F2 		clz	r2, r2
 506              	.LVL46:
 507 021e 9340     		lsls	r3, r3, r2
 508 0220 0B43     		orrs	r3, r3, r1
 509 0222 0360     		str	r3, [r0]
 510 0224 26E0     		b	.L24
 511              	.LVL47:
 512              	.L30:
 513              	.LBB192:
 514              	.LBB193:
 515              		.loc 2 531 0
 516 0226 0123     		movs	r3, #1
 517              	@ 531 "Drivers/CMSIS/Include/cmsis_gcc.h" 1
 518 0228 93FAA3F3 		rbit r3, r3
 519              	@ 0 "" 2
 520              	.LVL48:
 521              		.thumb
 522              	.LBE193:
 523              	.LBE192:
 387:Drivers/STM32F3xx_HAL_Driver/Src/stm32f3xx_hal_rcc.c ****       }
 388:Drivers/STM32F3xx_HAL_Driver/Src/stm32f3xx_hal_rcc.c ****       else
 389:Drivers/STM32F3xx_HAL_Driver/Src/stm32f3xx_hal_rcc.c ****       {
 390:Drivers/STM32F3xx_HAL_Driver/Src/stm32f3xx_hal_rcc.c ****         /* Disable the Internal High Speed oscillator (HSI). */
 391:Drivers/STM32F3xx_HAL_Driver/Src/stm32f3xx_hal_rcc.c ****         __HAL_RCC_HSI_DISABLE();
 524              		.loc 1 391 0
 525 022c B3FA83F3 		clz	r3, r3
 526              	.LVL49:
 527 0230 03F18453 		add	r3, r3, #276824064
 528 0234 03F58413 		add	r3, r3, #1081344
 529 0238 9B00     		lsls	r3, r3, #2
 530 023a 0022     		movs	r2, #0
 531 023c 1A60     		str	r2, [r3]
 392:Drivers/STM32F3xx_HAL_Driver/Src/stm32f3xx_hal_rcc.c ****         
 393:Drivers/STM32F3xx_HAL_Driver/Src/stm32f3xx_hal_rcc.c ****         /* Get Start Tick */
 394:Drivers/STM32F3xx_HAL_Driver/Src/stm32f3xx_hal_rcc.c ****         tickstart = HAL_GetTick();
 532              		.loc 1 394 0
 533 023e FFF7FEFF 		bl	HAL_GetTick
 534              	.LVL50:
 535 0242 0546     		mov	r5, r0
 536              	.LVL51:
 395:Drivers/STM32F3xx_HAL_Driver/Src/stm32f3xx_hal_rcc.c ****         
 396:Drivers/STM32F3xx_HAL_Driver/Src/stm32f3xx_hal_rcc.c ****         /* Wait till HSI is disabled */
 397:Drivers/STM32F3xx_HAL_Driver/Src/stm32f3xx_hal_rcc.c ****         while(__HAL_RCC_GET_FLAG(RCC_FLAG_HSIRDY) != RESET)
 537              		.loc 1 397 0
 538 0244 05E0     		b	.L35
 539              	.LVL52:
 540              	.L38:
 398:Drivers/STM32F3xx_HAL_Driver/Src/stm32f3xx_hal_rcc.c ****         {
 399:Drivers/STM32F3xx_HAL_Driver/Src/stm32f3xx_hal_rcc.c ****           if((HAL_GetTick() - tickstart ) > HSI_TIMEOUT_VALUE)
 541              		.loc 1 399 0
 542 0246 FFF7FEFF 		bl	HAL_GetTick
 543              	.LVL53:
 544 024a 401B     		subs	r0, r0, r5
 545 024c 0228     		cmp	r0, #2
 546 024e 00F2C881 		bhi	.L82
 547              	.LVL54:
 548              	.L35:
ARM GAS  C:\Users\geoma\AppData\Local\Temp\ccuxvdtO.s 			page 27


 549              	.LBB194:
 550              	.LBB195:
 551              		.loc 2 531 0
 552 0252 0223     		movs	r3, #2
 553              	@ 531 "Drivers/CMSIS/Include/cmsis_gcc.h" 1
 554 0254 93FAA3F3 		rbit r3, r3
 555              	@ 0 "" 2
 556              		.thumb
 557              	.LBE195:
 558              	.LBE194:
 397:Drivers/STM32F3xx_HAL_Driver/Src/stm32f3xx_hal_rcc.c ****         {
 559              		.loc 1 397 0
 560 0258 244B     		ldr	r3, .L95
 561 025a 1968     		ldr	r1, [r3]
 562              	.LVL55:
 563              	.LBB196:
 564              	.LBB197:
 565              		.loc 2 531 0
 566 025c 0223     		movs	r3, #2
 567              	@ 531 "Drivers/CMSIS/Include/cmsis_gcc.h" 1
 568 025e 93FAA3F3 		rbit r3, r3
 569              	@ 0 "" 2
 570              	.LVL56:
 571              		.thumb
 572              	.LBE197:
 573              	.LBE196:
 397:Drivers/STM32F3xx_HAL_Driver/Src/stm32f3xx_hal_rcc.c ****         {
 574              		.loc 1 397 0
 575 0262 B3FA83F3 		clz	r3, r3
 576              	.LVL57:
 577 0266 03F01F03 		and	r3, r3, #31
 578 026a 0122     		movs	r2, #1
 579 026c 02FA03F3 		lsl	r3, r2, r3
 580 0270 1942     		tst	r1, r3
 581 0272 E8D1     		bne	.L38
 582              	.LVL58:
 583              	.L24:
 400:Drivers/STM32F3xx_HAL_Driver/Src/stm32f3xx_hal_rcc.c ****           {
 401:Drivers/STM32F3xx_HAL_Driver/Src/stm32f3xx_hal_rcc.c ****             return HAL_TIMEOUT;
 402:Drivers/STM32F3xx_HAL_Driver/Src/stm32f3xx_hal_rcc.c ****           }
 403:Drivers/STM32F3xx_HAL_Driver/Src/stm32f3xx_hal_rcc.c ****         }
 404:Drivers/STM32F3xx_HAL_Driver/Src/stm32f3xx_hal_rcc.c ****       }
 405:Drivers/STM32F3xx_HAL_Driver/Src/stm32f3xx_hal_rcc.c ****     }
 406:Drivers/STM32F3xx_HAL_Driver/Src/stm32f3xx_hal_rcc.c ****   }
 407:Drivers/STM32F3xx_HAL_Driver/Src/stm32f3xx_hal_rcc.c ****   /*------------------------------ LSI Configuration -------------------------*/ 
 408:Drivers/STM32F3xx_HAL_Driver/Src/stm32f3xx_hal_rcc.c ****   if(((RCC_OscInitStruct->OscillatorType) & RCC_OSCILLATORTYPE_LSI) == RCC_OSCILLATORTYPE_LSI)
 584              		.loc 1 408 0
 585 0274 2368     		ldr	r3, [r4]
 586 0276 13F0080F 		tst	r3, #8
 587 027a 55D0     		beq	.L39
 409:Drivers/STM32F3xx_HAL_Driver/Src/stm32f3xx_hal_rcc.c ****   {
 410:Drivers/STM32F3xx_HAL_Driver/Src/stm32f3xx_hal_rcc.c ****     /* Check the parameters */
 411:Drivers/STM32F3xx_HAL_Driver/Src/stm32f3xx_hal_rcc.c ****     assert_param(IS_RCC_LSI(RCC_OscInitStruct->LSIState));
 412:Drivers/STM32F3xx_HAL_Driver/Src/stm32f3xx_hal_rcc.c ****     
 413:Drivers/STM32F3xx_HAL_Driver/Src/stm32f3xx_hal_rcc.c ****     /* Check the LSI State */
 414:Drivers/STM32F3xx_HAL_Driver/Src/stm32f3xx_hal_rcc.c ****     if(RCC_OscInitStruct->LSIState != RCC_LSI_OFF)
 588              		.loc 1 414 0
ARM GAS  C:\Users\geoma\AppData\Local\Temp\ccuxvdtO.s 			page 28


 589 027c A369     		ldr	r3, [r4, #24]
 590 027e 3BB3     		cbz	r3, .L40
 591              	.LVL59:
 592              	.LBB198:
 593              	.LBB199:
 594              		.loc 2 531 0
 595 0280 0121     		movs	r1, #1
 596              	@ 531 "Drivers/CMSIS/Include/cmsis_gcc.h" 1
 597 0282 91FAA1F2 		rbit r2, r1
 598              	@ 0 "" 2
 599              	.LVL60:
 600              		.thumb
 601              	.LBE199:
 602              	.LBE198:
 415:Drivers/STM32F3xx_HAL_Driver/Src/stm32f3xx_hal_rcc.c ****     {
 416:Drivers/STM32F3xx_HAL_Driver/Src/stm32f3xx_hal_rcc.c ****       /* Enable the Internal Low Speed oscillator (LSI). */
 417:Drivers/STM32F3xx_HAL_Driver/Src/stm32f3xx_hal_rcc.c ****       __HAL_RCC_LSI_ENABLE();
 603              		.loc 1 417 0
 604 0286 B2FA82F2 		clz	r2, r2
 605              	.LVL61:
 606 028a 194B     		ldr	r3, .L95+4
 607 028c 1344     		add	r3, r3, r2
 608 028e 9B00     		lsls	r3, r3, #2
 609 0290 1960     		str	r1, [r3]
 418:Drivers/STM32F3xx_HAL_Driver/Src/stm32f3xx_hal_rcc.c ****       
 419:Drivers/STM32F3xx_HAL_Driver/Src/stm32f3xx_hal_rcc.c ****       /* Get Start Tick */
 420:Drivers/STM32F3xx_HAL_Driver/Src/stm32f3xx_hal_rcc.c ****       tickstart = HAL_GetTick();
 610              		.loc 1 420 0
 611 0292 FFF7FEFF 		bl	HAL_GetTick
 612              	.LVL62:
 613 0296 0546     		mov	r5, r0
 614              	.LVL63:
 421:Drivers/STM32F3xx_HAL_Driver/Src/stm32f3xx_hal_rcc.c ****       
 422:Drivers/STM32F3xx_HAL_Driver/Src/stm32f3xx_hal_rcc.c ****       /* Wait till LSI is ready */  
 423:Drivers/STM32F3xx_HAL_Driver/Src/stm32f3xx_hal_rcc.c ****       while(__HAL_RCC_GET_FLAG(RCC_FLAG_LSIRDY) == RESET)
 615              		.loc 1 423 0
 616 0298 05E0     		b	.L41
 617              	.LVL64:
 618              	.L42:
 424:Drivers/STM32F3xx_HAL_Driver/Src/stm32f3xx_hal_rcc.c ****       {
 425:Drivers/STM32F3xx_HAL_Driver/Src/stm32f3xx_hal_rcc.c ****         if((HAL_GetTick() - tickstart ) > LSI_TIMEOUT_VALUE)
 619              		.loc 1 425 0
 620 029a FFF7FEFF 		bl	HAL_GetTick
 621              	.LVL65:
 622 029e 401B     		subs	r0, r0, r5
 623 02a0 0228     		cmp	r0, #2
 624 02a2 00F2A081 		bhi	.L83
 625              	.LVL66:
 626              	.L41:
 627              	.LBB200:
 628              	.LBB201:
 629              		.loc 2 531 0
 630 02a6 0223     		movs	r3, #2
 631              	@ 531 "Drivers/CMSIS/Include/cmsis_gcc.h" 1
 632 02a8 93FAA3F2 		rbit r2, r3
 633              	@ 0 "" 2
 634              	.LVL67:
ARM GAS  C:\Users\geoma\AppData\Local\Temp\ccuxvdtO.s 			page 29


 635              		.thumb
 636              	.LBE201:
 637              	.LBE200:
 638              	.LBB202:
 639              	.LBB203:
 640              	@ 531 "Drivers/CMSIS/Include/cmsis_gcc.h" 1
 641 02ac 93FAA3F2 		rbit r2, r3
 642              	@ 0 "" 2
 643              	.LVL68:
 644              		.thumb
 645              	.LBE203:
 646              	.LBE202:
 647              	.LBB204:
 648              	.LBB205:
 649              	@ 531 "Drivers/CMSIS/Include/cmsis_gcc.h" 1
 650 02b0 93FAA3F2 		rbit r2, r3
 651              	@ 0 "" 2
 652              		.thumb
 653              	.LBE205:
 654              	.LBE204:
 423:Drivers/STM32F3xx_HAL_Driver/Src/stm32f3xx_hal_rcc.c ****       {
 655              		.loc 1 423 0
 656 02b4 0D4A     		ldr	r2, .L95
 657 02b6 516A     		ldr	r1, [r2, #36]
 658              	.LVL69:
 659              	.LBB206:
 660              	.LBB207:
 661              		.loc 2 531 0
 662              	@ 531 "Drivers/CMSIS/Include/cmsis_gcc.h" 1
 663 02b8 93FAA3F3 		rbit r3, r3
 664              	@ 0 "" 2
 665              	.LVL70:
 666              		.thumb
 667              	.LBE207:
 668              	.LBE206:
 423:Drivers/STM32F3xx_HAL_Driver/Src/stm32f3xx_hal_rcc.c ****       {
 669              		.loc 1 423 0
 670 02bc B3FA83F3 		clz	r3, r3
 671              	.LVL71:
 672 02c0 03F01F03 		and	r3, r3, #31
 673 02c4 0122     		movs	r2, #1
 674 02c6 02FA03F3 		lsl	r3, r2, r3
 675 02ca 1942     		tst	r1, r3
 676 02cc E5D0     		beq	.L42
 677 02ce 2BE0     		b	.L39
 678              	.LVL72:
 679              	.L40:
 680              	.LBB208:
 681              	.LBB209:
 682              		.loc 2 531 0
 683 02d0 0122     		movs	r2, #1
 684              	@ 531 "Drivers/CMSIS/Include/cmsis_gcc.h" 1
 685 02d2 92FAA2F2 		rbit r2, r2
 686              	@ 0 "" 2
 687              	.LVL73:
 688              		.thumb
 689              	.LBE209:
ARM GAS  C:\Users\geoma\AppData\Local\Temp\ccuxvdtO.s 			page 30


 690              	.LBE208:
 426:Drivers/STM32F3xx_HAL_Driver/Src/stm32f3xx_hal_rcc.c ****         {
 427:Drivers/STM32F3xx_HAL_Driver/Src/stm32f3xx_hal_rcc.c ****           return HAL_TIMEOUT;
 428:Drivers/STM32F3xx_HAL_Driver/Src/stm32f3xx_hal_rcc.c ****         }
 429:Drivers/STM32F3xx_HAL_Driver/Src/stm32f3xx_hal_rcc.c ****       }
 430:Drivers/STM32F3xx_HAL_Driver/Src/stm32f3xx_hal_rcc.c ****     }
 431:Drivers/STM32F3xx_HAL_Driver/Src/stm32f3xx_hal_rcc.c ****     else
 432:Drivers/STM32F3xx_HAL_Driver/Src/stm32f3xx_hal_rcc.c ****     {
 433:Drivers/STM32F3xx_HAL_Driver/Src/stm32f3xx_hal_rcc.c ****       /* Disable the Internal Low Speed oscillator (LSI). */
 434:Drivers/STM32F3xx_HAL_Driver/Src/stm32f3xx_hal_rcc.c ****       __HAL_RCC_LSI_DISABLE();
 691              		.loc 1 434 0
 692 02d6 B2FA82F2 		clz	r2, r2
 693              	.LVL74:
 694 02da 054B     		ldr	r3, .L95+4
 695 02dc 1344     		add	r3, r3, r2
 696 02de 9B00     		lsls	r3, r3, #2
 697 02e0 0022     		movs	r2, #0
 698 02e2 1A60     		str	r2, [r3]
 435:Drivers/STM32F3xx_HAL_Driver/Src/stm32f3xx_hal_rcc.c ****       
 436:Drivers/STM32F3xx_HAL_Driver/Src/stm32f3xx_hal_rcc.c ****       /* Get Start Tick */
 437:Drivers/STM32F3xx_HAL_Driver/Src/stm32f3xx_hal_rcc.c ****       tickstart = HAL_GetTick();
 699              		.loc 1 437 0
 700 02e4 FFF7FEFF 		bl	HAL_GetTick
 701              	.LVL75:
 702 02e8 0546     		mov	r5, r0
 703              	.LVL76:
 438:Drivers/STM32F3xx_HAL_Driver/Src/stm32f3xx_hal_rcc.c ****       
 439:Drivers/STM32F3xx_HAL_Driver/Src/stm32f3xx_hal_rcc.c ****       /* Wait till LSI is disabled */  
 440:Drivers/STM32F3xx_HAL_Driver/Src/stm32f3xx_hal_rcc.c ****       while(__HAL_RCC_GET_FLAG(RCC_FLAG_LSIRDY) != RESET)
 704              		.loc 1 440 0
 705 02ea 09E0     		b	.L43
 706              	.L96:
 707              		.align	2
 708              	.L95:
 709 02ec 00100240 		.word	1073876992
 710 02f0 20819010 		.word	277905696
 711              	.LVL77:
 712              	.L44:
 441:Drivers/STM32F3xx_HAL_Driver/Src/stm32f3xx_hal_rcc.c ****       {
 442:Drivers/STM32F3xx_HAL_Driver/Src/stm32f3xx_hal_rcc.c ****         if((HAL_GetTick() - tickstart ) > LSI_TIMEOUT_VALUE)
 713              		.loc 1 442 0
 714 02f4 FFF7FEFF 		bl	HAL_GetTick
 715              	.LVL78:
 716 02f8 401B     		subs	r0, r0, r5
 717 02fa 0228     		cmp	r0, #2
 718 02fc 00F27581 		bhi	.L84
 719              	.LVL79:
 720              	.L43:
 721              	.LBB210:
 722              	.LBB211:
 723              		.loc 2 531 0
 724 0300 0223     		movs	r3, #2
 725              	@ 531 "Drivers/CMSIS/Include/cmsis_gcc.h" 1
 726 0302 93FAA3F2 		rbit r2, r3
 727              	@ 0 "" 2
 728              	.LVL80:
 729              		.thumb
ARM GAS  C:\Users\geoma\AppData\Local\Temp\ccuxvdtO.s 			page 31


 730              	.LBE211:
 731              	.LBE210:
 732              	.LBB212:
 733              	.LBB213:
 734              	@ 531 "Drivers/CMSIS/Include/cmsis_gcc.h" 1
 735 0306 93FAA3F2 		rbit r2, r3
 736              	@ 0 "" 2
 737              	.LVL81:
 738              		.thumb
 739              	.LBE213:
 740              	.LBE212:
 741              	.LBB214:
 742              	.LBB215:
 743              	@ 531 "Drivers/CMSIS/Include/cmsis_gcc.h" 1
 744 030a 93FAA3F2 		rbit r2, r3
 745              	@ 0 "" 2
 746              		.thumb
 747              	.LBE215:
 748              	.LBE214:
 440:Drivers/STM32F3xx_HAL_Driver/Src/stm32f3xx_hal_rcc.c ****       {
 749              		.loc 1 440 0
 750 030e BE4A     		ldr	r2, .L97
 751 0310 516A     		ldr	r1, [r2, #36]
 752              	.LVL82:
 753              	.LBB216:
 754              	.LBB217:
 755              		.loc 2 531 0
 756              	@ 531 "Drivers/CMSIS/Include/cmsis_gcc.h" 1
 757 0312 93FAA3F3 		rbit r3, r3
 758              	@ 0 "" 2
 759              	.LVL83:
 760              		.thumb
 761              	.LBE217:
 762              	.LBE216:
 440:Drivers/STM32F3xx_HAL_Driver/Src/stm32f3xx_hal_rcc.c ****       {
 763              		.loc 1 440 0
 764 0316 B3FA83F3 		clz	r3, r3
 765              	.LVL84:
 766 031a 03F01F03 		and	r3, r3, #31
 767 031e 0122     		movs	r2, #1
 768 0320 02FA03F3 		lsl	r3, r2, r3
 769 0324 1942     		tst	r1, r3
 770 0326 E5D1     		bne	.L44
 771              	.LVL85:
 772              	.L39:
 443:Drivers/STM32F3xx_HAL_Driver/Src/stm32f3xx_hal_rcc.c ****         {
 444:Drivers/STM32F3xx_HAL_Driver/Src/stm32f3xx_hal_rcc.c ****           return HAL_TIMEOUT;
 445:Drivers/STM32F3xx_HAL_Driver/Src/stm32f3xx_hal_rcc.c ****         }
 446:Drivers/STM32F3xx_HAL_Driver/Src/stm32f3xx_hal_rcc.c ****       }
 447:Drivers/STM32F3xx_HAL_Driver/Src/stm32f3xx_hal_rcc.c ****     }
 448:Drivers/STM32F3xx_HAL_Driver/Src/stm32f3xx_hal_rcc.c ****   }
 449:Drivers/STM32F3xx_HAL_Driver/Src/stm32f3xx_hal_rcc.c ****   /*------------------------------ LSE Configuration -------------------------*/ 
 450:Drivers/STM32F3xx_HAL_Driver/Src/stm32f3xx_hal_rcc.c ****   if(((RCC_OscInitStruct->OscillatorType) & RCC_OSCILLATORTYPE_LSE) == RCC_OSCILLATORTYPE_LSE)
 773              		.loc 1 450 0
 774 0328 2368     		ldr	r3, [r4]
 775 032a 13F0040F 		tst	r3, #4
 776 032e 00F0B880 		beq	.L45
ARM GAS  C:\Users\geoma\AppData\Local\Temp\ccuxvdtO.s 			page 32


 777              	.LVL86:
 778              	.LBB218:
 451:Drivers/STM32F3xx_HAL_Driver/Src/stm32f3xx_hal_rcc.c ****   {
 452:Drivers/STM32F3xx_HAL_Driver/Src/stm32f3xx_hal_rcc.c ****     FlagStatus       pwrclkchanged = RESET;
 453:Drivers/STM32F3xx_HAL_Driver/Src/stm32f3xx_hal_rcc.c ****     
 454:Drivers/STM32F3xx_HAL_Driver/Src/stm32f3xx_hal_rcc.c ****     /* Check the parameters */
 455:Drivers/STM32F3xx_HAL_Driver/Src/stm32f3xx_hal_rcc.c ****     assert_param(IS_RCC_LSE(RCC_OscInitStruct->LSEState));
 456:Drivers/STM32F3xx_HAL_Driver/Src/stm32f3xx_hal_rcc.c **** 
 457:Drivers/STM32F3xx_HAL_Driver/Src/stm32f3xx_hal_rcc.c ****     /* Update LSE configuration in Backup Domain control register    */
 458:Drivers/STM32F3xx_HAL_Driver/Src/stm32f3xx_hal_rcc.c ****     /* Requires to enable write access to Backup Domain of necessary */
 459:Drivers/STM32F3xx_HAL_Driver/Src/stm32f3xx_hal_rcc.c ****     if(__HAL_RCC_PWR_IS_CLK_DISABLED())
 779              		.loc 1 459 0
 780 0332 B54B     		ldr	r3, .L97
 781 0334 DB69     		ldr	r3, [r3, #28]
 782 0336 13F0805F 		tst	r3, #268435456
 783 033a 0BD1     		bne	.L85
 784              	.LBB219:
 460:Drivers/STM32F3xx_HAL_Driver/Src/stm32f3xx_hal_rcc.c ****     {
 461:Drivers/STM32F3xx_HAL_Driver/Src/stm32f3xx_hal_rcc.c ****       __HAL_RCC_PWR_CLK_ENABLE();
 785              		.loc 1 461 0
 786 033c B24B     		ldr	r3, .L97
 787 033e DA69     		ldr	r2, [r3, #28]
 788 0340 42F08052 		orr	r2, r2, #268435456
 789 0344 DA61     		str	r2, [r3, #28]
 790 0346 DB69     		ldr	r3, [r3, #28]
 791 0348 03F08053 		and	r3, r3, #268435456
 792 034c 0193     		str	r3, [sp, #4]
 793 034e 019B     		ldr	r3, [sp, #4]
 794              	.LVL87:
 795              	.LBE219:
 462:Drivers/STM32F3xx_HAL_Driver/Src/stm32f3xx_hal_rcc.c ****       pwrclkchanged = SET;
 796              		.loc 1 462 0
 797 0350 0125     		movs	r5, #1
 798 0352 00E0     		b	.L46
 799              	.LVL88:
 800              	.L85:
 452:Drivers/STM32F3xx_HAL_Driver/Src/stm32f3xx_hal_rcc.c ****     
 801              		.loc 1 452 0
 802 0354 0025     		movs	r5, #0
 803              	.LVL89:
 804              	.L46:
 463:Drivers/STM32F3xx_HAL_Driver/Src/stm32f3xx_hal_rcc.c ****     }
 464:Drivers/STM32F3xx_HAL_Driver/Src/stm32f3xx_hal_rcc.c ****     
 465:Drivers/STM32F3xx_HAL_Driver/Src/stm32f3xx_hal_rcc.c ****     if(HAL_IS_BIT_CLR(PWR->CR, PWR_CR_DBP))
 805              		.loc 1 465 0
 806 0356 AD4B     		ldr	r3, .L97+4
 807 0358 1B68     		ldr	r3, [r3]
 808 035a 13F4807F 		tst	r3, #256
 809 035e 13D1     		bne	.L47
 466:Drivers/STM32F3xx_HAL_Driver/Src/stm32f3xx_hal_rcc.c ****     {
 467:Drivers/STM32F3xx_HAL_Driver/Src/stm32f3xx_hal_rcc.c ****       /* Enable write access to Backup domain */
 468:Drivers/STM32F3xx_HAL_Driver/Src/stm32f3xx_hal_rcc.c ****       SET_BIT(PWR->CR, PWR_CR_DBP);
 810              		.loc 1 468 0
 811 0360 AA4A     		ldr	r2, .L97+4
 812 0362 1368     		ldr	r3, [r2]
 813 0364 43F48073 		orr	r3, r3, #256
 814 0368 1360     		str	r3, [r2]
ARM GAS  C:\Users\geoma\AppData\Local\Temp\ccuxvdtO.s 			page 33


 469:Drivers/STM32F3xx_HAL_Driver/Src/stm32f3xx_hal_rcc.c ****       
 470:Drivers/STM32F3xx_HAL_Driver/Src/stm32f3xx_hal_rcc.c ****       /* Wait for Backup domain Write protection disable */
 471:Drivers/STM32F3xx_HAL_Driver/Src/stm32f3xx_hal_rcc.c ****       tickstart = HAL_GetTick();
 815              		.loc 1 471 0
 816 036a FFF7FEFF 		bl	HAL_GetTick
 817              	.LVL90:
 818 036e 0646     		mov	r6, r0
 819              	.LVL91:
 472:Drivers/STM32F3xx_HAL_Driver/Src/stm32f3xx_hal_rcc.c **** 
 473:Drivers/STM32F3xx_HAL_Driver/Src/stm32f3xx_hal_rcc.c ****       while(HAL_IS_BIT_CLR(PWR->CR, PWR_CR_DBP))
 820              		.loc 1 473 0
 821 0370 05E0     		b	.L48
 822              	.LVL92:
 823              	.L49:
 474:Drivers/STM32F3xx_HAL_Driver/Src/stm32f3xx_hal_rcc.c ****       {
 475:Drivers/STM32F3xx_HAL_Driver/Src/stm32f3xx_hal_rcc.c ****         if((HAL_GetTick() - tickstart) > RCC_DBP_TIMEOUT_VALUE)
 824              		.loc 1 475 0
 825 0372 FFF7FEFF 		bl	HAL_GetTick
 826              	.LVL93:
 827 0376 801B     		subs	r0, r0, r6
 828 0378 6428     		cmp	r0, #100
 829 037a 00F23881 		bhi	.L86
 830              	.L48:
 473:Drivers/STM32F3xx_HAL_Driver/Src/stm32f3xx_hal_rcc.c ****       {
 831              		.loc 1 473 0
 832 037e A34B     		ldr	r3, .L97+4
 833 0380 1B68     		ldr	r3, [r3]
 834 0382 13F4807F 		tst	r3, #256
 835 0386 F4D0     		beq	.L49
 836              	.LVL94:
 837              	.L47:
 476:Drivers/STM32F3xx_HAL_Driver/Src/stm32f3xx_hal_rcc.c ****         {
 477:Drivers/STM32F3xx_HAL_Driver/Src/stm32f3xx_hal_rcc.c ****           return HAL_TIMEOUT;
 478:Drivers/STM32F3xx_HAL_Driver/Src/stm32f3xx_hal_rcc.c ****         }
 479:Drivers/STM32F3xx_HAL_Driver/Src/stm32f3xx_hal_rcc.c ****       }
 480:Drivers/STM32F3xx_HAL_Driver/Src/stm32f3xx_hal_rcc.c ****     }
 481:Drivers/STM32F3xx_HAL_Driver/Src/stm32f3xx_hal_rcc.c **** 
 482:Drivers/STM32F3xx_HAL_Driver/Src/stm32f3xx_hal_rcc.c ****     /* Set the new LSE configuration -----------------------------------------*/
 483:Drivers/STM32F3xx_HAL_Driver/Src/stm32f3xx_hal_rcc.c ****     __HAL_RCC_LSE_CONFIG(RCC_OscInitStruct->LSEState);
 838              		.loc 1 483 0
 839 0388 E368     		ldr	r3, [r4, #12]
 840 038a 012B     		cmp	r3, #1
 841 038c 05D1     		bne	.L50
 842              		.loc 1 483 0 is_stmt 0 discriminator 1
 843 038e 9E4A     		ldr	r2, .L97
 844 0390 136A     		ldr	r3, [r2, #32]
 845 0392 43F00103 		orr	r3, r3, #1
 846 0396 1362     		str	r3, [r2, #32]
 847 0398 22E0     		b	.L51
 848              	.L50:
 849              		.loc 1 483 0 discriminator 2
 850 039a 63B9     		cbnz	r3, .L52
 851              		.loc 1 483 0 discriminator 3
 852 039c 03F18043 		add	r3, r3, #1073741824
 853 03a0 03F50433 		add	r3, r3, #135168
 854 03a4 1A6A     		ldr	r2, [r3, #32]
 855 03a6 22F00102 		bic	r2, r2, #1
ARM GAS  C:\Users\geoma\AppData\Local\Temp\ccuxvdtO.s 			page 34


 856 03aa 1A62     		str	r2, [r3, #32]
 857 03ac 1A6A     		ldr	r2, [r3, #32]
 858 03ae 22F00402 		bic	r2, r2, #4
 859 03b2 1A62     		str	r2, [r3, #32]
 860 03b4 14E0     		b	.L51
 861              	.L52:
 862              		.loc 1 483 0 discriminator 4
 863 03b6 052B     		cmp	r3, #5
 864 03b8 09D1     		bne	.L53
 865              		.loc 1 483 0 discriminator 5
 866 03ba 934B     		ldr	r3, .L97
 867 03bc 1A6A     		ldr	r2, [r3, #32]
 868 03be 42F00402 		orr	r2, r2, #4
 869 03c2 1A62     		str	r2, [r3, #32]
 870 03c4 1A6A     		ldr	r2, [r3, #32]
 871 03c6 42F00102 		orr	r2, r2, #1
 872 03ca 1A62     		str	r2, [r3, #32]
 873 03cc 08E0     		b	.L51
 874              	.L53:
 875              		.loc 1 483 0 discriminator 6
 876 03ce 8E4B     		ldr	r3, .L97
 877 03d0 1A6A     		ldr	r2, [r3, #32]
 878 03d2 22F00102 		bic	r2, r2, #1
 879 03d6 1A62     		str	r2, [r3, #32]
 880 03d8 1A6A     		ldr	r2, [r3, #32]
 881 03da 22F00402 		bic	r2, r2, #4
 882 03de 1A62     		str	r2, [r3, #32]
 883              	.L51:
 484:Drivers/STM32F3xx_HAL_Driver/Src/stm32f3xx_hal_rcc.c ****     /* Check the LSE State */
 485:Drivers/STM32F3xx_HAL_Driver/Src/stm32f3xx_hal_rcc.c ****     if(RCC_OscInitStruct->LSEState != RCC_LSE_OFF)
 884              		.loc 1 485 0 is_stmt 1
 885 03e0 E368     		ldr	r3, [r4, #12]
 886 03e2 63B3     		cbz	r3, .L54
 486:Drivers/STM32F3xx_HAL_Driver/Src/stm32f3xx_hal_rcc.c ****     {
 487:Drivers/STM32F3xx_HAL_Driver/Src/stm32f3xx_hal_rcc.c ****       /* Get Start Tick */
 488:Drivers/STM32F3xx_HAL_Driver/Src/stm32f3xx_hal_rcc.c ****       tickstart = HAL_GetTick();
 887              		.loc 1 488 0
 888 03e4 FFF7FEFF 		bl	HAL_GetTick
 889              	.LVL95:
 890 03e8 0646     		mov	r6, r0
 891              	.LVL96:
 489:Drivers/STM32F3xx_HAL_Driver/Src/stm32f3xx_hal_rcc.c ****       
 490:Drivers/STM32F3xx_HAL_Driver/Src/stm32f3xx_hal_rcc.c ****       /* Wait till LSE is ready */  
 491:Drivers/STM32F3xx_HAL_Driver/Src/stm32f3xx_hal_rcc.c ****       while(__HAL_RCC_GET_FLAG(RCC_FLAG_LSERDY) == RESET)
 892              		.loc 1 491 0
 893 03ea 07E0     		b	.L55
 894              	.LVL97:
 895              	.L58:
 492:Drivers/STM32F3xx_HAL_Driver/Src/stm32f3xx_hal_rcc.c ****       {
 493:Drivers/STM32F3xx_HAL_Driver/Src/stm32f3xx_hal_rcc.c ****         if((HAL_GetTick() - tickstart ) > RCC_LSE_TIMEOUT_VALUE)
 896              		.loc 1 493 0
 897 03ec FFF7FEFF 		bl	HAL_GetTick
 898              	.LVL98:
 899 03f0 801B     		subs	r0, r0, r6
 900 03f2 41F28833 		movw	r3, #5000
 901 03f6 9842     		cmp	r0, r3
 902 03f8 00F2FB80 		bhi	.L87
ARM GAS  C:\Users\geoma\AppData\Local\Temp\ccuxvdtO.s 			page 35


 903              	.LVL99:
 904              	.L55:
 905              	.LBB220:
 906              	.LBB221:
 907              		.loc 2 531 0
 908 03fc 0223     		movs	r3, #2
 909              	@ 531 "Drivers/CMSIS/Include/cmsis_gcc.h" 1
 910 03fe 93FAA3F2 		rbit r2, r3
 911              	@ 0 "" 2
 912              	.LVL100:
 913              		.thumb
 914              	.LBE221:
 915              	.LBE220:
 916              	.LBB222:
 917              	.LBB223:
 918              	@ 531 "Drivers/CMSIS/Include/cmsis_gcc.h" 1
 919 0402 93FAA3F3 		rbit r3, r3
 920              	@ 0 "" 2
 921              	.LVL101:
 922              		.thumb
 923              	.LBE223:
 924              	.LBE222:
 491:Drivers/STM32F3xx_HAL_Driver/Src/stm32f3xx_hal_rcc.c ****       {
 925              		.loc 1 491 0
 926 0406 B3FA83F3 		clz	r3, r3
 927              	.LVL102:
 928 040a 43F04003 		orr	r3, r3, #64
 929 040e 5B09     		lsrs	r3, r3, #5
 930 0410 022B     		cmp	r3, #2
 931 0412 02D1     		bne	.L56
 491:Drivers/STM32F3xx_HAL_Driver/Src/stm32f3xx_hal_rcc.c ****       {
 932              		.loc 1 491 0 is_stmt 0 discriminator 4
 933 0414 7C4B     		ldr	r3, .L97
 934 0416 196A     		ldr	r1, [r3, #32]
 935 0418 04E0     		b	.L57
 936              	.L56:
 937              	.LVL103:
 938              	.LBB224:
 939              	.LBB225:
 940              		.loc 2 531 0 is_stmt 1
 941 041a 0223     		movs	r3, #2
 942              	@ 531 "Drivers/CMSIS/Include/cmsis_gcc.h" 1
 943 041c 93FAA3F3 		rbit r3, r3
 944              	@ 0 "" 2
 945              	.LVL104:
 946              		.thumb
 947              	.LBE225:
 948              	.LBE224:
 491:Drivers/STM32F3xx_HAL_Driver/Src/stm32f3xx_hal_rcc.c ****       {
 949              		.loc 1 491 0
 950 0420 794B     		ldr	r3, .L97
 951 0422 596A     		ldr	r1, [r3, #36]
 952              	.LVL105:
 953              	.L57:
 954              	.LBB226:
 955              	.LBB227:
 956              		.loc 2 531 0 discriminator 11
ARM GAS  C:\Users\geoma\AppData\Local\Temp\ccuxvdtO.s 			page 36


 957 0424 0223     		movs	r3, #2
 958              	@ 531 "Drivers/CMSIS/Include/cmsis_gcc.h" 1
 959 0426 93FAA3F3 		rbit r3, r3
 960              	@ 0 "" 2
 961              	.LVL106:
 962              		.thumb
 963              	.LBE227:
 964              	.LBE226:
 491:Drivers/STM32F3xx_HAL_Driver/Src/stm32f3xx_hal_rcc.c ****       {
 965              		.loc 1 491 0 discriminator 11
 966 042a B3FA83F3 		clz	r3, r3
 967              	.LVL107:
 968 042e 03F01F03 		and	r3, r3, #31
 969 0432 0122     		movs	r2, #1
 970 0434 02FA03F3 		lsl	r3, r2, r3
 971 0438 1942     		tst	r1, r3
 972 043a D7D0     		beq	.L58
 973 043c 2BE0     		b	.L59
 974              	.LVL108:
 975              	.L54:
 494:Drivers/STM32F3xx_HAL_Driver/Src/stm32f3xx_hal_rcc.c ****         {
 495:Drivers/STM32F3xx_HAL_Driver/Src/stm32f3xx_hal_rcc.c ****           return HAL_TIMEOUT;
 496:Drivers/STM32F3xx_HAL_Driver/Src/stm32f3xx_hal_rcc.c ****         }
 497:Drivers/STM32F3xx_HAL_Driver/Src/stm32f3xx_hal_rcc.c ****       }
 498:Drivers/STM32F3xx_HAL_Driver/Src/stm32f3xx_hal_rcc.c ****     }
 499:Drivers/STM32F3xx_HAL_Driver/Src/stm32f3xx_hal_rcc.c ****     else
 500:Drivers/STM32F3xx_HAL_Driver/Src/stm32f3xx_hal_rcc.c ****     {
 501:Drivers/STM32F3xx_HAL_Driver/Src/stm32f3xx_hal_rcc.c ****       /* Get Start Tick */
 502:Drivers/STM32F3xx_HAL_Driver/Src/stm32f3xx_hal_rcc.c ****       tickstart = HAL_GetTick();
 976              		.loc 1 502 0
 977 043e FFF7FEFF 		bl	HAL_GetTick
 978              	.LVL109:
 979 0442 0646     		mov	r6, r0
 980              	.LVL110:
 503:Drivers/STM32F3xx_HAL_Driver/Src/stm32f3xx_hal_rcc.c ****       
 504:Drivers/STM32F3xx_HAL_Driver/Src/stm32f3xx_hal_rcc.c ****       /* Wait till LSE is disabled */  
 505:Drivers/STM32F3xx_HAL_Driver/Src/stm32f3xx_hal_rcc.c ****       while(__HAL_RCC_GET_FLAG(RCC_FLAG_LSERDY) != RESET)
 981              		.loc 1 505 0
 982 0444 07E0     		b	.L60
 983              	.LVL111:
 984              	.L63:
 506:Drivers/STM32F3xx_HAL_Driver/Src/stm32f3xx_hal_rcc.c ****       {
 507:Drivers/STM32F3xx_HAL_Driver/Src/stm32f3xx_hal_rcc.c ****         if((HAL_GetTick() - tickstart ) > RCC_LSE_TIMEOUT_VALUE)
 985              		.loc 1 507 0
 986 0446 FFF7FEFF 		bl	HAL_GetTick
 987              	.LVL112:
 988 044a 801B     		subs	r0, r0, r6
 989 044c 41F28833 		movw	r3, #5000
 990 0450 9842     		cmp	r0, r3
 991 0452 00F2D080 		bhi	.L88
 992              	.LVL113:
 993              	.L60:
 994              	.LBB228:
 995              	.LBB229:
 996              		.loc 2 531 0
 997 0456 0223     		movs	r3, #2
 998              	@ 531 "Drivers/CMSIS/Include/cmsis_gcc.h" 1
ARM GAS  C:\Users\geoma\AppData\Local\Temp\ccuxvdtO.s 			page 37


 999 0458 93FAA3F2 		rbit r2, r3
 1000              	@ 0 "" 2
 1001              	.LVL114:
 1002              		.thumb
 1003              	.LBE229:
 1004              	.LBE228:
 1005              	.LBB230:
 1006              	.LBB231:
 1007              	@ 531 "Drivers/CMSIS/Include/cmsis_gcc.h" 1
 1008 045c 93FAA3F3 		rbit r3, r3
 1009              	@ 0 "" 2
 1010              	.LVL115:
 1011              		.thumb
 1012              	.LBE231:
 1013              	.LBE230:
 505:Drivers/STM32F3xx_HAL_Driver/Src/stm32f3xx_hal_rcc.c ****       {
 1014              		.loc 1 505 0
 1015 0460 B3FA83F3 		clz	r3, r3
 1016              	.LVL116:
 1017 0464 43F04003 		orr	r3, r3, #64
 1018 0468 5B09     		lsrs	r3, r3, #5
 1019 046a 022B     		cmp	r3, #2
 1020 046c 02D1     		bne	.L61
 505:Drivers/STM32F3xx_HAL_Driver/Src/stm32f3xx_hal_rcc.c ****       {
 1021              		.loc 1 505 0 is_stmt 0 discriminator 4
 1022 046e 664B     		ldr	r3, .L97
 1023 0470 196A     		ldr	r1, [r3, #32]
 1024 0472 04E0     		b	.L62
 1025              	.L61:
 1026              	.LVL117:
 1027              	.LBB232:
 1028              	.LBB233:
 1029              		.loc 2 531 0 is_stmt 1
 1030 0474 0223     		movs	r3, #2
 1031              	@ 531 "Drivers/CMSIS/Include/cmsis_gcc.h" 1
 1032 0476 93FAA3F3 		rbit r3, r3
 1033              	@ 0 "" 2
 1034              	.LVL118:
 1035              		.thumb
 1036              	.LBE233:
 1037              	.LBE232:
 505:Drivers/STM32F3xx_HAL_Driver/Src/stm32f3xx_hal_rcc.c ****       {
 1038              		.loc 1 505 0
 1039 047a 634B     		ldr	r3, .L97
 1040 047c 596A     		ldr	r1, [r3, #36]
 1041              	.LVL119:
 1042              	.L62:
 1043              	.LBB234:
 1044              	.LBB235:
 1045              		.loc 2 531 0 discriminator 11
 1046 047e 0223     		movs	r3, #2
 1047              	@ 531 "Drivers/CMSIS/Include/cmsis_gcc.h" 1
 1048 0480 93FAA3F3 		rbit r3, r3
 1049              	@ 0 "" 2
 1050              	.LVL120:
 1051              		.thumb
 1052              	.LBE235:
ARM GAS  C:\Users\geoma\AppData\Local\Temp\ccuxvdtO.s 			page 38


 1053              	.LBE234:
 505:Drivers/STM32F3xx_HAL_Driver/Src/stm32f3xx_hal_rcc.c ****       {
 1054              		.loc 1 505 0 discriminator 11
 1055 0484 B3FA83F3 		clz	r3, r3
 1056              	.LVL121:
 1057 0488 03F01F03 		and	r3, r3, #31
 1058 048c 0122     		movs	r2, #1
 1059 048e 02FA03F3 		lsl	r3, r2, r3
 1060 0492 1942     		tst	r1, r3
 1061 0494 D7D1     		bne	.L63
 1062              	.LVL122:
 1063              	.L59:
 508:Drivers/STM32F3xx_HAL_Driver/Src/stm32f3xx_hal_rcc.c ****         {
 509:Drivers/STM32F3xx_HAL_Driver/Src/stm32f3xx_hal_rcc.c ****           return HAL_TIMEOUT;
 510:Drivers/STM32F3xx_HAL_Driver/Src/stm32f3xx_hal_rcc.c ****         }
 511:Drivers/STM32F3xx_HAL_Driver/Src/stm32f3xx_hal_rcc.c ****       }
 512:Drivers/STM32F3xx_HAL_Driver/Src/stm32f3xx_hal_rcc.c ****     }
 513:Drivers/STM32F3xx_HAL_Driver/Src/stm32f3xx_hal_rcc.c **** 
 514:Drivers/STM32F3xx_HAL_Driver/Src/stm32f3xx_hal_rcc.c ****     /* Require to disable power clock if necessary */
 515:Drivers/STM32F3xx_HAL_Driver/Src/stm32f3xx_hal_rcc.c ****     if(pwrclkchanged == SET)
 1064              		.loc 1 515 0
 1065 0496 25B1     		cbz	r5, .L45
 516:Drivers/STM32F3xx_HAL_Driver/Src/stm32f3xx_hal_rcc.c ****     {
 517:Drivers/STM32F3xx_HAL_Driver/Src/stm32f3xx_hal_rcc.c ****       __HAL_RCC_PWR_CLK_DISABLE();
 1066              		.loc 1 517 0
 1067 0498 5B4A     		ldr	r2, .L97
 1068 049a D369     		ldr	r3, [r2, #28]
 1069 049c 23F08053 		bic	r3, r3, #268435456
 1070 04a0 D361     		str	r3, [r2, #28]
 1071              	.LVL123:
 1072              	.L45:
 1073              	.LBE218:
 518:Drivers/STM32F3xx_HAL_Driver/Src/stm32f3xx_hal_rcc.c ****     }
 519:Drivers/STM32F3xx_HAL_Driver/Src/stm32f3xx_hal_rcc.c ****   }
 520:Drivers/STM32F3xx_HAL_Driver/Src/stm32f3xx_hal_rcc.c **** 
 521:Drivers/STM32F3xx_HAL_Driver/Src/stm32f3xx_hal_rcc.c ****   /*-------------------------------- PLL Configuration -----------------------*/
 522:Drivers/STM32F3xx_HAL_Driver/Src/stm32f3xx_hal_rcc.c ****   /* Check the parameters */
 523:Drivers/STM32F3xx_HAL_Driver/Src/stm32f3xx_hal_rcc.c ****   assert_param(IS_RCC_PLL(RCC_OscInitStruct->PLL.PLLState));
 524:Drivers/STM32F3xx_HAL_Driver/Src/stm32f3xx_hal_rcc.c ****   if ((RCC_OscInitStruct->PLL.PLLState) != RCC_PLL_NONE)
 1074              		.loc 1 524 0
 1075 04a2 E369     		ldr	r3, [r4, #28]
 1076 04a4 002B     		cmp	r3, #0
 1077 04a6 00F0A880 		beq	.L89
 525:Drivers/STM32F3xx_HAL_Driver/Src/stm32f3xx_hal_rcc.c ****   {
 526:Drivers/STM32F3xx_HAL_Driver/Src/stm32f3xx_hal_rcc.c ****     /* Check if the PLL is used as system clock or not */
 527:Drivers/STM32F3xx_HAL_Driver/Src/stm32f3xx_hal_rcc.c ****     if(__HAL_RCC_GET_SYSCLK_SOURCE() != RCC_SYSCLKSOURCE_STATUS_PLLCLK)
 1078              		.loc 1 527 0
 1079 04aa 574A     		ldr	r2, .L97
 1080 04ac 5268     		ldr	r2, [r2, #4]
 1081 04ae 02F00C02 		and	r2, r2, #12
 1082 04b2 082A     		cmp	r2, #8
 1083 04b4 00F0A380 		beq	.L90
 528:Drivers/STM32F3xx_HAL_Driver/Src/stm32f3xx_hal_rcc.c ****     { 
 529:Drivers/STM32F3xx_HAL_Driver/Src/stm32f3xx_hal_rcc.c ****       if((RCC_OscInitStruct->PLL.PLLState) == RCC_PLL_ON)
 1084              		.loc 1 529 0
 1085 04b8 022B     		cmp	r3, #2
 1086 04ba 5DD1     		bne	.L64
ARM GAS  C:\Users\geoma\AppData\Local\Temp\ccuxvdtO.s 			page 39


 1087              	.LVL124:
 1088              	.LBB236:
 1089              	.LBB237:
 1090              		.loc 2 531 0
 1091 04bc 4FF08073 		mov	r3, #16777216
 1092              	@ 531 "Drivers/CMSIS/Include/cmsis_gcc.h" 1
 1093 04c0 93FAA3F3 		rbit r3, r3
 1094              	@ 0 "" 2
 1095              	.LVL125:
 1096              		.thumb
 1097              	.LBE237:
 1098              	.LBE236:
 530:Drivers/STM32F3xx_HAL_Driver/Src/stm32f3xx_hal_rcc.c ****       {
 531:Drivers/STM32F3xx_HAL_Driver/Src/stm32f3xx_hal_rcc.c ****         /* Check the parameters */
 532:Drivers/STM32F3xx_HAL_Driver/Src/stm32f3xx_hal_rcc.c ****         assert_param(IS_RCC_PLLSOURCE(RCC_OscInitStruct->PLL.PLLSource));
 533:Drivers/STM32F3xx_HAL_Driver/Src/stm32f3xx_hal_rcc.c ****         assert_param(IS_RCC_PLL_MUL(RCC_OscInitStruct->PLL.PLLMUL));
 534:Drivers/STM32F3xx_HAL_Driver/Src/stm32f3xx_hal_rcc.c **** #if   defined(RCC_CFGR_PLLSRC_HSI_PREDIV)
 535:Drivers/STM32F3xx_HAL_Driver/Src/stm32f3xx_hal_rcc.c ****         assert_param(IS_RCC_PREDIV(RCC_OscInitStruct->PLL.PREDIV));
 536:Drivers/STM32F3xx_HAL_Driver/Src/stm32f3xx_hal_rcc.c **** #endif
 537:Drivers/STM32F3xx_HAL_Driver/Src/stm32f3xx_hal_rcc.c ****   
 538:Drivers/STM32F3xx_HAL_Driver/Src/stm32f3xx_hal_rcc.c ****         /* Disable the main PLL. */
 539:Drivers/STM32F3xx_HAL_Driver/Src/stm32f3xx_hal_rcc.c ****         __HAL_RCC_PLL_DISABLE();
 1099              		.loc 1 539 0
 1100 04c4 B3FA83F3 		clz	r3, r3
 1101              	.LVL126:
 1102 04c8 03F18453 		add	r3, r3, #276824064
 1103 04cc 03F58413 		add	r3, r3, #1081344
 1104 04d0 9B00     		lsls	r3, r3, #2
 1105 04d2 0022     		movs	r2, #0
 1106 04d4 1A60     		str	r2, [r3]
 540:Drivers/STM32F3xx_HAL_Driver/Src/stm32f3xx_hal_rcc.c ****         
 541:Drivers/STM32F3xx_HAL_Driver/Src/stm32f3xx_hal_rcc.c ****         /* Get Start Tick */
 542:Drivers/STM32F3xx_HAL_Driver/Src/stm32f3xx_hal_rcc.c ****         tickstart = HAL_GetTick();
 1107              		.loc 1 542 0
 1108 04d6 FFF7FEFF 		bl	HAL_GetTick
 1109              	.LVL127:
 1110 04da 0546     		mov	r5, r0
 1111              	.LVL128:
 543:Drivers/STM32F3xx_HAL_Driver/Src/stm32f3xx_hal_rcc.c ****         
 544:Drivers/STM32F3xx_HAL_Driver/Src/stm32f3xx_hal_rcc.c ****         /* Wait till PLL is disabled */
 545:Drivers/STM32F3xx_HAL_Driver/Src/stm32f3xx_hal_rcc.c ****         while(__HAL_RCC_GET_FLAG(RCC_FLAG_PLLRDY)  != RESET)
 1112              		.loc 1 545 0
 1113 04dc 05E0     		b	.L65
 1114              	.LVL129:
 1115              	.L68:
 546:Drivers/STM32F3xx_HAL_Driver/Src/stm32f3xx_hal_rcc.c ****         {
 547:Drivers/STM32F3xx_HAL_Driver/Src/stm32f3xx_hal_rcc.c ****           if((HAL_GetTick() - tickstart ) > PLL_TIMEOUT_VALUE)
 1116              		.loc 1 547 0
 1117 04de FFF7FEFF 		bl	HAL_GetTick
 1118              	.LVL130:
 1119 04e2 401B     		subs	r0, r0, r5
 1120 04e4 0228     		cmp	r0, #2
 1121 04e6 00F28C80 		bhi	.L91
 1122              	.LVL131:
 1123              	.L65:
 1124              	.LBB238:
 1125              	.LBB239:
ARM GAS  C:\Users\geoma\AppData\Local\Temp\ccuxvdtO.s 			page 40


 1126              		.loc 2 531 0
 1127 04ea 4FF00073 		mov	r3, #33554432
 1128              	@ 531 "Drivers/CMSIS/Include/cmsis_gcc.h" 1
 1129 04ee 93FAA3F3 		rbit r3, r3
 1130              	@ 0 "" 2
 1131              		.thumb
 1132              	.LBE239:
 1133              	.LBE238:
 545:Drivers/STM32F3xx_HAL_Driver/Src/stm32f3xx_hal_rcc.c ****         {
 1134              		.loc 1 545 0
 1135 04f2 454B     		ldr	r3, .L97
 1136 04f4 1968     		ldr	r1, [r3]
 1137              	.LVL132:
 1138              	.LBB240:
 1139              	.LBB241:
 1140              		.loc 2 531 0
 1141 04f6 4FF00073 		mov	r3, #33554432
 1142              	@ 531 "Drivers/CMSIS/Include/cmsis_gcc.h" 1
 1143 04fa 93FAA3F3 		rbit r3, r3
 1144              	@ 0 "" 2
 1145              	.LVL133:
 1146              		.thumb
 1147              	.LBE241:
 1148              	.LBE240:
 545:Drivers/STM32F3xx_HAL_Driver/Src/stm32f3xx_hal_rcc.c ****         {
 1149              		.loc 1 545 0
 1150 04fe B3FA83F3 		clz	r3, r3
 1151              	.LVL134:
 1152 0502 03F01F03 		and	r3, r3, #31
 1153 0506 0122     		movs	r2, #1
 1154 0508 02FA03F3 		lsl	r3, r2, r3
 1155 050c 1942     		tst	r1, r3
 1156 050e E6D1     		bne	.L68
 548:Drivers/STM32F3xx_HAL_Driver/Src/stm32f3xx_hal_rcc.c ****           {
 549:Drivers/STM32F3xx_HAL_Driver/Src/stm32f3xx_hal_rcc.c ****             return HAL_TIMEOUT;
 550:Drivers/STM32F3xx_HAL_Driver/Src/stm32f3xx_hal_rcc.c ****           }
 551:Drivers/STM32F3xx_HAL_Driver/Src/stm32f3xx_hal_rcc.c ****         }
 552:Drivers/STM32F3xx_HAL_Driver/Src/stm32f3xx_hal_rcc.c **** 
 553:Drivers/STM32F3xx_HAL_Driver/Src/stm32f3xx_hal_rcc.c **** #if defined(RCC_CFGR_PLLSRC_HSI_PREDIV)
 554:Drivers/STM32F3xx_HAL_Driver/Src/stm32f3xx_hal_rcc.c ****         /* Configure the main PLL clock source, predivider and multiplication factor. */
 555:Drivers/STM32F3xx_HAL_Driver/Src/stm32f3xx_hal_rcc.c ****         __HAL_RCC_PLL_CONFIG(RCC_OscInitStruct->PLL.PLLSource,
 556:Drivers/STM32F3xx_HAL_Driver/Src/stm32f3xx_hal_rcc.c ****                              RCC_OscInitStruct->PLL.PREDIV,
 557:Drivers/STM32F3xx_HAL_Driver/Src/stm32f3xx_hal_rcc.c ****                              RCC_OscInitStruct->PLL.PLLMUL);
 558:Drivers/STM32F3xx_HAL_Driver/Src/stm32f3xx_hal_rcc.c **** #else
 559:Drivers/STM32F3xx_HAL_Driver/Src/stm32f3xx_hal_rcc.c ****       /* Configure the main PLL clock source and multiplication factor. */
 560:Drivers/STM32F3xx_HAL_Driver/Src/stm32f3xx_hal_rcc.c ****       __HAL_RCC_PLL_CONFIG(RCC_OscInitStruct->PLL.PLLSource,
 1157              		.loc 1 560 0
 1158 0510 3D48     		ldr	r0, .L97
 1159 0512 4368     		ldr	r3, [r0, #4]
 1160 0514 23F47411 		bic	r1, r3, #3997696
 1161 0518 636A     		ldr	r3, [r4, #36]
 1162 051a 226A     		ldr	r2, [r4, #32]
 1163 051c 1343     		orrs	r3, r3, r2
 1164 051e 0B43     		orrs	r3, r3, r1
 1165 0520 4360     		str	r3, [r0, #4]
 1166              	.LVL135:
 1167              	.LBB242:
ARM GAS  C:\Users\geoma\AppData\Local\Temp\ccuxvdtO.s 			page 41


 1168              	.LBB243:
 1169              		.loc 2 531 0
 1170 0522 4FF08073 		mov	r3, #16777216
 1171              	@ 531 "Drivers/CMSIS/Include/cmsis_gcc.h" 1
 1172 0526 93FAA3F3 		rbit r3, r3
 1173              	@ 0 "" 2
 1174              	.LVL136:
 1175              		.thumb
 1176              	.LBE243:
 1177              	.LBE242:
 561:Drivers/STM32F3xx_HAL_Driver/Src/stm32f3xx_hal_rcc.c ****                            RCC_OscInitStruct->PLL.PLLMUL);
 562:Drivers/STM32F3xx_HAL_Driver/Src/stm32f3xx_hal_rcc.c **** #endif /* RCC_CFGR_PLLSRC_HSI_PREDIV */
 563:Drivers/STM32F3xx_HAL_Driver/Src/stm32f3xx_hal_rcc.c ****         /* Enable the main PLL. */
 564:Drivers/STM32F3xx_HAL_Driver/Src/stm32f3xx_hal_rcc.c ****         __HAL_RCC_PLL_ENABLE();
 1178              		.loc 1 564 0
 1179 052a B3FA83F3 		clz	r3, r3
 1180              	.LVL137:
 1181 052e 03F18453 		add	r3, r3, #276824064
 1182 0532 03F58413 		add	r3, r3, #1081344
 1183 0536 9B00     		lsls	r3, r3, #2
 1184 0538 0122     		movs	r2, #1
 1185 053a 1A60     		str	r2, [r3]
 565:Drivers/STM32F3xx_HAL_Driver/Src/stm32f3xx_hal_rcc.c ****         
 566:Drivers/STM32F3xx_HAL_Driver/Src/stm32f3xx_hal_rcc.c ****         /* Get Start Tick */
 567:Drivers/STM32F3xx_HAL_Driver/Src/stm32f3xx_hal_rcc.c ****         tickstart = HAL_GetTick();
 1186              		.loc 1 567 0
 1187 053c FFF7FEFF 		bl	HAL_GetTick
 1188              	.LVL138:
 1189 0540 0446     		mov	r4, r0
 1190              	.LVL139:
 568:Drivers/STM32F3xx_HAL_Driver/Src/stm32f3xx_hal_rcc.c ****         
 569:Drivers/STM32F3xx_HAL_Driver/Src/stm32f3xx_hal_rcc.c ****         /* Wait till PLL is ready */
 570:Drivers/STM32F3xx_HAL_Driver/Src/stm32f3xx_hal_rcc.c ****         while(__HAL_RCC_GET_FLAG(RCC_FLAG_PLLRDY)  == RESET)
 1191              		.loc 1 570 0
 1192 0542 04E0     		b	.L69
 1193              	.LVL140:
 1194              	.L72:
 571:Drivers/STM32F3xx_HAL_Driver/Src/stm32f3xx_hal_rcc.c ****         {
 572:Drivers/STM32F3xx_HAL_Driver/Src/stm32f3xx_hal_rcc.c ****           if((HAL_GetTick() - tickstart ) > PLL_TIMEOUT_VALUE)
 1195              		.loc 1 572 0
 1196 0544 FFF7FEFF 		bl	HAL_GetTick
 1197              	.LVL141:
 1198 0548 001B     		subs	r0, r0, r4
 1199 054a 0228     		cmp	r0, #2
 1200 054c 60D8     		bhi	.L92
 1201              	.LVL142:
 1202              	.L69:
 1203              	.LBB244:
 1204              	.LBB245:
 1205              		.loc 2 531 0
 1206 054e 4FF00073 		mov	r3, #33554432
 1207              	@ 531 "Drivers/CMSIS/Include/cmsis_gcc.h" 1
 1208 0552 93FAA3F3 		rbit r3, r3
 1209              	@ 0 "" 2
 1210              		.thumb
 1211              	.LBE245:
 1212              	.LBE244:
ARM GAS  C:\Users\geoma\AppData\Local\Temp\ccuxvdtO.s 			page 42


 570:Drivers/STM32F3xx_HAL_Driver/Src/stm32f3xx_hal_rcc.c ****         {
 1213              		.loc 1 570 0
 1214 0556 2C4B     		ldr	r3, .L97
 1215 0558 1968     		ldr	r1, [r3]
 1216              	.LVL143:
 1217              	.LBB246:
 1218              	.LBB247:
 1219              		.loc 2 531 0
 1220 055a 4FF00073 		mov	r3, #33554432
 1221              	@ 531 "Drivers/CMSIS/Include/cmsis_gcc.h" 1
 1222 055e 93FAA3F3 		rbit r3, r3
 1223              	@ 0 "" 2
 1224              	.LVL144:
 1225              		.thumb
 1226              	.LBE247:
 1227              	.LBE246:
 570:Drivers/STM32F3xx_HAL_Driver/Src/stm32f3xx_hal_rcc.c ****         {
 1228              		.loc 1 570 0
 1229 0562 B3FA83F3 		clz	r3, r3
 1230              	.LVL145:
 1231 0566 03F01F03 		and	r3, r3, #31
 1232 056a 0122     		movs	r2, #1
 1233 056c 02FA03F3 		lsl	r3, r2, r3
 1234 0570 1942     		tst	r1, r3
 1235 0572 E7D0     		beq	.L72
 573:Drivers/STM32F3xx_HAL_Driver/Src/stm32f3xx_hal_rcc.c ****           {
 574:Drivers/STM32F3xx_HAL_Driver/Src/stm32f3xx_hal_rcc.c ****             return HAL_TIMEOUT;
 575:Drivers/STM32F3xx_HAL_Driver/Src/stm32f3xx_hal_rcc.c ****           }
 576:Drivers/STM32F3xx_HAL_Driver/Src/stm32f3xx_hal_rcc.c ****         }
 577:Drivers/STM32F3xx_HAL_Driver/Src/stm32f3xx_hal_rcc.c ****       }
 578:Drivers/STM32F3xx_HAL_Driver/Src/stm32f3xx_hal_rcc.c ****       else
 579:Drivers/STM32F3xx_HAL_Driver/Src/stm32f3xx_hal_rcc.c ****       {
 580:Drivers/STM32F3xx_HAL_Driver/Src/stm32f3xx_hal_rcc.c ****         /* Disable the main PLL. */
 581:Drivers/STM32F3xx_HAL_Driver/Src/stm32f3xx_hal_rcc.c ****         __HAL_RCC_PLL_DISABLE();
 582:Drivers/STM32F3xx_HAL_Driver/Src/stm32f3xx_hal_rcc.c ****  
 583:Drivers/STM32F3xx_HAL_Driver/Src/stm32f3xx_hal_rcc.c ****         /* Get Start Tick */
 584:Drivers/STM32F3xx_HAL_Driver/Src/stm32f3xx_hal_rcc.c ****         tickstart = HAL_GetTick();
 585:Drivers/STM32F3xx_HAL_Driver/Src/stm32f3xx_hal_rcc.c ****         
 586:Drivers/STM32F3xx_HAL_Driver/Src/stm32f3xx_hal_rcc.c ****         /* Wait till PLL is disabled */  
 587:Drivers/STM32F3xx_HAL_Driver/Src/stm32f3xx_hal_rcc.c ****         while(__HAL_RCC_GET_FLAG(RCC_FLAG_PLLRDY)  != RESET)
 588:Drivers/STM32F3xx_HAL_Driver/Src/stm32f3xx_hal_rcc.c ****         {
 589:Drivers/STM32F3xx_HAL_Driver/Src/stm32f3xx_hal_rcc.c ****           if((HAL_GetTick() - tickstart ) > PLL_TIMEOUT_VALUE)
 590:Drivers/STM32F3xx_HAL_Driver/Src/stm32f3xx_hal_rcc.c ****           {
 591:Drivers/STM32F3xx_HAL_Driver/Src/stm32f3xx_hal_rcc.c ****             return HAL_TIMEOUT;
 592:Drivers/STM32F3xx_HAL_Driver/Src/stm32f3xx_hal_rcc.c ****           }
 593:Drivers/STM32F3xx_HAL_Driver/Src/stm32f3xx_hal_rcc.c ****         }
 594:Drivers/STM32F3xx_HAL_Driver/Src/stm32f3xx_hal_rcc.c ****       }
 595:Drivers/STM32F3xx_HAL_Driver/Src/stm32f3xx_hal_rcc.c ****     }
 596:Drivers/STM32F3xx_HAL_Driver/Src/stm32f3xx_hal_rcc.c ****     else
 597:Drivers/STM32F3xx_HAL_Driver/Src/stm32f3xx_hal_rcc.c ****     {
 598:Drivers/STM32F3xx_HAL_Driver/Src/stm32f3xx_hal_rcc.c ****       return HAL_ERROR;
 599:Drivers/STM32F3xx_HAL_Driver/Src/stm32f3xx_hal_rcc.c ****     }
 600:Drivers/STM32F3xx_HAL_Driver/Src/stm32f3xx_hal_rcc.c ****   }
 601:Drivers/STM32F3xx_HAL_Driver/Src/stm32f3xx_hal_rcc.c ****   
 602:Drivers/STM32F3xx_HAL_Driver/Src/stm32f3xx_hal_rcc.c ****   return HAL_OK;
 1236              		.loc 1 602 0
 1237 0574 0020     		movs	r0, #0
ARM GAS  C:\Users\geoma\AppData\Local\Temp\ccuxvdtO.s 			page 43


 1238 0576 4EE0     		b	.L10
 1239              	.LVL146:
 1240              	.L64:
 1241              	.LBB248:
 1242              	.LBB249:
 1243              		.loc 2 531 0
 1244 0578 4FF08073 		mov	r3, #16777216
 1245              	@ 531 "Drivers/CMSIS/Include/cmsis_gcc.h" 1
 1246 057c 93FAA3F3 		rbit r3, r3
 1247              	@ 0 "" 2
 1248              	.LVL147:
 1249              		.thumb
 1250              	.LBE249:
 1251              	.LBE248:
 581:Drivers/STM32F3xx_HAL_Driver/Src/stm32f3xx_hal_rcc.c ****  
 1252              		.loc 1 581 0
 1253 0580 B3FA83F3 		clz	r3, r3
 1254              	.LVL148:
 1255 0584 03F18453 		add	r3, r3, #276824064
 1256 0588 03F58413 		add	r3, r3, #1081344
 1257 058c 9B00     		lsls	r3, r3, #2
 1258 058e 0022     		movs	r2, #0
 1259 0590 1A60     		str	r2, [r3]
 584:Drivers/STM32F3xx_HAL_Driver/Src/stm32f3xx_hal_rcc.c ****         
 1260              		.loc 1 584 0
 1261 0592 FFF7FEFF 		bl	HAL_GetTick
 1262              	.LVL149:
 1263 0596 0446     		mov	r4, r0
 1264              	.LVL150:
 587:Drivers/STM32F3xx_HAL_Driver/Src/stm32f3xx_hal_rcc.c ****         {
 1265              		.loc 1 587 0
 1266 0598 04E0     		b	.L73
 1267              	.LVL151:
 1268              	.L76:
 589:Drivers/STM32F3xx_HAL_Driver/Src/stm32f3xx_hal_rcc.c ****           {
 1269              		.loc 1 589 0
 1270 059a FFF7FEFF 		bl	HAL_GetTick
 1271              	.LVL152:
 1272 059e 001B     		subs	r0, r0, r4
 1273 05a0 0228     		cmp	r0, #2
 1274 05a2 37D8     		bhi	.L93
 1275              	.LVL153:
 1276              	.L73:
 1277              	.LBB250:
 1278              	.LBB251:
 1279              		.loc 2 531 0
 1280 05a4 4FF00073 		mov	r3, #33554432
 1281              	@ 531 "Drivers/CMSIS/Include/cmsis_gcc.h" 1
 1282 05a8 93FAA3F3 		rbit r3, r3
 1283              	@ 0 "" 2
 1284              		.thumb
 1285              	.LBE251:
 1286              	.LBE250:
 587:Drivers/STM32F3xx_HAL_Driver/Src/stm32f3xx_hal_rcc.c ****         {
 1287              		.loc 1 587 0
 1288 05ac 164B     		ldr	r3, .L97
 1289 05ae 1968     		ldr	r1, [r3]
ARM GAS  C:\Users\geoma\AppData\Local\Temp\ccuxvdtO.s 			page 44


 1290              	.LVL154:
 1291              	.LBB252:
 1292              	.LBB253:
 1293              		.loc 2 531 0
 1294 05b0 4FF00073 		mov	r3, #33554432
 1295              	@ 531 "Drivers/CMSIS/Include/cmsis_gcc.h" 1
 1296 05b4 93FAA3F3 		rbit r3, r3
 1297              	@ 0 "" 2
 1298              	.LVL155:
 1299              		.thumb
 1300              	.LBE253:
 1301              	.LBE252:
 587:Drivers/STM32F3xx_HAL_Driver/Src/stm32f3xx_hal_rcc.c ****         {
 1302              		.loc 1 587 0
 1303 05b8 B3FA83F3 		clz	r3, r3
 1304              	.LVL156:
 1305 05bc 03F01F03 		and	r3, r3, #31
 1306 05c0 0122     		movs	r2, #1
 1307 05c2 02FA03F3 		lsl	r3, r2, r3
 1308 05c6 1942     		tst	r1, r3
 1309 05c8 E7D1     		bne	.L76
 1310              		.loc 1 602 0
 1311 05ca 0020     		movs	r0, #0
 1312 05cc 23E0     		b	.L10
 1313              	.LVL157:
 1314              	.L77:
 298:Drivers/STM32F3xx_HAL_Driver/Src/stm32f3xx_hal_rcc.c ****       }
 1315              		.loc 1 298 0
 1316 05ce 0120     		movs	r0, #1
 1317              	.LVL158:
 1318 05d0 21E0     		b	.L10
 1319              	.LVL159:
 1320              	.L78:
 322:Drivers/STM32F3xx_HAL_Driver/Src/stm32f3xx_hal_rcc.c ****           }
 1321              		.loc 1 322 0
 1322 05d2 0320     		movs	r0, #3
 1323 05d4 1FE0     		b	.L10
 1324              	.LVL160:
 1325              	.L79:
 336:Drivers/STM32F3xx_HAL_Driver/Src/stm32f3xx_hal_rcc.c ****           }
 1326              		.loc 1 336 0
 1327 05d6 0320     		movs	r0, #3
 1328 05d8 1DE0     		b	.L10
 1329              	.LVL161:
 1330              	.L80:
 356:Drivers/STM32F3xx_HAL_Driver/Src/stm32f3xx_hal_rcc.c ****       }
 1331              		.loc 1 356 0
 1332 05da 0120     		movs	r0, #1
 1333 05dc 1BE0     		b	.L10
 1334              	.LVL162:
 1335              	.L81:
 381:Drivers/STM32F3xx_HAL_Driver/Src/stm32f3xx_hal_rcc.c ****           }
 1336              		.loc 1 381 0
 1337 05de 0320     		movs	r0, #3
 1338 05e0 19E0     		b	.L10
 1339              	.LVL163:
 1340              	.L82:
ARM GAS  C:\Users\geoma\AppData\Local\Temp\ccuxvdtO.s 			page 45


 401:Drivers/STM32F3xx_HAL_Driver/Src/stm32f3xx_hal_rcc.c ****           }
 1341              		.loc 1 401 0
 1342 05e2 0320     		movs	r0, #3
 1343 05e4 17E0     		b	.L10
 1344              	.LVL164:
 1345              	.L83:
 427:Drivers/STM32F3xx_HAL_Driver/Src/stm32f3xx_hal_rcc.c ****         }
 1346              		.loc 1 427 0
 1347 05e6 0320     		movs	r0, #3
 1348 05e8 15E0     		b	.L10
 1349              	.LVL165:
 1350              	.L84:
 444:Drivers/STM32F3xx_HAL_Driver/Src/stm32f3xx_hal_rcc.c ****         }
 1351              		.loc 1 444 0
 1352 05ea 0320     		movs	r0, #3
 1353 05ec 13E0     		b	.L10
 1354              	.LVL166:
 1355              	.L86:
 1356              	.LBB254:
 477:Drivers/STM32F3xx_HAL_Driver/Src/stm32f3xx_hal_rcc.c ****         }
 1357              		.loc 1 477 0
 1358 05ee 0320     		movs	r0, #3
 1359 05f0 11E0     		b	.L10
 1360              	.LVL167:
 1361              	.L87:
 495:Drivers/STM32F3xx_HAL_Driver/Src/stm32f3xx_hal_rcc.c ****         }
 1362              		.loc 1 495 0
 1363 05f2 0320     		movs	r0, #3
 1364 05f4 0FE0     		b	.L10
 1365              	.LVL168:
 1366              	.L88:
 509:Drivers/STM32F3xx_HAL_Driver/Src/stm32f3xx_hal_rcc.c ****         }
 1367              		.loc 1 509 0
 1368 05f6 0320     		movs	r0, #3
 1369 05f8 0DE0     		b	.L10
 1370              	.LVL169:
 1371              	.L89:
 1372              	.LBE254:
 1373              		.loc 1 602 0
 1374 05fa 0020     		movs	r0, #0
 1375 05fc 0BE0     		b	.L10
 1376              	.L90:
 598:Drivers/STM32F3xx_HAL_Driver/Src/stm32f3xx_hal_rcc.c ****     }
 1377              		.loc 1 598 0
 1378 05fe 0120     		movs	r0, #1
 1379 0600 09E0     		b	.L10
 1380              	.LVL170:
 1381              	.L91:
 549:Drivers/STM32F3xx_HAL_Driver/Src/stm32f3xx_hal_rcc.c ****           }
 1382              		.loc 1 549 0
 1383 0602 0320     		movs	r0, #3
 1384 0604 07E0     		b	.L10
 1385              	.L98:
 1386 0606 00BF     		.align	2
 1387              	.L97:
 1388 0608 00100240 		.word	1073876992
 1389 060c 00700040 		.word	1073770496
ARM GAS  C:\Users\geoma\AppData\Local\Temp\ccuxvdtO.s 			page 46


 1390              	.LVL171:
 1391              	.L92:
 574:Drivers/STM32F3xx_HAL_Driver/Src/stm32f3xx_hal_rcc.c ****           }
 1392              		.loc 1 574 0
 1393 0610 0320     		movs	r0, #3
 1394 0612 00E0     		b	.L10
 1395              	.LVL172:
 1396              	.L93:
 591:Drivers/STM32F3xx_HAL_Driver/Src/stm32f3xx_hal_rcc.c ****           }
 1397              		.loc 1 591 0
 1398 0614 0320     		movs	r0, #3
 1399              	.LVL173:
 1400              	.L10:
 603:Drivers/STM32F3xx_HAL_Driver/Src/stm32f3xx_hal_rcc.c **** }
 1401              		.loc 1 603 0
 1402 0616 02B0     		add	sp, sp, #8
 1403              	.LCFI2:
 1404              		.cfi_def_cfa_offset 16
 1405              		@ sp needed
 1406 0618 70BD     		pop	{r4, r5, r6, pc}
 1407              		.cfi_endproc
 1408              	.LFE124:
 1410 061a 00BF     		.section	.text.HAL_RCC_MCOConfig,"ax",%progbits
 1411              		.align	2
 1412              		.global	HAL_RCC_MCOConfig
 1413              		.thumb
 1414              		.thumb_func
 1416              	HAL_RCC_MCOConfig:
 1417              	.LFB126:
 604:Drivers/STM32F3xx_HAL_Driver/Src/stm32f3xx_hal_rcc.c **** 
 605:Drivers/STM32F3xx_HAL_Driver/Src/stm32f3xx_hal_rcc.c **** /**
 606:Drivers/STM32F3xx_HAL_Driver/Src/stm32f3xx_hal_rcc.c ****   * @brief  Initializes the CPU, AHB and APB buses clocks according to the specified 
 607:Drivers/STM32F3xx_HAL_Driver/Src/stm32f3xx_hal_rcc.c ****   *         parameters in the RCC_ClkInitStruct.
 608:Drivers/STM32F3xx_HAL_Driver/Src/stm32f3xx_hal_rcc.c ****   * @param  RCC_ClkInitStruct pointer to an RCC_OscInitTypeDef structure that
 609:Drivers/STM32F3xx_HAL_Driver/Src/stm32f3xx_hal_rcc.c ****   *         contains the configuration information for the RCC peripheral.
 610:Drivers/STM32F3xx_HAL_Driver/Src/stm32f3xx_hal_rcc.c ****   * @param  FLatency FLASH Latency                   
 611:Drivers/STM32F3xx_HAL_Driver/Src/stm32f3xx_hal_rcc.c ****   *          The value of this parameter depend on device used within the same series
 612:Drivers/STM32F3xx_HAL_Driver/Src/stm32f3xx_hal_rcc.c ****   * @note   The SystemCoreClock CMSIS variable is used to store System Clock Frequency 
 613:Drivers/STM32F3xx_HAL_Driver/Src/stm32f3xx_hal_rcc.c ****   *         and updated by @ref HAL_RCC_GetHCLKFreq() function called within this function
 614:Drivers/STM32F3xx_HAL_Driver/Src/stm32f3xx_hal_rcc.c ****   *
 615:Drivers/STM32F3xx_HAL_Driver/Src/stm32f3xx_hal_rcc.c ****   * @note   The HSI is used (enabled by hardware) as system clock source after
 616:Drivers/STM32F3xx_HAL_Driver/Src/stm32f3xx_hal_rcc.c ****   *         start-up from Reset, wake-up from STOP and STANDBY mode, or in case
 617:Drivers/STM32F3xx_HAL_Driver/Src/stm32f3xx_hal_rcc.c ****   *         of failure of the HSE used directly or indirectly as system clock
 618:Drivers/STM32F3xx_HAL_Driver/Src/stm32f3xx_hal_rcc.c ****   *         (if the Clock Security System CSS is enabled).
 619:Drivers/STM32F3xx_HAL_Driver/Src/stm32f3xx_hal_rcc.c ****   *           
 620:Drivers/STM32F3xx_HAL_Driver/Src/stm32f3xx_hal_rcc.c ****   * @note   A switch from one clock source to another occurs only if the target
 621:Drivers/STM32F3xx_HAL_Driver/Src/stm32f3xx_hal_rcc.c ****   *         clock source is ready (clock stable after start-up delay or PLL locked). 
 622:Drivers/STM32F3xx_HAL_Driver/Src/stm32f3xx_hal_rcc.c ****   *         If a clock source which is not yet ready is selected, the switch will
 623:Drivers/STM32F3xx_HAL_Driver/Src/stm32f3xx_hal_rcc.c ****   *         occur when the clock source will be ready. 
 624:Drivers/STM32F3xx_HAL_Driver/Src/stm32f3xx_hal_rcc.c ****   *         You can use @ref HAL_RCC_GetClockConfig() function to know which clock is
 625:Drivers/STM32F3xx_HAL_Driver/Src/stm32f3xx_hal_rcc.c ****   *         currently used as system clock source.
 626:Drivers/STM32F3xx_HAL_Driver/Src/stm32f3xx_hal_rcc.c ****   * @retval HAL status
 627:Drivers/STM32F3xx_HAL_Driver/Src/stm32f3xx_hal_rcc.c ****   */
 628:Drivers/STM32F3xx_HAL_Driver/Src/stm32f3xx_hal_rcc.c **** HAL_StatusTypeDef HAL_RCC_ClockConfig(RCC_ClkInitTypeDef  *RCC_ClkInitStruct, uint32_t FLatency)
 629:Drivers/STM32F3xx_HAL_Driver/Src/stm32f3xx_hal_rcc.c **** {
 630:Drivers/STM32F3xx_HAL_Driver/Src/stm32f3xx_hal_rcc.c ****   uint32_t tickstart = 0U;
 631:Drivers/STM32F3xx_HAL_Driver/Src/stm32f3xx_hal_rcc.c ****   
ARM GAS  C:\Users\geoma\AppData\Local\Temp\ccuxvdtO.s 			page 47


 632:Drivers/STM32F3xx_HAL_Driver/Src/stm32f3xx_hal_rcc.c ****   /* Check the parameters */
 633:Drivers/STM32F3xx_HAL_Driver/Src/stm32f3xx_hal_rcc.c ****   assert_param(RCC_ClkInitStruct != NULL);
 634:Drivers/STM32F3xx_HAL_Driver/Src/stm32f3xx_hal_rcc.c ****   assert_param(IS_RCC_CLOCKTYPE(RCC_ClkInitStruct->ClockType));
 635:Drivers/STM32F3xx_HAL_Driver/Src/stm32f3xx_hal_rcc.c ****   assert_param(IS_FLASH_LATENCY(FLatency));
 636:Drivers/STM32F3xx_HAL_Driver/Src/stm32f3xx_hal_rcc.c **** 
 637:Drivers/STM32F3xx_HAL_Driver/Src/stm32f3xx_hal_rcc.c ****   /* To correctly read data from FLASH memory, the number of wait states (LATENCY) 
 638:Drivers/STM32F3xx_HAL_Driver/Src/stm32f3xx_hal_rcc.c ****   must be correctly programmed according to the frequency of the CPU clock 
 639:Drivers/STM32F3xx_HAL_Driver/Src/stm32f3xx_hal_rcc.c ****     (HCLK) of the device. */
 640:Drivers/STM32F3xx_HAL_Driver/Src/stm32f3xx_hal_rcc.c **** 
 641:Drivers/STM32F3xx_HAL_Driver/Src/stm32f3xx_hal_rcc.c ****   /* Increasing the number of wait states because of higher CPU frequency */
 642:Drivers/STM32F3xx_HAL_Driver/Src/stm32f3xx_hal_rcc.c ****   if(FLatency > (FLASH->ACR & FLASH_ACR_LATENCY))
 643:Drivers/STM32F3xx_HAL_Driver/Src/stm32f3xx_hal_rcc.c ****   {    
 644:Drivers/STM32F3xx_HAL_Driver/Src/stm32f3xx_hal_rcc.c ****     /* Program the new number of wait states to the LATENCY bits in the FLASH_ACR register */
 645:Drivers/STM32F3xx_HAL_Driver/Src/stm32f3xx_hal_rcc.c ****     __HAL_FLASH_SET_LATENCY(FLatency);
 646:Drivers/STM32F3xx_HAL_Driver/Src/stm32f3xx_hal_rcc.c ****     
 647:Drivers/STM32F3xx_HAL_Driver/Src/stm32f3xx_hal_rcc.c ****     /* Check that the new number of wait states is taken into account to access the Flash
 648:Drivers/STM32F3xx_HAL_Driver/Src/stm32f3xx_hal_rcc.c ****     memory by reading the FLASH_ACR register */
 649:Drivers/STM32F3xx_HAL_Driver/Src/stm32f3xx_hal_rcc.c ****     if((FLASH->ACR & FLASH_ACR_LATENCY) != FLatency)
 650:Drivers/STM32F3xx_HAL_Driver/Src/stm32f3xx_hal_rcc.c ****     {
 651:Drivers/STM32F3xx_HAL_Driver/Src/stm32f3xx_hal_rcc.c ****       return HAL_ERROR;
 652:Drivers/STM32F3xx_HAL_Driver/Src/stm32f3xx_hal_rcc.c ****     }
 653:Drivers/STM32F3xx_HAL_Driver/Src/stm32f3xx_hal_rcc.c ****   }
 654:Drivers/STM32F3xx_HAL_Driver/Src/stm32f3xx_hal_rcc.c **** 
 655:Drivers/STM32F3xx_HAL_Driver/Src/stm32f3xx_hal_rcc.c ****   /*-------------------------- HCLK Configuration --------------------------*/
 656:Drivers/STM32F3xx_HAL_Driver/Src/stm32f3xx_hal_rcc.c ****   if(((RCC_ClkInitStruct->ClockType) & RCC_CLOCKTYPE_HCLK) == RCC_CLOCKTYPE_HCLK)
 657:Drivers/STM32F3xx_HAL_Driver/Src/stm32f3xx_hal_rcc.c ****   {
 658:Drivers/STM32F3xx_HAL_Driver/Src/stm32f3xx_hal_rcc.c ****     assert_param(IS_RCC_HCLK(RCC_ClkInitStruct->AHBCLKDivider));
 659:Drivers/STM32F3xx_HAL_Driver/Src/stm32f3xx_hal_rcc.c ****     MODIFY_REG(RCC->CFGR, RCC_CFGR_HPRE, RCC_ClkInitStruct->AHBCLKDivider);
 660:Drivers/STM32F3xx_HAL_Driver/Src/stm32f3xx_hal_rcc.c ****   }
 661:Drivers/STM32F3xx_HAL_Driver/Src/stm32f3xx_hal_rcc.c **** 
 662:Drivers/STM32F3xx_HAL_Driver/Src/stm32f3xx_hal_rcc.c ****   /*------------------------- SYSCLK Configuration ---------------------------*/ 
 663:Drivers/STM32F3xx_HAL_Driver/Src/stm32f3xx_hal_rcc.c ****   if(((RCC_ClkInitStruct->ClockType) & RCC_CLOCKTYPE_SYSCLK) == RCC_CLOCKTYPE_SYSCLK)
 664:Drivers/STM32F3xx_HAL_Driver/Src/stm32f3xx_hal_rcc.c ****   {    
 665:Drivers/STM32F3xx_HAL_Driver/Src/stm32f3xx_hal_rcc.c ****     assert_param(IS_RCC_SYSCLKSOURCE(RCC_ClkInitStruct->SYSCLKSource));
 666:Drivers/STM32F3xx_HAL_Driver/Src/stm32f3xx_hal_rcc.c ****     
 667:Drivers/STM32F3xx_HAL_Driver/Src/stm32f3xx_hal_rcc.c ****     /* HSE is selected as System Clock Source */
 668:Drivers/STM32F3xx_HAL_Driver/Src/stm32f3xx_hal_rcc.c ****     if(RCC_ClkInitStruct->SYSCLKSource == RCC_SYSCLKSOURCE_HSE)
 669:Drivers/STM32F3xx_HAL_Driver/Src/stm32f3xx_hal_rcc.c ****     {
 670:Drivers/STM32F3xx_HAL_Driver/Src/stm32f3xx_hal_rcc.c ****       /* Check the HSE ready flag */  
 671:Drivers/STM32F3xx_HAL_Driver/Src/stm32f3xx_hal_rcc.c ****       if(__HAL_RCC_GET_FLAG(RCC_FLAG_HSERDY) == RESET)
 672:Drivers/STM32F3xx_HAL_Driver/Src/stm32f3xx_hal_rcc.c ****       {
 673:Drivers/STM32F3xx_HAL_Driver/Src/stm32f3xx_hal_rcc.c ****         return HAL_ERROR;
 674:Drivers/STM32F3xx_HAL_Driver/Src/stm32f3xx_hal_rcc.c ****       }
 675:Drivers/STM32F3xx_HAL_Driver/Src/stm32f3xx_hal_rcc.c ****     }
 676:Drivers/STM32F3xx_HAL_Driver/Src/stm32f3xx_hal_rcc.c ****     /* PLL is selected as System Clock Source */
 677:Drivers/STM32F3xx_HAL_Driver/Src/stm32f3xx_hal_rcc.c ****     else if(RCC_ClkInitStruct->SYSCLKSource == RCC_SYSCLKSOURCE_PLLCLK)
 678:Drivers/STM32F3xx_HAL_Driver/Src/stm32f3xx_hal_rcc.c ****     {
 679:Drivers/STM32F3xx_HAL_Driver/Src/stm32f3xx_hal_rcc.c ****       /* Check the PLL ready flag */  
 680:Drivers/STM32F3xx_HAL_Driver/Src/stm32f3xx_hal_rcc.c ****       if(__HAL_RCC_GET_FLAG(RCC_FLAG_PLLRDY) == RESET)
 681:Drivers/STM32F3xx_HAL_Driver/Src/stm32f3xx_hal_rcc.c ****       {
 682:Drivers/STM32F3xx_HAL_Driver/Src/stm32f3xx_hal_rcc.c ****         return HAL_ERROR;
 683:Drivers/STM32F3xx_HAL_Driver/Src/stm32f3xx_hal_rcc.c ****       }
 684:Drivers/STM32F3xx_HAL_Driver/Src/stm32f3xx_hal_rcc.c ****     }
 685:Drivers/STM32F3xx_HAL_Driver/Src/stm32f3xx_hal_rcc.c ****     /* HSI is selected as System Clock Source */
 686:Drivers/STM32F3xx_HAL_Driver/Src/stm32f3xx_hal_rcc.c ****     else
 687:Drivers/STM32F3xx_HAL_Driver/Src/stm32f3xx_hal_rcc.c ****     {
 688:Drivers/STM32F3xx_HAL_Driver/Src/stm32f3xx_hal_rcc.c ****       /* Check the HSI ready flag */  
ARM GAS  C:\Users\geoma\AppData\Local\Temp\ccuxvdtO.s 			page 48


 689:Drivers/STM32F3xx_HAL_Driver/Src/stm32f3xx_hal_rcc.c ****       if(__HAL_RCC_GET_FLAG(RCC_FLAG_HSIRDY) == RESET)
 690:Drivers/STM32F3xx_HAL_Driver/Src/stm32f3xx_hal_rcc.c ****       {
 691:Drivers/STM32F3xx_HAL_Driver/Src/stm32f3xx_hal_rcc.c ****         return HAL_ERROR;
 692:Drivers/STM32F3xx_HAL_Driver/Src/stm32f3xx_hal_rcc.c ****       }
 693:Drivers/STM32F3xx_HAL_Driver/Src/stm32f3xx_hal_rcc.c ****     }
 694:Drivers/STM32F3xx_HAL_Driver/Src/stm32f3xx_hal_rcc.c ****     __HAL_RCC_SYSCLK_CONFIG(RCC_ClkInitStruct->SYSCLKSource);
 695:Drivers/STM32F3xx_HAL_Driver/Src/stm32f3xx_hal_rcc.c **** 
 696:Drivers/STM32F3xx_HAL_Driver/Src/stm32f3xx_hal_rcc.c ****     /* Get Start Tick */
 697:Drivers/STM32F3xx_HAL_Driver/Src/stm32f3xx_hal_rcc.c ****     tickstart = HAL_GetTick();
 698:Drivers/STM32F3xx_HAL_Driver/Src/stm32f3xx_hal_rcc.c ****     
 699:Drivers/STM32F3xx_HAL_Driver/Src/stm32f3xx_hal_rcc.c ****     if(RCC_ClkInitStruct->SYSCLKSource == RCC_SYSCLKSOURCE_HSE)
 700:Drivers/STM32F3xx_HAL_Driver/Src/stm32f3xx_hal_rcc.c ****     {
 701:Drivers/STM32F3xx_HAL_Driver/Src/stm32f3xx_hal_rcc.c ****       while (__HAL_RCC_GET_SYSCLK_SOURCE() != RCC_SYSCLKSOURCE_STATUS_HSE)
 702:Drivers/STM32F3xx_HAL_Driver/Src/stm32f3xx_hal_rcc.c ****       {
 703:Drivers/STM32F3xx_HAL_Driver/Src/stm32f3xx_hal_rcc.c ****         if((HAL_GetTick() - tickstart ) > CLOCKSWITCH_TIMEOUT_VALUE)
 704:Drivers/STM32F3xx_HAL_Driver/Src/stm32f3xx_hal_rcc.c ****         {
 705:Drivers/STM32F3xx_HAL_Driver/Src/stm32f3xx_hal_rcc.c ****           return HAL_TIMEOUT;
 706:Drivers/STM32F3xx_HAL_Driver/Src/stm32f3xx_hal_rcc.c ****         }
 707:Drivers/STM32F3xx_HAL_Driver/Src/stm32f3xx_hal_rcc.c ****       }
 708:Drivers/STM32F3xx_HAL_Driver/Src/stm32f3xx_hal_rcc.c ****     }
 709:Drivers/STM32F3xx_HAL_Driver/Src/stm32f3xx_hal_rcc.c ****     else if(RCC_ClkInitStruct->SYSCLKSource == RCC_SYSCLKSOURCE_PLLCLK)
 710:Drivers/STM32F3xx_HAL_Driver/Src/stm32f3xx_hal_rcc.c ****     {
 711:Drivers/STM32F3xx_HAL_Driver/Src/stm32f3xx_hal_rcc.c ****       while (__HAL_RCC_GET_SYSCLK_SOURCE() != RCC_SYSCLKSOURCE_STATUS_PLLCLK)
 712:Drivers/STM32F3xx_HAL_Driver/Src/stm32f3xx_hal_rcc.c ****       {
 713:Drivers/STM32F3xx_HAL_Driver/Src/stm32f3xx_hal_rcc.c ****         if((HAL_GetTick() - tickstart ) > CLOCKSWITCH_TIMEOUT_VALUE)
 714:Drivers/STM32F3xx_HAL_Driver/Src/stm32f3xx_hal_rcc.c ****         {
 715:Drivers/STM32F3xx_HAL_Driver/Src/stm32f3xx_hal_rcc.c ****           return HAL_TIMEOUT;
 716:Drivers/STM32F3xx_HAL_Driver/Src/stm32f3xx_hal_rcc.c ****         }
 717:Drivers/STM32F3xx_HAL_Driver/Src/stm32f3xx_hal_rcc.c ****       }
 718:Drivers/STM32F3xx_HAL_Driver/Src/stm32f3xx_hal_rcc.c ****     }
 719:Drivers/STM32F3xx_HAL_Driver/Src/stm32f3xx_hal_rcc.c ****     else
 720:Drivers/STM32F3xx_HAL_Driver/Src/stm32f3xx_hal_rcc.c ****     {
 721:Drivers/STM32F3xx_HAL_Driver/Src/stm32f3xx_hal_rcc.c ****       while (__HAL_RCC_GET_SYSCLK_SOURCE() != RCC_SYSCLKSOURCE_STATUS_HSI)
 722:Drivers/STM32F3xx_HAL_Driver/Src/stm32f3xx_hal_rcc.c ****       {
 723:Drivers/STM32F3xx_HAL_Driver/Src/stm32f3xx_hal_rcc.c ****         if((HAL_GetTick() - tickstart ) > CLOCKSWITCH_TIMEOUT_VALUE)
 724:Drivers/STM32F3xx_HAL_Driver/Src/stm32f3xx_hal_rcc.c ****         {
 725:Drivers/STM32F3xx_HAL_Driver/Src/stm32f3xx_hal_rcc.c ****           return HAL_TIMEOUT;
 726:Drivers/STM32F3xx_HAL_Driver/Src/stm32f3xx_hal_rcc.c ****         }
 727:Drivers/STM32F3xx_HAL_Driver/Src/stm32f3xx_hal_rcc.c ****       }
 728:Drivers/STM32F3xx_HAL_Driver/Src/stm32f3xx_hal_rcc.c ****     }      
 729:Drivers/STM32F3xx_HAL_Driver/Src/stm32f3xx_hal_rcc.c ****   }    
 730:Drivers/STM32F3xx_HAL_Driver/Src/stm32f3xx_hal_rcc.c ****   /* Decreasing the number of wait states because of lower CPU frequency */
 731:Drivers/STM32F3xx_HAL_Driver/Src/stm32f3xx_hal_rcc.c ****   if(FLatency < (FLASH->ACR & FLASH_ACR_LATENCY))
 732:Drivers/STM32F3xx_HAL_Driver/Src/stm32f3xx_hal_rcc.c ****   {    
 733:Drivers/STM32F3xx_HAL_Driver/Src/stm32f3xx_hal_rcc.c ****     /* Program the new number of wait states to the LATENCY bits in the FLASH_ACR register */
 734:Drivers/STM32F3xx_HAL_Driver/Src/stm32f3xx_hal_rcc.c ****     __HAL_FLASH_SET_LATENCY(FLatency);
 735:Drivers/STM32F3xx_HAL_Driver/Src/stm32f3xx_hal_rcc.c ****     
 736:Drivers/STM32F3xx_HAL_Driver/Src/stm32f3xx_hal_rcc.c ****     /* Check that the new number of wait states is taken into account to access the Flash
 737:Drivers/STM32F3xx_HAL_Driver/Src/stm32f3xx_hal_rcc.c ****     memory by reading the FLASH_ACR register */
 738:Drivers/STM32F3xx_HAL_Driver/Src/stm32f3xx_hal_rcc.c ****     if((FLASH->ACR & FLASH_ACR_LATENCY) != FLatency)
 739:Drivers/STM32F3xx_HAL_Driver/Src/stm32f3xx_hal_rcc.c ****     {
 740:Drivers/STM32F3xx_HAL_Driver/Src/stm32f3xx_hal_rcc.c ****       return HAL_ERROR;
 741:Drivers/STM32F3xx_HAL_Driver/Src/stm32f3xx_hal_rcc.c ****     }
 742:Drivers/STM32F3xx_HAL_Driver/Src/stm32f3xx_hal_rcc.c ****   }    
 743:Drivers/STM32F3xx_HAL_Driver/Src/stm32f3xx_hal_rcc.c **** 
 744:Drivers/STM32F3xx_HAL_Driver/Src/stm32f3xx_hal_rcc.c ****   /*-------------------------- PCLK1 Configuration ---------------------------*/ 
 745:Drivers/STM32F3xx_HAL_Driver/Src/stm32f3xx_hal_rcc.c ****   if(((RCC_ClkInitStruct->ClockType) & RCC_CLOCKTYPE_PCLK1) == RCC_CLOCKTYPE_PCLK1)
ARM GAS  C:\Users\geoma\AppData\Local\Temp\ccuxvdtO.s 			page 49


 746:Drivers/STM32F3xx_HAL_Driver/Src/stm32f3xx_hal_rcc.c ****   {
 747:Drivers/STM32F3xx_HAL_Driver/Src/stm32f3xx_hal_rcc.c ****     assert_param(IS_RCC_PCLK(RCC_ClkInitStruct->APB1CLKDivider));
 748:Drivers/STM32F3xx_HAL_Driver/Src/stm32f3xx_hal_rcc.c ****     MODIFY_REG(RCC->CFGR, RCC_CFGR_PPRE1, RCC_ClkInitStruct->APB1CLKDivider);
 749:Drivers/STM32F3xx_HAL_Driver/Src/stm32f3xx_hal_rcc.c ****   }
 750:Drivers/STM32F3xx_HAL_Driver/Src/stm32f3xx_hal_rcc.c ****   
 751:Drivers/STM32F3xx_HAL_Driver/Src/stm32f3xx_hal_rcc.c ****   /*-------------------------- PCLK2 Configuration ---------------------------*/ 
 752:Drivers/STM32F3xx_HAL_Driver/Src/stm32f3xx_hal_rcc.c ****   if(((RCC_ClkInitStruct->ClockType) & RCC_CLOCKTYPE_PCLK2) == RCC_CLOCKTYPE_PCLK2)
 753:Drivers/STM32F3xx_HAL_Driver/Src/stm32f3xx_hal_rcc.c ****   {
 754:Drivers/STM32F3xx_HAL_Driver/Src/stm32f3xx_hal_rcc.c ****     assert_param(IS_RCC_PCLK(RCC_ClkInitStruct->APB2CLKDivider));
 755:Drivers/STM32F3xx_HAL_Driver/Src/stm32f3xx_hal_rcc.c ****     MODIFY_REG(RCC->CFGR, RCC_CFGR_PPRE2, ((RCC_ClkInitStruct->APB2CLKDivider) << 3U));
 756:Drivers/STM32F3xx_HAL_Driver/Src/stm32f3xx_hal_rcc.c ****   }
 757:Drivers/STM32F3xx_HAL_Driver/Src/stm32f3xx_hal_rcc.c ****  
 758:Drivers/STM32F3xx_HAL_Driver/Src/stm32f3xx_hal_rcc.c ****   /* Update the SystemCoreClock global variable */
 759:Drivers/STM32F3xx_HAL_Driver/Src/stm32f3xx_hal_rcc.c ****   SystemCoreClock = HAL_RCC_GetSysClockFreq() >> AHBPrescTable[(RCC->CFGR & RCC_CFGR_HPRE)>> RCC_CF
 760:Drivers/STM32F3xx_HAL_Driver/Src/stm32f3xx_hal_rcc.c **** 
 761:Drivers/STM32F3xx_HAL_Driver/Src/stm32f3xx_hal_rcc.c ****   /* Configure the source of time base considering new system clocks settings*/
 762:Drivers/STM32F3xx_HAL_Driver/Src/stm32f3xx_hal_rcc.c ****   HAL_InitTick (TICK_INT_PRIORITY);
 763:Drivers/STM32F3xx_HAL_Driver/Src/stm32f3xx_hal_rcc.c ****   
 764:Drivers/STM32F3xx_HAL_Driver/Src/stm32f3xx_hal_rcc.c ****   return HAL_OK;
 765:Drivers/STM32F3xx_HAL_Driver/Src/stm32f3xx_hal_rcc.c **** }
 766:Drivers/STM32F3xx_HAL_Driver/Src/stm32f3xx_hal_rcc.c **** 
 767:Drivers/STM32F3xx_HAL_Driver/Src/stm32f3xx_hal_rcc.c **** /**
 768:Drivers/STM32F3xx_HAL_Driver/Src/stm32f3xx_hal_rcc.c ****   * @}
 769:Drivers/STM32F3xx_HAL_Driver/Src/stm32f3xx_hal_rcc.c ****   */
 770:Drivers/STM32F3xx_HAL_Driver/Src/stm32f3xx_hal_rcc.c **** 
 771:Drivers/STM32F3xx_HAL_Driver/Src/stm32f3xx_hal_rcc.c **** /** @defgroup RCC_Exported_Functions_Group2 Peripheral Control functions
 772:Drivers/STM32F3xx_HAL_Driver/Src/stm32f3xx_hal_rcc.c ****   *  @brief   RCC clocks control functions
 773:Drivers/STM32F3xx_HAL_Driver/Src/stm32f3xx_hal_rcc.c ****   *
 774:Drivers/STM32F3xx_HAL_Driver/Src/stm32f3xx_hal_rcc.c ****   @verbatim   
 775:Drivers/STM32F3xx_HAL_Driver/Src/stm32f3xx_hal_rcc.c ****   ===============================================================================
 776:Drivers/STM32F3xx_HAL_Driver/Src/stm32f3xx_hal_rcc.c ****                   ##### Peripheral Control functions #####
 777:Drivers/STM32F3xx_HAL_Driver/Src/stm32f3xx_hal_rcc.c ****   ===============================================================================  
 778:Drivers/STM32F3xx_HAL_Driver/Src/stm32f3xx_hal_rcc.c ****     [..]
 779:Drivers/STM32F3xx_HAL_Driver/Src/stm32f3xx_hal_rcc.c ****     This subsection provides a set of functions allowing to control the RCC Clocks 
 780:Drivers/STM32F3xx_HAL_Driver/Src/stm32f3xx_hal_rcc.c ****     frequencies.
 781:Drivers/STM32F3xx_HAL_Driver/Src/stm32f3xx_hal_rcc.c **** 
 782:Drivers/STM32F3xx_HAL_Driver/Src/stm32f3xx_hal_rcc.c ****   @endverbatim
 783:Drivers/STM32F3xx_HAL_Driver/Src/stm32f3xx_hal_rcc.c ****   * @{
 784:Drivers/STM32F3xx_HAL_Driver/Src/stm32f3xx_hal_rcc.c ****   */
 785:Drivers/STM32F3xx_HAL_Driver/Src/stm32f3xx_hal_rcc.c **** 
 786:Drivers/STM32F3xx_HAL_Driver/Src/stm32f3xx_hal_rcc.c **** #if defined(RCC_CFGR_MCOPRE)
 787:Drivers/STM32F3xx_HAL_Driver/Src/stm32f3xx_hal_rcc.c **** /**
 788:Drivers/STM32F3xx_HAL_Driver/Src/stm32f3xx_hal_rcc.c ****   * @brief  Selects the clock source to output on MCO pin.
 789:Drivers/STM32F3xx_HAL_Driver/Src/stm32f3xx_hal_rcc.c ****   * @note   MCO pin should be configured in alternate function mode.
 790:Drivers/STM32F3xx_HAL_Driver/Src/stm32f3xx_hal_rcc.c ****   * @param  RCC_MCOx specifies the output direction for the clock source.
 791:Drivers/STM32F3xx_HAL_Driver/Src/stm32f3xx_hal_rcc.c ****   *          This parameter can be one of the following values:
 792:Drivers/STM32F3xx_HAL_Driver/Src/stm32f3xx_hal_rcc.c ****   *            @arg @ref RCC_MCO1 Clock source to output on MCO1 pin(PA8).
 793:Drivers/STM32F3xx_HAL_Driver/Src/stm32f3xx_hal_rcc.c ****   * @param  RCC_MCOSource specifies the clock source to output.
 794:Drivers/STM32F3xx_HAL_Driver/Src/stm32f3xx_hal_rcc.c ****   *          This parameter can be one of the following values:
 795:Drivers/STM32F3xx_HAL_Driver/Src/stm32f3xx_hal_rcc.c ****   *            @arg @ref RCC_MCO1SOURCE_NOCLOCK     No clock selected
 796:Drivers/STM32F3xx_HAL_Driver/Src/stm32f3xx_hal_rcc.c ****   *            @arg @ref RCC_MCO1SOURCE_SYSCLK      System Clock selected as MCO clock
 797:Drivers/STM32F3xx_HAL_Driver/Src/stm32f3xx_hal_rcc.c ****   *            @arg @ref RCC_MCO1SOURCE_HSI         HSI selected as MCO clock
 798:Drivers/STM32F3xx_HAL_Driver/Src/stm32f3xx_hal_rcc.c ****   *            @arg @ref RCC_MCO1SOURCE_HSE         HSE selected as MCO clock
 799:Drivers/STM32F3xx_HAL_Driver/Src/stm32f3xx_hal_rcc.c ****   *            @arg @ref RCC_MCO1SOURCE_LSI         LSI selected as MCO clock
 800:Drivers/STM32F3xx_HAL_Driver/Src/stm32f3xx_hal_rcc.c ****   *            @arg @ref RCC_MCO1SOURCE_LSE         LSE selected as MCO clock
 801:Drivers/STM32F3xx_HAL_Driver/Src/stm32f3xx_hal_rcc.c ****   *            @arg @ref RCC_MCO1SOURCE_PLLCLK      PLLCLK selected as MCO clock
 802:Drivers/STM32F3xx_HAL_Driver/Src/stm32f3xx_hal_rcc.c ****   *            @arg @ref RCC_MCO1SOURCE_PLLCLK_DIV2 PLLCLK Divided by 2 selected as MCO clock
ARM GAS  C:\Users\geoma\AppData\Local\Temp\ccuxvdtO.s 			page 50


 803:Drivers/STM32F3xx_HAL_Driver/Src/stm32f3xx_hal_rcc.c ****   * @param  RCC_MCODiv specifies the MCO DIV.
 804:Drivers/STM32F3xx_HAL_Driver/Src/stm32f3xx_hal_rcc.c ****   *          This parameter can be one of the following values:
 805:Drivers/STM32F3xx_HAL_Driver/Src/stm32f3xx_hal_rcc.c ****   *            @arg @ref RCC_MCODIV_1   no division applied to MCO clock
 806:Drivers/STM32F3xx_HAL_Driver/Src/stm32f3xx_hal_rcc.c ****   *            @arg @ref RCC_MCODIV_2   division by 2 applied to MCO clock
 807:Drivers/STM32F3xx_HAL_Driver/Src/stm32f3xx_hal_rcc.c ****   *            @arg @ref RCC_MCODIV_4   division by 4 applied to MCO clock
 808:Drivers/STM32F3xx_HAL_Driver/Src/stm32f3xx_hal_rcc.c ****   *            @arg @ref RCC_MCODIV_8   division by 8 applied to MCO clock
 809:Drivers/STM32F3xx_HAL_Driver/Src/stm32f3xx_hal_rcc.c ****   *            @arg @ref RCC_MCODIV_16  division by 16 applied to MCO clock
 810:Drivers/STM32F3xx_HAL_Driver/Src/stm32f3xx_hal_rcc.c ****   *            @arg @ref RCC_MCODIV_32  division by 32 applied to MCO clock
 811:Drivers/STM32F3xx_HAL_Driver/Src/stm32f3xx_hal_rcc.c ****   *            @arg @ref RCC_MCODIV_64  division by 64 applied to MCO clock
 812:Drivers/STM32F3xx_HAL_Driver/Src/stm32f3xx_hal_rcc.c ****   *            @arg @ref RCC_MCODIV_128 division by 128 applied to MCO clock
 813:Drivers/STM32F3xx_HAL_Driver/Src/stm32f3xx_hal_rcc.c ****   * @retval None
 814:Drivers/STM32F3xx_HAL_Driver/Src/stm32f3xx_hal_rcc.c ****   */
 815:Drivers/STM32F3xx_HAL_Driver/Src/stm32f3xx_hal_rcc.c **** #else
 816:Drivers/STM32F3xx_HAL_Driver/Src/stm32f3xx_hal_rcc.c **** /**
 817:Drivers/STM32F3xx_HAL_Driver/Src/stm32f3xx_hal_rcc.c ****   * @brief  Selects the clock source to output on MCO pin.
 818:Drivers/STM32F3xx_HAL_Driver/Src/stm32f3xx_hal_rcc.c ****   * @note   MCO pin should be configured in alternate function mode.
 819:Drivers/STM32F3xx_HAL_Driver/Src/stm32f3xx_hal_rcc.c ****   * @param  RCC_MCOx specifies the output direction for the clock source.
 820:Drivers/STM32F3xx_HAL_Driver/Src/stm32f3xx_hal_rcc.c ****   *          This parameter can be one of the following values:
 821:Drivers/STM32F3xx_HAL_Driver/Src/stm32f3xx_hal_rcc.c ****   *            @arg @ref RCC_MCO1 Clock source to output on MCO1 pin(PA8).
 822:Drivers/STM32F3xx_HAL_Driver/Src/stm32f3xx_hal_rcc.c ****   * @param  RCC_MCOSource specifies the clock source to output.
 823:Drivers/STM32F3xx_HAL_Driver/Src/stm32f3xx_hal_rcc.c ****   *          This parameter can be one of the following values:
 824:Drivers/STM32F3xx_HAL_Driver/Src/stm32f3xx_hal_rcc.c ****   *            @arg @ref RCC_MCO1SOURCE_NOCLOCK     No clock selected as MCO clock
 825:Drivers/STM32F3xx_HAL_Driver/Src/stm32f3xx_hal_rcc.c ****   *            @arg @ref RCC_MCO1SOURCE_SYSCLK      System clock selected as MCO clock
 826:Drivers/STM32F3xx_HAL_Driver/Src/stm32f3xx_hal_rcc.c ****   *            @arg @ref RCC_MCO1SOURCE_HSI         HSI selected as MCO clock
 827:Drivers/STM32F3xx_HAL_Driver/Src/stm32f3xx_hal_rcc.c ****   *            @arg @ref RCC_MCO1SOURCE_HSE         HSE selected as MCO clock
 828:Drivers/STM32F3xx_HAL_Driver/Src/stm32f3xx_hal_rcc.c ****   *            @arg @ref RCC_MCO1SOURCE_LSI         LSI selected as MCO clock
 829:Drivers/STM32F3xx_HAL_Driver/Src/stm32f3xx_hal_rcc.c ****   *            @arg @ref RCC_MCO1SOURCE_LSE         LSE selected as MCO clock
 830:Drivers/STM32F3xx_HAL_Driver/Src/stm32f3xx_hal_rcc.c ****   *            @arg @ref RCC_MCO1SOURCE_PLLCLK_DIV2 PLLCLK Divided by 2 selected as MCO clock
 831:Drivers/STM32F3xx_HAL_Driver/Src/stm32f3xx_hal_rcc.c ****   * @param  RCC_MCODiv specifies the MCO DIV.
 832:Drivers/STM32F3xx_HAL_Driver/Src/stm32f3xx_hal_rcc.c ****   *          This parameter can be one of the following values:
 833:Drivers/STM32F3xx_HAL_Driver/Src/stm32f3xx_hal_rcc.c ****   *            @arg @ref RCC_MCODIV_1 no division applied to MCO clock
 834:Drivers/STM32F3xx_HAL_Driver/Src/stm32f3xx_hal_rcc.c ****   * @retval None
 835:Drivers/STM32F3xx_HAL_Driver/Src/stm32f3xx_hal_rcc.c ****   */
 836:Drivers/STM32F3xx_HAL_Driver/Src/stm32f3xx_hal_rcc.c **** #endif
 837:Drivers/STM32F3xx_HAL_Driver/Src/stm32f3xx_hal_rcc.c **** void HAL_RCC_MCOConfig(uint32_t RCC_MCOx, uint32_t RCC_MCOSource, uint32_t RCC_MCODiv)
 838:Drivers/STM32F3xx_HAL_Driver/Src/stm32f3xx_hal_rcc.c **** {
 1418              		.loc 1 838 0
 1419              		.cfi_startproc
 1420              		@ args = 0, pretend = 0, frame = 24
 1421              		@ frame_needed = 0, uses_anonymous_args = 0
 1422              	.LVL174:
 1423 0000 70B5     		push	{r4, r5, r6, lr}
 1424              	.LCFI3:
 1425              		.cfi_def_cfa_offset 16
 1426              		.cfi_offset 4, -16
 1427              		.cfi_offset 5, -12
 1428              		.cfi_offset 6, -8
 1429              		.cfi_offset 14, -4
 1430 0002 86B0     		sub	sp, sp, #24
 1431              	.LCFI4:
 1432              		.cfi_def_cfa_offset 40
 1433 0004 0E46     		mov	r6, r1
 1434 0006 1546     		mov	r5, r2
 839:Drivers/STM32F3xx_HAL_Driver/Src/stm32f3xx_hal_rcc.c ****   GPIO_InitTypeDef gpio = {0};
 1435              		.loc 1 839 0
 1436 0008 0023     		movs	r3, #0
 1437 000a 0393     		str	r3, [sp, #12]
ARM GAS  C:\Users\geoma\AppData\Local\Temp\ccuxvdtO.s 			page 51


 1438 000c 0593     		str	r3, [sp, #20]
 840:Drivers/STM32F3xx_HAL_Driver/Src/stm32f3xx_hal_rcc.c **** 
 841:Drivers/STM32F3xx_HAL_Driver/Src/stm32f3xx_hal_rcc.c ****   /* Check the parameters */
 842:Drivers/STM32F3xx_HAL_Driver/Src/stm32f3xx_hal_rcc.c ****   assert_param(IS_RCC_MCO(RCC_MCOx));
 843:Drivers/STM32F3xx_HAL_Driver/Src/stm32f3xx_hal_rcc.c ****   assert_param(IS_RCC_MCODIV(RCC_MCODiv));
 844:Drivers/STM32F3xx_HAL_Driver/Src/stm32f3xx_hal_rcc.c ****   assert_param(IS_RCC_MCO1SOURCE(RCC_MCOSource));
 845:Drivers/STM32F3xx_HAL_Driver/Src/stm32f3xx_hal_rcc.c ****   
 846:Drivers/STM32F3xx_HAL_Driver/Src/stm32f3xx_hal_rcc.c ****   /* Configure the MCO1 pin in alternate function mode */
 847:Drivers/STM32F3xx_HAL_Driver/Src/stm32f3xx_hal_rcc.c ****   gpio.Mode      = GPIO_MODE_AF_PP;
 1439              		.loc 1 847 0
 1440 000e 0223     		movs	r3, #2
 1441 0010 0293     		str	r3, [sp, #8]
 848:Drivers/STM32F3xx_HAL_Driver/Src/stm32f3xx_hal_rcc.c ****   gpio.Speed     = GPIO_SPEED_FREQ_HIGH;
 1442              		.loc 1 848 0
 1443 0012 0323     		movs	r3, #3
 1444 0014 0493     		str	r3, [sp, #16]
 849:Drivers/STM32F3xx_HAL_Driver/Src/stm32f3xx_hal_rcc.c ****   gpio.Pull      = GPIO_NOPULL;
 850:Drivers/STM32F3xx_HAL_Driver/Src/stm32f3xx_hal_rcc.c ****   gpio.Pin       = MCO1_PIN;
 1445              		.loc 1 850 0
 1446 0016 4FF48073 		mov	r3, #256
 1447 001a 0193     		str	r3, [sp, #4]
 1448              	.LBB255:
 851:Drivers/STM32F3xx_HAL_Driver/Src/stm32f3xx_hal_rcc.c ****   gpio.Alternate = GPIO_AF0_MCO;
 852:Drivers/STM32F3xx_HAL_Driver/Src/stm32f3xx_hal_rcc.c **** 
 853:Drivers/STM32F3xx_HAL_Driver/Src/stm32f3xx_hal_rcc.c ****   /* MCO1 Clock Enable */
 854:Drivers/STM32F3xx_HAL_Driver/Src/stm32f3xx_hal_rcc.c ****   MCO1_CLK_ENABLE();
 1449              		.loc 1 854 0
 1450 001c 0B4C     		ldr	r4, .L101
 1451 001e 6369     		ldr	r3, [r4, #20]
 1452 0020 43F40033 		orr	r3, r3, #131072
 1453 0024 6361     		str	r3, [r4, #20]
 1454 0026 6369     		ldr	r3, [r4, #20]
 1455 0028 03F40033 		and	r3, r3, #131072
 1456 002c 0093     		str	r3, [sp]
 1457 002e 009B     		ldr	r3, [sp]
 1458              	.LBE255:
 855:Drivers/STM32F3xx_HAL_Driver/Src/stm32f3xx_hal_rcc.c ****   
 856:Drivers/STM32F3xx_HAL_Driver/Src/stm32f3xx_hal_rcc.c ****   HAL_GPIO_Init(MCO1_GPIO_PORT, &gpio);
 1459              		.loc 1 856 0
 1460 0030 4FF09040 		mov	r0, #1207959552
 1461              	.LVL175:
 1462 0034 01A9     		add	r1, sp, #4
 1463              	.LVL176:
 1464 0036 FFF7FEFF 		bl	HAL_GPIO_Init
 1465              	.LVL177:
 857:Drivers/STM32F3xx_HAL_Driver/Src/stm32f3xx_hal_rcc.c ****   
 858:Drivers/STM32F3xx_HAL_Driver/Src/stm32f3xx_hal_rcc.c ****   /* Configure the MCO clock source */
 859:Drivers/STM32F3xx_HAL_Driver/Src/stm32f3xx_hal_rcc.c ****   __HAL_RCC_MCO1_CONFIG(RCC_MCOSource, RCC_MCODiv);
 1466              		.loc 1 859 0
 1467 003a 6368     		ldr	r3, [r4, #4]
 1468 003c 23F0EE43 		bic	r3, r3, #1996488704
 1469 0040 3543     		orrs	r5, r5, r6
 1470              	.LVL178:
 1471 0042 1D43     		orrs	r5, r5, r3
 1472 0044 6560     		str	r5, [r4, #4]
 860:Drivers/STM32F3xx_HAL_Driver/Src/stm32f3xx_hal_rcc.c **** }
 1473              		.loc 1 860 0
ARM GAS  C:\Users\geoma\AppData\Local\Temp\ccuxvdtO.s 			page 52


 1474 0046 06B0     		add	sp, sp, #24
 1475              	.LCFI5:
 1476              		.cfi_def_cfa_offset 16
 1477              		@ sp needed
 1478 0048 70BD     		pop	{r4, r5, r6, pc}
 1479              	.LVL179:
 1480              	.L102:
 1481 004a 00BF     		.align	2
 1482              	.L101:
 1483 004c 00100240 		.word	1073876992
 1484              		.cfi_endproc
 1485              	.LFE126:
 1487              		.section	.text.HAL_RCC_EnableCSS,"ax",%progbits
 1488              		.align	2
 1489              		.global	HAL_RCC_EnableCSS
 1490              		.thumb
 1491              		.thumb_func
 1493              	HAL_RCC_EnableCSS:
 1494              	.LFB127:
 861:Drivers/STM32F3xx_HAL_Driver/Src/stm32f3xx_hal_rcc.c **** 
 862:Drivers/STM32F3xx_HAL_Driver/Src/stm32f3xx_hal_rcc.c **** /**
 863:Drivers/STM32F3xx_HAL_Driver/Src/stm32f3xx_hal_rcc.c ****   * @brief  Enables the Clock Security System.
 864:Drivers/STM32F3xx_HAL_Driver/Src/stm32f3xx_hal_rcc.c ****   * @note   If a failure is detected on the HSE oscillator clock, this oscillator
 865:Drivers/STM32F3xx_HAL_Driver/Src/stm32f3xx_hal_rcc.c ****   *         is automatically disabled and an interrupt is generated to inform the
 866:Drivers/STM32F3xx_HAL_Driver/Src/stm32f3xx_hal_rcc.c ****   *         software about the failure (Clock Security System Interrupt, CSSI),
 867:Drivers/STM32F3xx_HAL_Driver/Src/stm32f3xx_hal_rcc.c ****   *         allowing the MCU to perform rescue operations. The CSSI is linked to 
 868:Drivers/STM32F3xx_HAL_Driver/Src/stm32f3xx_hal_rcc.c ****   *         the Cortex-M4 NMI (Non-Maskable Interrupt) exception vector.  
 869:Drivers/STM32F3xx_HAL_Driver/Src/stm32f3xx_hal_rcc.c ****   * @retval None
 870:Drivers/STM32F3xx_HAL_Driver/Src/stm32f3xx_hal_rcc.c ****   */
 871:Drivers/STM32F3xx_HAL_Driver/Src/stm32f3xx_hal_rcc.c **** void HAL_RCC_EnableCSS(void)
 872:Drivers/STM32F3xx_HAL_Driver/Src/stm32f3xx_hal_rcc.c **** {
 1495              		.loc 1 872 0
 1496              		.cfi_startproc
 1497              		@ args = 0, pretend = 0, frame = 0
 1498              		@ frame_needed = 0, uses_anonymous_args = 0
 1499              		@ link register save eliminated.
 1500              	.LVL180:
 1501              	.LBB256:
 1502              	.LBB257:
 1503              		.loc 2 531 0
 1504 0000 4FF40023 		mov	r3, #524288
 1505              	@ 531 "Drivers/CMSIS/Include/cmsis_gcc.h" 1
 1506 0004 93FAA3F3 		rbit r3, r3
 1507              	@ 0 "" 2
 1508              	.LVL181:
 1509              		.thumb
 1510              	.LBE257:
 1511              	.LBE256:
 873:Drivers/STM32F3xx_HAL_Driver/Src/stm32f3xx_hal_rcc.c ****   *(__IO uint32_t *) RCC_CR_CSSON_BB = (uint32_t)ENABLE;
 1512              		.loc 1 873 0
 1513 0008 B3FA83F3 		clz	r3, r3
 1514              	.LVL182:
 1515 000c 03F18453 		add	r3, r3, #276824064
 1516 0010 03F58413 		add	r3, r3, #1081344
 1517 0014 9B00     		lsls	r3, r3, #2
 1518 0016 0122     		movs	r2, #1
 1519 0018 1A60     		str	r2, [r3]
ARM GAS  C:\Users\geoma\AppData\Local\Temp\ccuxvdtO.s 			page 53


 1520 001a 7047     		bx	lr
 1521              		.cfi_endproc
 1522              	.LFE127:
 1524              		.section	.text.HAL_RCC_DisableCSS,"ax",%progbits
 1525              		.align	2
 1526              		.global	HAL_RCC_DisableCSS
 1527              		.thumb
 1528              		.thumb_func
 1530              	HAL_RCC_DisableCSS:
 1531              	.LFB128:
 874:Drivers/STM32F3xx_HAL_Driver/Src/stm32f3xx_hal_rcc.c **** }
 875:Drivers/STM32F3xx_HAL_Driver/Src/stm32f3xx_hal_rcc.c **** 
 876:Drivers/STM32F3xx_HAL_Driver/Src/stm32f3xx_hal_rcc.c **** /**
 877:Drivers/STM32F3xx_HAL_Driver/Src/stm32f3xx_hal_rcc.c ****   * @brief  Disables the Clock Security System.
 878:Drivers/STM32F3xx_HAL_Driver/Src/stm32f3xx_hal_rcc.c ****   * @retval None
 879:Drivers/STM32F3xx_HAL_Driver/Src/stm32f3xx_hal_rcc.c ****   */
 880:Drivers/STM32F3xx_HAL_Driver/Src/stm32f3xx_hal_rcc.c **** void HAL_RCC_DisableCSS(void)
 881:Drivers/STM32F3xx_HAL_Driver/Src/stm32f3xx_hal_rcc.c **** {
 1532              		.loc 1 881 0
 1533              		.cfi_startproc
 1534              		@ args = 0, pretend = 0, frame = 0
 1535              		@ frame_needed = 0, uses_anonymous_args = 0
 1536              		@ link register save eliminated.
 1537              	.LVL183:
 1538              	.LBB258:
 1539              	.LBB259:
 1540              		.loc 2 531 0
 1541 0000 4FF40023 		mov	r3, #524288
 1542              	@ 531 "Drivers/CMSIS/Include/cmsis_gcc.h" 1
 1543 0004 93FAA3F3 		rbit r3, r3
 1544              	@ 0 "" 2
 1545              	.LVL184:
 1546              		.thumb
 1547              	.LBE259:
 1548              	.LBE258:
 882:Drivers/STM32F3xx_HAL_Driver/Src/stm32f3xx_hal_rcc.c ****   *(__IO uint32_t *) RCC_CR_CSSON_BB = (uint32_t)DISABLE;
 1549              		.loc 1 882 0
 1550 0008 B3FA83F3 		clz	r3, r3
 1551              	.LVL185:
 1552 000c 03F18453 		add	r3, r3, #276824064
 1553 0010 03F58413 		add	r3, r3, #1081344
 1554 0014 9B00     		lsls	r3, r3, #2
 1555 0016 0022     		movs	r2, #0
 1556 0018 1A60     		str	r2, [r3]
 1557 001a 7047     		bx	lr
 1558              		.cfi_endproc
 1559              	.LFE128:
 1561              		.section	.text.HAL_RCC_GetSysClockFreq,"ax",%progbits
 1562              		.align	2
 1563              		.global	HAL_RCC_GetSysClockFreq
 1564              		.thumb
 1565              		.thumb_func
 1567              	HAL_RCC_GetSysClockFreq:
 1568              	.LFB129:
 883:Drivers/STM32F3xx_HAL_Driver/Src/stm32f3xx_hal_rcc.c **** }
 884:Drivers/STM32F3xx_HAL_Driver/Src/stm32f3xx_hal_rcc.c **** 
 885:Drivers/STM32F3xx_HAL_Driver/Src/stm32f3xx_hal_rcc.c **** /**
ARM GAS  C:\Users\geoma\AppData\Local\Temp\ccuxvdtO.s 			page 54


 886:Drivers/STM32F3xx_HAL_Driver/Src/stm32f3xx_hal_rcc.c ****   * @brief  Returns the SYSCLK frequency     
 887:Drivers/STM32F3xx_HAL_Driver/Src/stm32f3xx_hal_rcc.c ****   * @note   The system frequency computed by this function is not the real 
 888:Drivers/STM32F3xx_HAL_Driver/Src/stm32f3xx_hal_rcc.c ****   *         frequency in the chip. It is calculated based on the predefined 
 889:Drivers/STM32F3xx_HAL_Driver/Src/stm32f3xx_hal_rcc.c ****   *         constant and the selected clock source:
 890:Drivers/STM32F3xx_HAL_Driver/Src/stm32f3xx_hal_rcc.c ****   * @note     If SYSCLK source is HSI, function returns values based on HSI_VALUE(*)
 891:Drivers/STM32F3xx_HAL_Driver/Src/stm32f3xx_hal_rcc.c ****   * @note     If SYSCLK source is HSE, function returns a value based on HSE_VALUE
 892:Drivers/STM32F3xx_HAL_Driver/Src/stm32f3xx_hal_rcc.c ****   *           divided by PREDIV factor(**)
 893:Drivers/STM32F3xx_HAL_Driver/Src/stm32f3xx_hal_rcc.c ****   * @note     If SYSCLK source is PLL, function returns a value based on HSE_VALUE
 894:Drivers/STM32F3xx_HAL_Driver/Src/stm32f3xx_hal_rcc.c ****   *           divided by PREDIV factor(**) or HSI_VALUE(*) multiplied by the PLL factor.
 895:Drivers/STM32F3xx_HAL_Driver/Src/stm32f3xx_hal_rcc.c ****   * @note     (*) HSI_VALUE is a constant defined in stm32f3xx_hal_conf.h file (default value
 896:Drivers/STM32F3xx_HAL_Driver/Src/stm32f3xx_hal_rcc.c ****   *               8 MHz) but the real value may vary depending on the variations
 897:Drivers/STM32F3xx_HAL_Driver/Src/stm32f3xx_hal_rcc.c ****   *               in voltage and temperature.
 898:Drivers/STM32F3xx_HAL_Driver/Src/stm32f3xx_hal_rcc.c ****   * @note     (**) HSE_VALUE is a constant defined in stm32f3xx_hal_conf.h file (default value
 899:Drivers/STM32F3xx_HAL_Driver/Src/stm32f3xx_hal_rcc.c ****   *                8 MHz), user has to ensure that HSE_VALUE is same as the real
 900:Drivers/STM32F3xx_HAL_Driver/Src/stm32f3xx_hal_rcc.c ****   *                frequency of the crystal used. Otherwise, this function may
 901:Drivers/STM32F3xx_HAL_Driver/Src/stm32f3xx_hal_rcc.c ****   *                have wrong result.
 902:Drivers/STM32F3xx_HAL_Driver/Src/stm32f3xx_hal_rcc.c ****   *                  
 903:Drivers/STM32F3xx_HAL_Driver/Src/stm32f3xx_hal_rcc.c ****   * @note   The result of this function could be not correct when using fractional
 904:Drivers/STM32F3xx_HAL_Driver/Src/stm32f3xx_hal_rcc.c ****   *         value for HSE crystal.
 905:Drivers/STM32F3xx_HAL_Driver/Src/stm32f3xx_hal_rcc.c ****   *           
 906:Drivers/STM32F3xx_HAL_Driver/Src/stm32f3xx_hal_rcc.c ****   * @note   This function can be used by the user application to compute the 
 907:Drivers/STM32F3xx_HAL_Driver/Src/stm32f3xx_hal_rcc.c ****   *         baud-rate for the communication peripherals or configure other parameters.
 908:Drivers/STM32F3xx_HAL_Driver/Src/stm32f3xx_hal_rcc.c ****   *           
 909:Drivers/STM32F3xx_HAL_Driver/Src/stm32f3xx_hal_rcc.c ****   * @note   Each time SYSCLK changes, this function must be called to update the
 910:Drivers/STM32F3xx_HAL_Driver/Src/stm32f3xx_hal_rcc.c ****   *         right SYSCLK value. Otherwise, any configuration based on this function will be incorre
 911:Drivers/STM32F3xx_HAL_Driver/Src/stm32f3xx_hal_rcc.c ****   *         
 912:Drivers/STM32F3xx_HAL_Driver/Src/stm32f3xx_hal_rcc.c ****   * @retval SYSCLK frequency
 913:Drivers/STM32F3xx_HAL_Driver/Src/stm32f3xx_hal_rcc.c ****   */
 914:Drivers/STM32F3xx_HAL_Driver/Src/stm32f3xx_hal_rcc.c **** uint32_t HAL_RCC_GetSysClockFreq(void)
 915:Drivers/STM32F3xx_HAL_Driver/Src/stm32f3xx_hal_rcc.c **** {
 1569              		.loc 1 915 0
 1570              		.cfi_startproc
 1571              		@ args = 0, pretend = 0, frame = 0
 1572              		@ frame_needed = 0, uses_anonymous_args = 0
 1573              		@ link register save eliminated.
 1574              	.LVL186:
 916:Drivers/STM32F3xx_HAL_Driver/Src/stm32f3xx_hal_rcc.c ****   uint32_t tmpreg = 0U, prediv = 0U, pllclk = 0U, pllmul = 0U;
 917:Drivers/STM32F3xx_HAL_Driver/Src/stm32f3xx_hal_rcc.c ****   uint32_t sysclockfreq = 0U;
 918:Drivers/STM32F3xx_HAL_Driver/Src/stm32f3xx_hal_rcc.c ****   
 919:Drivers/STM32F3xx_HAL_Driver/Src/stm32f3xx_hal_rcc.c ****   tmpreg = RCC->CFGR;
 1575              		.loc 1 919 0
 1576 0000 164B     		ldr	r3, .L112
 1577 0002 5A68     		ldr	r2, [r3, #4]
 1578              	.LVL187:
 920:Drivers/STM32F3xx_HAL_Driver/Src/stm32f3xx_hal_rcc.c ****   
 921:Drivers/STM32F3xx_HAL_Driver/Src/stm32f3xx_hal_rcc.c ****   /* Get SYSCLK source -------------------------------------------------------*/
 922:Drivers/STM32F3xx_HAL_Driver/Src/stm32f3xx_hal_rcc.c ****   switch (tmpreg & RCC_CFGR_SWS)
 1579              		.loc 1 922 0
 1580 0004 02F00C03 		and	r3, r2, #12
 1581 0008 082B     		cmp	r3, #8
 1582 000a 24D1     		bne	.L111
 923:Drivers/STM32F3xx_HAL_Driver/Src/stm32f3xx_hal_rcc.c ****   {
 924:Drivers/STM32F3xx_HAL_Driver/Src/stm32f3xx_hal_rcc.c ****     case RCC_SYSCLKSOURCE_STATUS_HSE:  /* HSE used as system clock */
 925:Drivers/STM32F3xx_HAL_Driver/Src/stm32f3xx_hal_rcc.c ****     {
 926:Drivers/STM32F3xx_HAL_Driver/Src/stm32f3xx_hal_rcc.c ****       sysclockfreq = HSE_VALUE;
 927:Drivers/STM32F3xx_HAL_Driver/Src/stm32f3xx_hal_rcc.c ****       break;
 928:Drivers/STM32F3xx_HAL_Driver/Src/stm32f3xx_hal_rcc.c ****     }
ARM GAS  C:\Users\geoma\AppData\Local\Temp\ccuxvdtO.s 			page 55


 929:Drivers/STM32F3xx_HAL_Driver/Src/stm32f3xx_hal_rcc.c ****     case RCC_SYSCLKSOURCE_STATUS_PLLCLK:  /* PLL used as system clock */
 930:Drivers/STM32F3xx_HAL_Driver/Src/stm32f3xx_hal_rcc.c ****     {
 931:Drivers/STM32F3xx_HAL_Driver/Src/stm32f3xx_hal_rcc.c ****       pllmul = aPLLMULFactorTable[(uint32_t)(tmpreg & RCC_CFGR_PLLMUL) >> POSITION_VAL(RCC_CFGR_PLL
 1583              		.loc 1 931 0
 1584 000c 02F47011 		and	r1, r2, #3932160
 1585              	.LVL188:
 1586              	.LBB260:
 1587              	.LBB261:
 1588              		.loc 2 531 0
 1589 0010 4FF47013 		mov	r3, #3932160
 1590              	@ 531 "Drivers/CMSIS/Include/cmsis_gcc.h" 1
 1591 0014 93FAA3F3 		rbit r3, r3
 1592              	@ 0 "" 2
 1593              	.LVL189:
 1594              		.thumb
 1595              	.LBE261:
 1596              	.LBE260:
 1597              		.loc 1 931 0
 1598 0018 B3FA83F3 		clz	r3, r3
 1599              	.LVL190:
 1600 001c 21FA03F3 		lsr	r3, r1, r3
 1601 0020 0F49     		ldr	r1, .L112+4
 1602 0022 CB5C     		ldrb	r3, [r1, r3]	@ zero_extendqisi2
 1603              	.LVL191:
 932:Drivers/STM32F3xx_HAL_Driver/Src/stm32f3xx_hal_rcc.c ****       prediv = aPredivFactorTable[(uint32_t)(RCC->CFGR2 & RCC_CFGR2_PREDIV) >> POSITION_VAL(RCC_CFG
 1604              		.loc 1 932 0
 1605 0024 0D49     		ldr	r1, .L112
 1606 0026 C96A     		ldr	r1, [r1, #44]
 1607 0028 01F00F01 		and	r1, r1, #15
 1608              	.LVL192:
 1609              	.LBB262:
 1610              	.LBB263:
 1611              		.loc 2 531 0
 1612 002c 0F20     		movs	r0, #15
 1613              	@ 531 "Drivers/CMSIS/Include/cmsis_gcc.h" 1
 1614 002e 90FAA0F0 		rbit r0, r0
 1615              	@ 0 "" 2
 1616              	.LVL193:
 1617              		.thumb
 1618              	.LBE263:
 1619              	.LBE262:
 1620              		.loc 1 932 0
 1621 0032 B0FA80F0 		clz	r0, r0
 1622              	.LVL194:
 1623 0036 C140     		lsrs	r1, r1, r0
 1624 0038 0A48     		ldr	r0, .L112+8
 1625 003a 405C     		ldrb	r0, [r0, r1]	@ zero_extendqisi2
 1626              	.LVL195:
 933:Drivers/STM32F3xx_HAL_Driver/Src/stm32f3xx_hal_rcc.c **** #if defined(RCC_CFGR_PLLSRC_HSI_DIV2)
 934:Drivers/STM32F3xx_HAL_Driver/Src/stm32f3xx_hal_rcc.c ****       if ((tmpreg & RCC_CFGR_PLLSRC) != RCC_PLLSOURCE_HSI)
 1627              		.loc 1 934 0
 1628 003c 12F4803F 		tst	r2, #65536
 1629 0040 05D0     		beq	.L108
 935:Drivers/STM32F3xx_HAL_Driver/Src/stm32f3xx_hal_rcc.c ****       {
 936:Drivers/STM32F3xx_HAL_Driver/Src/stm32f3xx_hal_rcc.c ****         /* HSE used as PLL clock source : PLLCLK = HSE/PREDIV * PLLMUL */
 937:Drivers/STM32F3xx_HAL_Driver/Src/stm32f3xx_hal_rcc.c ****         pllclk = (HSE_VALUE / prediv) * pllmul;
 1630              		.loc 1 937 0
ARM GAS  C:\Users\geoma\AppData\Local\Temp\ccuxvdtO.s 			page 56


 1631 0042 094A     		ldr	r2, .L112+12
 1632              	.LVL196:
 1633 0044 B2FBF0F0 		udiv	r0, r2, r0
 1634              	.LVL197:
 1635 0048 03FB00F0 		mul	r0, r3, r0
 1636              	.LVL198:
 1637 004c 7047     		bx	lr
 1638              	.LVL199:
 1639              	.L108:
 938:Drivers/STM32F3xx_HAL_Driver/Src/stm32f3xx_hal_rcc.c ****       }
 939:Drivers/STM32F3xx_HAL_Driver/Src/stm32f3xx_hal_rcc.c ****       else
 940:Drivers/STM32F3xx_HAL_Driver/Src/stm32f3xx_hal_rcc.c ****       {
 941:Drivers/STM32F3xx_HAL_Driver/Src/stm32f3xx_hal_rcc.c ****         /* HSI used as PLL clock source : PLLCLK = HSI/2 * PLLMUL */
 942:Drivers/STM32F3xx_HAL_Driver/Src/stm32f3xx_hal_rcc.c ****         pllclk = (HSI_VALUE >> 1U) * pllmul;
 1640              		.loc 1 942 0
 1641 004e 0748     		ldr	r0, .L112+16
 1642              	.LVL200:
 1643 0050 00FB03F0 		mul	r0, r0, r3
 1644              	.LVL201:
 943:Drivers/STM32F3xx_HAL_Driver/Src/stm32f3xx_hal_rcc.c ****       }
 944:Drivers/STM32F3xx_HAL_Driver/Src/stm32f3xx_hal_rcc.c **** #else
 945:Drivers/STM32F3xx_HAL_Driver/Src/stm32f3xx_hal_rcc.c ****       if ((tmpreg & RCC_CFGR_PLLSRC_HSE_PREDIV) == RCC_CFGR_PLLSRC_HSE_PREDIV)
 946:Drivers/STM32F3xx_HAL_Driver/Src/stm32f3xx_hal_rcc.c ****       {
 947:Drivers/STM32F3xx_HAL_Driver/Src/stm32f3xx_hal_rcc.c ****         /* HSE used as PLL clock source : PLLCLK = HSE/PREDIV * PLLMUL */
 948:Drivers/STM32F3xx_HAL_Driver/Src/stm32f3xx_hal_rcc.c ****         pllclk = (HSE_VALUE / prediv) * pllmul;
 949:Drivers/STM32F3xx_HAL_Driver/Src/stm32f3xx_hal_rcc.c ****       }
 950:Drivers/STM32F3xx_HAL_Driver/Src/stm32f3xx_hal_rcc.c ****       else
 951:Drivers/STM32F3xx_HAL_Driver/Src/stm32f3xx_hal_rcc.c ****       {
 952:Drivers/STM32F3xx_HAL_Driver/Src/stm32f3xx_hal_rcc.c ****         /* HSI used as PLL clock source : PLLCLK = HSI/PREDIV * PLLMUL */
 953:Drivers/STM32F3xx_HAL_Driver/Src/stm32f3xx_hal_rcc.c ****         pllclk = (HSI_VALUE / prediv) * pllmul;
 954:Drivers/STM32F3xx_HAL_Driver/Src/stm32f3xx_hal_rcc.c ****       }
 955:Drivers/STM32F3xx_HAL_Driver/Src/stm32f3xx_hal_rcc.c **** #endif /* RCC_CFGR_PLLSRC_HSI_DIV2 */
 956:Drivers/STM32F3xx_HAL_Driver/Src/stm32f3xx_hal_rcc.c ****       sysclockfreq = pllclk;
 957:Drivers/STM32F3xx_HAL_Driver/Src/stm32f3xx_hal_rcc.c ****       break;
 1645              		.loc 1 957 0
 1646 0054 7047     		bx	lr
 1647              	.LVL202:
 1648              	.L111:
 926:Drivers/STM32F3xx_HAL_Driver/Src/stm32f3xx_hal_rcc.c ****       break;
 1649              		.loc 1 926 0
 1650 0056 0448     		ldr	r0, .L112+12
 1651              	.LVL203:
 958:Drivers/STM32F3xx_HAL_Driver/Src/stm32f3xx_hal_rcc.c ****     }
 959:Drivers/STM32F3xx_HAL_Driver/Src/stm32f3xx_hal_rcc.c ****     case RCC_SYSCLKSOURCE_STATUS_HSI:  /* HSI used as system clock source */
 960:Drivers/STM32F3xx_HAL_Driver/Src/stm32f3xx_hal_rcc.c ****     default: /* HSI used as system clock */
 961:Drivers/STM32F3xx_HAL_Driver/Src/stm32f3xx_hal_rcc.c ****     {
 962:Drivers/STM32F3xx_HAL_Driver/Src/stm32f3xx_hal_rcc.c ****       sysclockfreq = HSI_VALUE;
 963:Drivers/STM32F3xx_HAL_Driver/Src/stm32f3xx_hal_rcc.c ****       break;
 964:Drivers/STM32F3xx_HAL_Driver/Src/stm32f3xx_hal_rcc.c ****     }
 965:Drivers/STM32F3xx_HAL_Driver/Src/stm32f3xx_hal_rcc.c ****   }
 966:Drivers/STM32F3xx_HAL_Driver/Src/stm32f3xx_hal_rcc.c ****   return sysclockfreq;
 967:Drivers/STM32F3xx_HAL_Driver/Src/stm32f3xx_hal_rcc.c **** }
 1652              		.loc 1 967 0
 1653 0058 7047     		bx	lr
 1654              	.L113:
 1655 005a 00BF     		.align	2
 1656              	.L112:
ARM GAS  C:\Users\geoma\AppData\Local\Temp\ccuxvdtO.s 			page 57


 1657 005c 00100240 		.word	1073876992
 1658 0060 00000000 		.word	.LANCHOR0
 1659 0064 00000000 		.word	.LANCHOR1
 1660 0068 00127A00 		.word	8000000
 1661 006c 00093D00 		.word	4000000
 1662              		.cfi_endproc
 1663              	.LFE129:
 1665              		.section	.text.HAL_RCC_ClockConfig,"ax",%progbits
 1666              		.align	2
 1667              		.global	HAL_RCC_ClockConfig
 1668              		.thumb
 1669              		.thumb_func
 1671              	HAL_RCC_ClockConfig:
 1672              	.LFB125:
 629:Drivers/STM32F3xx_HAL_Driver/Src/stm32f3xx_hal_rcc.c ****   uint32_t tickstart = 0U;
 1673              		.loc 1 629 0
 1674              		.cfi_startproc
 1675              		@ args = 0, pretend = 0, frame = 0
 1676              		@ frame_needed = 0, uses_anonymous_args = 0
 1677              	.LVL204:
 1678 0000 70B5     		push	{r4, r5, r6, lr}
 1679              	.LCFI6:
 1680              		.cfi_def_cfa_offset 16
 1681              		.cfi_offset 4, -16
 1682              		.cfi_offset 5, -12
 1683              		.cfi_offset 6, -8
 1684              		.cfi_offset 14, -4
 1685              	.LVL205:
 642:Drivers/STM32F3xx_HAL_Driver/Src/stm32f3xx_hal_rcc.c ****   {    
 1686              		.loc 1 642 0
 1687 0002 734B     		ldr	r3, .L148
 1688 0004 1B68     		ldr	r3, [r3]
 1689 0006 03F00703 		and	r3, r3, #7
 1690 000a 8B42     		cmp	r3, r1
 1691 000c 0BD2     		bcs	.L115
 645:Drivers/STM32F3xx_HAL_Driver/Src/stm32f3xx_hal_rcc.c ****     
 1692              		.loc 1 645 0
 1693 000e 704A     		ldr	r2, .L148
 1694 0010 1368     		ldr	r3, [r2]
 1695 0012 23F00703 		bic	r3, r3, #7
 1696 0016 0B43     		orrs	r3, r3, r1
 1697 0018 1360     		str	r3, [r2]
 649:Drivers/STM32F3xx_HAL_Driver/Src/stm32f3xx_hal_rcc.c ****     {
 1698              		.loc 1 649 0
 1699 001a 1368     		ldr	r3, [r2]
 1700 001c 03F00703 		and	r3, r3, #7
 1701 0020 8B42     		cmp	r3, r1
 1702 0022 40F0C580 		bne	.L138
 1703              	.L115:
 656:Drivers/STM32F3xx_HAL_Driver/Src/stm32f3xx_hal_rcc.c ****   {
 1704              		.loc 1 656 0
 1705 0026 0368     		ldr	r3, [r0]
 1706 0028 13F0020F 		tst	r3, #2
 1707 002c 06D0     		beq	.L117
 659:Drivers/STM32F3xx_HAL_Driver/Src/stm32f3xx_hal_rcc.c ****   }
 1708              		.loc 1 659 0
 1709 002e 694C     		ldr	r4, .L148+4
ARM GAS  C:\Users\geoma\AppData\Local\Temp\ccuxvdtO.s 			page 58


 1710 0030 6368     		ldr	r3, [r4, #4]
 1711 0032 23F0F002 		bic	r2, r3, #240
 1712 0036 8368     		ldr	r3, [r0, #8]
 1713 0038 1343     		orrs	r3, r3, r2
 1714 003a 6360     		str	r3, [r4, #4]
 1715              	.L117:
 1716 003c 0D46     		mov	r5, r1
 1717 003e 0446     		mov	r4, r0
 663:Drivers/STM32F3xx_HAL_Driver/Src/stm32f3xx_hal_rcc.c ****   {    
 1718              		.loc 1 663 0
 1719 0040 0368     		ldr	r3, [r0]
 1720 0042 13F0010F 		tst	r3, #1
 1721 0046 75D0     		beq	.L118
 668:Drivers/STM32F3xx_HAL_Driver/Src/stm32f3xx_hal_rcc.c ****     {
 1722              		.loc 1 668 0
 1723 0048 4268     		ldr	r2, [r0, #4]
 1724 004a 012A     		cmp	r2, #1
 1725 004c 13D1     		bne	.L119
 1726              	.LVL206:
 1727              	.LBB264:
 1728              	.LBB265:
 1729              		.loc 2 531 0
 1730 004e 4FF40033 		mov	r3, #131072
 1731              	@ 531 "Drivers/CMSIS/Include/cmsis_gcc.h" 1
 1732 0052 93FAA3F3 		rbit r3, r3
 1733              	@ 0 "" 2
 1734              		.thumb
 1735              	.LBE265:
 1736              	.LBE264:
 671:Drivers/STM32F3xx_HAL_Driver/Src/stm32f3xx_hal_rcc.c ****       {
 1737              		.loc 1 671 0
 1738 0056 5F4B     		ldr	r3, .L148+4
 1739 0058 1868     		ldr	r0, [r3]
 1740              	.LVL207:
 1741              	.LBB266:
 1742              	.LBB267:
 1743              		.loc 2 531 0
 1744 005a 4FF40033 		mov	r3, #131072
 1745              	@ 531 "Drivers/CMSIS/Include/cmsis_gcc.h" 1
 1746 005e 93FAA3F3 		rbit r3, r3
 1747              	@ 0 "" 2
 1748              	.LVL208:
 1749              		.thumb
 1750              	.LBE267:
 1751              	.LBE266:
 671:Drivers/STM32F3xx_HAL_Driver/Src/stm32f3xx_hal_rcc.c ****       {
 1752              		.loc 1 671 0
 1753 0062 B3FA83F3 		clz	r3, r3
 1754              	.LVL209:
 1755 0066 03F01F03 		and	r3, r3, #31
 1756 006a 0121     		movs	r1, #1
 1757              	.LVL210:
 1758 006c 01FA03F3 		lsl	r3, r1, r3
 1759 0070 1842     		tst	r0, r3
 1760 0072 27D1     		bne	.L122
 1761 0074 9EE0     		b	.L139
 1762              	.LVL211:
ARM GAS  C:\Users\geoma\AppData\Local\Temp\ccuxvdtO.s 			page 59


 1763              	.L119:
 677:Drivers/STM32F3xx_HAL_Driver/Src/stm32f3xx_hal_rcc.c ****     {
 1764              		.loc 1 677 0
 1765 0076 022A     		cmp	r2, #2
 1766 0078 13D1     		bne	.L123
 1767              	.LVL212:
 1768              	.LBB268:
 1769              	.LBB269:
 1770              		.loc 2 531 0
 1771 007a 4FF00073 		mov	r3, #33554432
 1772              	@ 531 "Drivers/CMSIS/Include/cmsis_gcc.h" 1
 1773 007e 93FAA3F3 		rbit r3, r3
 1774              	@ 0 "" 2
 1775              		.thumb
 1776              	.LBE269:
 1777              	.LBE268:
 680:Drivers/STM32F3xx_HAL_Driver/Src/stm32f3xx_hal_rcc.c ****       {
 1778              		.loc 1 680 0
 1779 0082 544B     		ldr	r3, .L148+4
 1780 0084 1868     		ldr	r0, [r3]
 1781              	.LVL213:
 1782              	.LBB270:
 1783              	.LBB271:
 1784              		.loc 2 531 0
 1785 0086 4FF00073 		mov	r3, #33554432
 1786              	@ 531 "Drivers/CMSIS/Include/cmsis_gcc.h" 1
 1787 008a 93FAA3F3 		rbit r3, r3
 1788              	@ 0 "" 2
 1789              	.LVL214:
 1790              		.thumb
 1791              	.LBE271:
 1792              	.LBE270:
 680:Drivers/STM32F3xx_HAL_Driver/Src/stm32f3xx_hal_rcc.c ****       {
 1793              		.loc 1 680 0
 1794 008e B3FA83F3 		clz	r3, r3
 1795              	.LVL215:
 1796 0092 03F01F03 		and	r3, r3, #31
 1797 0096 0121     		movs	r1, #1
 1798              	.LVL216:
 1799 0098 01FA03F3 		lsl	r3, r1, r3
 1800 009c 1842     		tst	r0, r3
 1801 009e 11D1     		bne	.L122
 1802 00a0 8AE0     		b	.L140
 1803              	.LVL217:
 1804              	.L123:
 1805              	.LBB272:
 1806              	.LBB273:
 1807              		.loc 2 531 0
 1808 00a2 0223     		movs	r3, #2
 1809              	@ 531 "Drivers/CMSIS/Include/cmsis_gcc.h" 1
 1810 00a4 93FAA3F3 		rbit r3, r3
 1811              	@ 0 "" 2
 1812              		.thumb
 1813              	.LBE273:
 1814              	.LBE272:
 689:Drivers/STM32F3xx_HAL_Driver/Src/stm32f3xx_hal_rcc.c ****       {
 1815              		.loc 1 689 0
ARM GAS  C:\Users\geoma\AppData\Local\Temp\ccuxvdtO.s 			page 60


 1816 00a8 4A4B     		ldr	r3, .L148+4
 1817 00aa 1868     		ldr	r0, [r3]
 1818              	.LVL218:
 1819              	.LBB274:
 1820              	.LBB275:
 1821              		.loc 2 531 0
 1822 00ac 0223     		movs	r3, #2
 1823              	@ 531 "Drivers/CMSIS/Include/cmsis_gcc.h" 1
 1824 00ae 93FAA3F3 		rbit r3, r3
 1825              	@ 0 "" 2
 1826              	.LVL219:
 1827              		.thumb
 1828              	.LBE275:
 1829              	.LBE274:
 689:Drivers/STM32F3xx_HAL_Driver/Src/stm32f3xx_hal_rcc.c ****       {
 1830              		.loc 1 689 0
 1831 00b2 B3FA83F3 		clz	r3, r3
 1832              	.LVL220:
 1833 00b6 03F01F03 		and	r3, r3, #31
 1834 00ba 0121     		movs	r1, #1
 1835              	.LVL221:
 1836 00bc 01FA03F3 		lsl	r3, r1, r3
 1837 00c0 1842     		tst	r0, r3
 1838 00c2 7BD0     		beq	.L141
 1839              	.LVL222:
 1840              	.L122:
 694:Drivers/STM32F3xx_HAL_Driver/Src/stm32f3xx_hal_rcc.c **** 
 1841              		.loc 1 694 0
 1842 00c4 4349     		ldr	r1, .L148+4
 1843 00c6 4B68     		ldr	r3, [r1, #4]
 1844 00c8 23F00303 		bic	r3, r3, #3
 1845 00cc 1343     		orrs	r3, r3, r2
 1846 00ce 4B60     		str	r3, [r1, #4]
 697:Drivers/STM32F3xx_HAL_Driver/Src/stm32f3xx_hal_rcc.c ****     
 1847              		.loc 1 697 0
 1848 00d0 FFF7FEFF 		bl	HAL_GetTick
 1849              	.LVL223:
 1850 00d4 0646     		mov	r6, r0
 1851              	.LVL224:
 699:Drivers/STM32F3xx_HAL_Driver/Src/stm32f3xx_hal_rcc.c ****     {
 1852              		.loc 1 699 0
 1853 00d6 6368     		ldr	r3, [r4, #4]
 1854 00d8 012B     		cmp	r3, #1
 1855 00da 0ED1     		bne	.L146
 1856 00dc 06E0     		b	.L128
 1857              	.LVL225:
 1858              	.L130:
 703:Drivers/STM32F3xx_HAL_Driver/Src/stm32f3xx_hal_rcc.c ****         {
 1859              		.loc 1 703 0
 1860 00de FFF7FEFF 		bl	HAL_GetTick
 1861              	.LVL226:
 1862 00e2 801B     		subs	r0, r0, r6
 1863 00e4 41F28833 		movw	r3, #5000
 1864 00e8 9842     		cmp	r0, r3
 1865 00ea 69D8     		bhi	.L142
 1866              	.L128:
 701:Drivers/STM32F3xx_HAL_Driver/Src/stm32f3xx_hal_rcc.c ****       {
ARM GAS  C:\Users\geoma\AppData\Local\Temp\ccuxvdtO.s 			page 61


 1867              		.loc 1 701 0
 1868 00ec 394B     		ldr	r3, .L148+4
 1869 00ee 5B68     		ldr	r3, [r3, #4]
 1870 00f0 03F00C03 		and	r3, r3, #12
 1871 00f4 042B     		cmp	r3, #4
 1872 00f6 F2D1     		bne	.L130
 1873 00f8 1CE0     		b	.L118
 1874              	.LVL227:
 1875              	.L146:
 709:Drivers/STM32F3xx_HAL_Driver/Src/stm32f3xx_hal_rcc.c ****     {
 1876              		.loc 1 709 0
 1877 00fa 022B     		cmp	r3, #2
 1878 00fc 15D1     		bne	.L132
 1879 00fe 06E0     		b	.L131
 1880              	.LVL228:
 1881              	.L133:
 713:Drivers/STM32F3xx_HAL_Driver/Src/stm32f3xx_hal_rcc.c ****         {
 1882              		.loc 1 713 0
 1883 0100 FFF7FEFF 		bl	HAL_GetTick
 1884              	.LVL229:
 1885 0104 801B     		subs	r0, r0, r6
 1886 0106 41F28833 		movw	r3, #5000
 1887 010a 9842     		cmp	r0, r3
 1888 010c 5AD8     		bhi	.L143
 1889              	.L131:
 711:Drivers/STM32F3xx_HAL_Driver/Src/stm32f3xx_hal_rcc.c ****       {
 1890              		.loc 1 711 0
 1891 010e 314B     		ldr	r3, .L148+4
 1892 0110 5B68     		ldr	r3, [r3, #4]
 1893 0112 03F00C03 		and	r3, r3, #12
 1894 0116 082B     		cmp	r3, #8
 1895 0118 F2D1     		bne	.L133
 1896 011a 0BE0     		b	.L118
 1897              	.L134:
 723:Drivers/STM32F3xx_HAL_Driver/Src/stm32f3xx_hal_rcc.c ****         {
 1898              		.loc 1 723 0
 1899 011c FFF7FEFF 		bl	HAL_GetTick
 1900              	.LVL230:
 1901 0120 801B     		subs	r0, r0, r6
 1902 0122 41F28833 		movw	r3, #5000
 1903 0126 9842     		cmp	r0, r3
 1904 0128 4ED8     		bhi	.L144
 1905              	.L132:
 721:Drivers/STM32F3xx_HAL_Driver/Src/stm32f3xx_hal_rcc.c ****       {
 1906              		.loc 1 721 0
 1907 012a 2A4B     		ldr	r3, .L148+4
 1908 012c 5B68     		ldr	r3, [r3, #4]
 1909 012e 13F00C0F 		tst	r3, #12
 1910 0132 F3D1     		bne	.L134
 1911              	.LVL231:
 1912              	.L118:
 731:Drivers/STM32F3xx_HAL_Driver/Src/stm32f3xx_hal_rcc.c ****   {    
 1913              		.loc 1 731 0
 1914 0134 264B     		ldr	r3, .L148
 1915 0136 1B68     		ldr	r3, [r3]
 1916 0138 03F00703 		and	r3, r3, #7
 1917 013c AB42     		cmp	r3, r5
ARM GAS  C:\Users\geoma\AppData\Local\Temp\ccuxvdtO.s 			page 62


 1918 013e 0AD9     		bls	.L135
 734:Drivers/STM32F3xx_HAL_Driver/Src/stm32f3xx_hal_rcc.c ****     
 1919              		.loc 1 734 0
 1920 0140 234A     		ldr	r2, .L148
 1921 0142 1368     		ldr	r3, [r2]
 1922 0144 23F00703 		bic	r3, r3, #7
 1923 0148 2B43     		orrs	r3, r3, r5
 1924 014a 1360     		str	r3, [r2]
 738:Drivers/STM32F3xx_HAL_Driver/Src/stm32f3xx_hal_rcc.c ****     {
 1925              		.loc 1 738 0
 1926 014c 1368     		ldr	r3, [r2]
 1927 014e 03F00703 		and	r3, r3, #7
 1928 0152 AB42     		cmp	r3, r5
 1929 0154 3AD1     		bne	.L145
 1930              	.L135:
 745:Drivers/STM32F3xx_HAL_Driver/Src/stm32f3xx_hal_rcc.c ****   {
 1931              		.loc 1 745 0
 1932 0156 2368     		ldr	r3, [r4]
 1933 0158 13F0040F 		tst	r3, #4
 1934 015c 06D0     		beq	.L136
 748:Drivers/STM32F3xx_HAL_Driver/Src/stm32f3xx_hal_rcc.c ****   }
 1935              		.loc 1 748 0
 1936 015e 1D49     		ldr	r1, .L148+4
 1937 0160 4B68     		ldr	r3, [r1, #4]
 1938 0162 23F4E062 		bic	r2, r3, #1792
 1939 0166 E368     		ldr	r3, [r4, #12]
 1940 0168 1343     		orrs	r3, r3, r2
 1941 016a 4B60     		str	r3, [r1, #4]
 1942              	.L136:
 752:Drivers/STM32F3xx_HAL_Driver/Src/stm32f3xx_hal_rcc.c ****   {
 1943              		.loc 1 752 0
 1944 016c 2368     		ldr	r3, [r4]
 1945 016e 13F0080F 		tst	r3, #8
 1946 0172 07D0     		beq	.L137
 755:Drivers/STM32F3xx_HAL_Driver/Src/stm32f3xx_hal_rcc.c ****   }
 1947              		.loc 1 755 0
 1948 0174 174A     		ldr	r2, .L148+4
 1949 0176 5368     		ldr	r3, [r2, #4]
 1950 0178 23F46053 		bic	r3, r3, #14336
 1951 017c 2169     		ldr	r1, [r4, #16]
 1952 017e 43EAC103 		orr	r3, r3, r1, lsl #3
 1953 0182 5360     		str	r3, [r2, #4]
 1954              	.L137:
 759:Drivers/STM32F3xx_HAL_Driver/Src/stm32f3xx_hal_rcc.c **** 
 1955              		.loc 1 759 0
 1956 0184 FFF7FEFF 		bl	HAL_RCC_GetSysClockFreq
 1957              	.LVL232:
 1958 0188 124B     		ldr	r3, .L148+4
 1959 018a 5B68     		ldr	r3, [r3, #4]
 1960 018c 03F0F003 		and	r3, r3, #240
 1961              	.LVL233:
 1962              	.LBB276:
 1963              	.LBB277:
 1964              		.loc 2 531 0
 1965 0190 F022     		movs	r2, #240
 1966              	@ 531 "Drivers/CMSIS/Include/cmsis_gcc.h" 1
 1967 0192 92FAA2F2 		rbit r2, r2
ARM GAS  C:\Users\geoma\AppData\Local\Temp\ccuxvdtO.s 			page 63


 1968              	@ 0 "" 2
 1969              	.LVL234:
 1970              		.thumb
 1971              	.LBE277:
 1972              	.LBE276:
 759:Drivers/STM32F3xx_HAL_Driver/Src/stm32f3xx_hal_rcc.c **** 
 1973              		.loc 1 759 0
 1974 0196 B2FA82F2 		clz	r2, r2
 1975              	.LVL235:
 1976 019a D340     		lsrs	r3, r3, r2
 1977 019c 0E4A     		ldr	r2, .L148+8
 1978 019e D35C     		ldrb	r3, [r2, r3]	@ zero_extendqisi2
 1979 01a0 D840     		lsrs	r0, r0, r3
 1980 01a2 0E4B     		ldr	r3, .L148+12
 1981 01a4 1860     		str	r0, [r3]
 762:Drivers/STM32F3xx_HAL_Driver/Src/stm32f3xx_hal_rcc.c ****   
 1982              		.loc 1 762 0
 1983 01a6 0020     		movs	r0, #0
 1984 01a8 FFF7FEFF 		bl	HAL_InitTick
 1985              	.LVL236:
 764:Drivers/STM32F3xx_HAL_Driver/Src/stm32f3xx_hal_rcc.c **** }
 1986              		.loc 1 764 0
 1987 01ac 0020     		movs	r0, #0
 1988 01ae 70BD     		pop	{r4, r5, r6, pc}
 1989              	.LVL237:
 1990              	.L138:
 651:Drivers/STM32F3xx_HAL_Driver/Src/stm32f3xx_hal_rcc.c ****     }
 1991              		.loc 1 651 0
 1992 01b0 0120     		movs	r0, #1
 1993              	.LVL238:
 1994 01b2 70BD     		pop	{r4, r5, r6, pc}
 1995              	.LVL239:
 1996              	.L139:
 673:Drivers/STM32F3xx_HAL_Driver/Src/stm32f3xx_hal_rcc.c ****       }
 1997              		.loc 1 673 0
 1998 01b4 0120     		movs	r0, #1
 1999 01b6 70BD     		pop	{r4, r5, r6, pc}
 2000              	.LVL240:
 2001              	.L140:
 682:Drivers/STM32F3xx_HAL_Driver/Src/stm32f3xx_hal_rcc.c ****       }
 2002              		.loc 1 682 0
 2003 01b8 0120     		movs	r0, #1
 2004 01ba 70BD     		pop	{r4, r5, r6, pc}
 2005              	.LVL241:
 2006              	.L141:
 691:Drivers/STM32F3xx_HAL_Driver/Src/stm32f3xx_hal_rcc.c ****       }
 2007              		.loc 1 691 0
 2008 01bc 0120     		movs	r0, #1
 2009 01be 70BD     		pop	{r4, r5, r6, pc}
 2010              	.LVL242:
 2011              	.L142:
 705:Drivers/STM32F3xx_HAL_Driver/Src/stm32f3xx_hal_rcc.c ****         }
 2012              		.loc 1 705 0
 2013 01c0 0320     		movs	r0, #3
 2014 01c2 70BD     		pop	{r4, r5, r6, pc}
 2015              	.LVL243:
 2016              	.L143:
ARM GAS  C:\Users\geoma\AppData\Local\Temp\ccuxvdtO.s 			page 64


 715:Drivers/STM32F3xx_HAL_Driver/Src/stm32f3xx_hal_rcc.c ****         }
 2017              		.loc 1 715 0
 2018 01c4 0320     		movs	r0, #3
 2019 01c6 70BD     		pop	{r4, r5, r6, pc}
 2020              	.LVL244:
 2021              	.L144:
 725:Drivers/STM32F3xx_HAL_Driver/Src/stm32f3xx_hal_rcc.c ****         }
 2022              		.loc 1 725 0
 2023 01c8 0320     		movs	r0, #3
 2024 01ca 70BD     		pop	{r4, r5, r6, pc}
 2025              	.LVL245:
 2026              	.L145:
 740:Drivers/STM32F3xx_HAL_Driver/Src/stm32f3xx_hal_rcc.c ****     }
 2027              		.loc 1 740 0
 2028 01cc 0120     		movs	r0, #1
 765:Drivers/STM32F3xx_HAL_Driver/Src/stm32f3xx_hal_rcc.c **** 
 2029              		.loc 1 765 0
 2030 01ce 70BD     		pop	{r4, r5, r6, pc}
 2031              	.LVL246:
 2032              	.L149:
 2033              		.align	2
 2034              	.L148:
 2035 01d0 00200240 		.word	1073881088
 2036 01d4 00100240 		.word	1073876992
 2037 01d8 00000000 		.word	AHBPrescTable
 2038 01dc 00000000 		.word	SystemCoreClock
 2039              		.cfi_endproc
 2040              	.LFE125:
 2042              		.section	.text.HAL_RCC_GetHCLKFreq,"ax",%progbits
 2043              		.align	2
 2044              		.global	HAL_RCC_GetHCLKFreq
 2045              		.thumb
 2046              		.thumb_func
 2048              	HAL_RCC_GetHCLKFreq:
 2049              	.LFB130:
 968:Drivers/STM32F3xx_HAL_Driver/Src/stm32f3xx_hal_rcc.c **** 
 969:Drivers/STM32F3xx_HAL_Driver/Src/stm32f3xx_hal_rcc.c **** /**
 970:Drivers/STM32F3xx_HAL_Driver/Src/stm32f3xx_hal_rcc.c ****   * @brief  Returns the HCLK frequency     
 971:Drivers/STM32F3xx_HAL_Driver/Src/stm32f3xx_hal_rcc.c ****   * @note   Each time HCLK changes, this function must be called to update the
 972:Drivers/STM32F3xx_HAL_Driver/Src/stm32f3xx_hal_rcc.c ****   *         right HCLK value. Otherwise, any configuration based on this function will be incorrect
 973:Drivers/STM32F3xx_HAL_Driver/Src/stm32f3xx_hal_rcc.c ****   * 
 974:Drivers/STM32F3xx_HAL_Driver/Src/stm32f3xx_hal_rcc.c ****   * @note   The SystemCoreClock CMSIS variable is used to store System Clock Frequency 
 975:Drivers/STM32F3xx_HAL_Driver/Src/stm32f3xx_hal_rcc.c ****   *         and updated within this function
 976:Drivers/STM32F3xx_HAL_Driver/Src/stm32f3xx_hal_rcc.c ****   * @retval HCLK frequency
 977:Drivers/STM32F3xx_HAL_Driver/Src/stm32f3xx_hal_rcc.c ****   */
 978:Drivers/STM32F3xx_HAL_Driver/Src/stm32f3xx_hal_rcc.c **** uint32_t HAL_RCC_GetHCLKFreq(void)
 979:Drivers/STM32F3xx_HAL_Driver/Src/stm32f3xx_hal_rcc.c **** {
 2050              		.loc 1 979 0
 2051              		.cfi_startproc
 2052              		@ args = 0, pretend = 0, frame = 0
 2053              		@ frame_needed = 0, uses_anonymous_args = 0
 2054              		@ link register save eliminated.
 980:Drivers/STM32F3xx_HAL_Driver/Src/stm32f3xx_hal_rcc.c ****   return SystemCoreClock;
 981:Drivers/STM32F3xx_HAL_Driver/Src/stm32f3xx_hal_rcc.c **** }
 2055              		.loc 1 981 0
 2056 0000 014B     		ldr	r3, .L151
 2057 0002 1868     		ldr	r0, [r3]
ARM GAS  C:\Users\geoma\AppData\Local\Temp\ccuxvdtO.s 			page 65


 2058 0004 7047     		bx	lr
 2059              	.L152:
 2060 0006 00BF     		.align	2
 2061              	.L151:
 2062 0008 00000000 		.word	SystemCoreClock
 2063              		.cfi_endproc
 2064              	.LFE130:
 2066              		.section	.text.HAL_RCC_GetPCLK1Freq,"ax",%progbits
 2067              		.align	2
 2068              		.global	HAL_RCC_GetPCLK1Freq
 2069              		.thumb
 2070              		.thumb_func
 2072              	HAL_RCC_GetPCLK1Freq:
 2073              	.LFB131:
 982:Drivers/STM32F3xx_HAL_Driver/Src/stm32f3xx_hal_rcc.c **** 
 983:Drivers/STM32F3xx_HAL_Driver/Src/stm32f3xx_hal_rcc.c **** /**
 984:Drivers/STM32F3xx_HAL_Driver/Src/stm32f3xx_hal_rcc.c ****   * @brief  Returns the PCLK1 frequency     
 985:Drivers/STM32F3xx_HAL_Driver/Src/stm32f3xx_hal_rcc.c ****   * @note   Each time PCLK1 changes, this function must be called to update the
 986:Drivers/STM32F3xx_HAL_Driver/Src/stm32f3xx_hal_rcc.c ****   *         right PCLK1 value. Otherwise, any configuration based on this function will be incorrec
 987:Drivers/STM32F3xx_HAL_Driver/Src/stm32f3xx_hal_rcc.c ****   * @retval PCLK1 frequency
 988:Drivers/STM32F3xx_HAL_Driver/Src/stm32f3xx_hal_rcc.c ****   */
 989:Drivers/STM32F3xx_HAL_Driver/Src/stm32f3xx_hal_rcc.c **** uint32_t HAL_RCC_GetPCLK1Freq(void)
 990:Drivers/STM32F3xx_HAL_Driver/Src/stm32f3xx_hal_rcc.c **** {
 2074              		.loc 1 990 0
 2075              		.cfi_startproc
 2076              		@ args = 0, pretend = 0, frame = 0
 2077              		@ frame_needed = 0, uses_anonymous_args = 0
 2078 0000 08B5     		push	{r3, lr}
 2079              	.LCFI7:
 2080              		.cfi_def_cfa_offset 8
 2081              		.cfi_offset 3, -8
 2082              		.cfi_offset 14, -4
 991:Drivers/STM32F3xx_HAL_Driver/Src/stm32f3xx_hal_rcc.c ****   /* Get HCLK source and Compute PCLK1 frequency ---------------------------*/
 992:Drivers/STM32F3xx_HAL_Driver/Src/stm32f3xx_hal_rcc.c ****   return (HAL_RCC_GetHCLKFreq() >> APBPrescTable[(RCC->CFGR & RCC_CFGR_PPRE1) >> RCC_CFGR_PPRE1_BIT
 2083              		.loc 1 992 0
 2084 0002 FFF7FEFF 		bl	HAL_RCC_GetHCLKFreq
 2085              	.LVL247:
 2086 0006 074B     		ldr	r3, .L155
 2087 0008 5B68     		ldr	r3, [r3, #4]
 2088 000a 03F4E063 		and	r3, r3, #1792
 2089              	.LVL248:
 2090              	.LBB278:
 2091              	.LBB279:
 2092              		.loc 2 531 0
 2093 000e 4FF4E062 		mov	r2, #1792
 2094              	@ 531 "Drivers/CMSIS/Include/cmsis_gcc.h" 1
 2095 0012 92FAA2F2 		rbit r2, r2
 2096              	@ 0 "" 2
 2097              	.LVL249:
 2098              		.thumb
 2099              	.LBE279:
 2100              	.LBE278:
 2101              		.loc 1 992 0
 2102 0016 B2FA82F2 		clz	r2, r2
 2103              	.LVL250:
 2104 001a D340     		lsrs	r3, r3, r2
 2105 001c 024A     		ldr	r2, .L155+4
ARM GAS  C:\Users\geoma\AppData\Local\Temp\ccuxvdtO.s 			page 66


 2106 001e D35C     		ldrb	r3, [r2, r3]	@ zero_extendqisi2
 993:Drivers/STM32F3xx_HAL_Driver/Src/stm32f3xx_hal_rcc.c **** }    
 2107              		.loc 1 993 0
 2108 0020 D840     		lsrs	r0, r0, r3
 2109 0022 08BD     		pop	{r3, pc}
 2110              	.L156:
 2111              		.align	2
 2112              	.L155:
 2113 0024 00100240 		.word	1073876992
 2114 0028 00000000 		.word	APBPrescTable
 2115              		.cfi_endproc
 2116              	.LFE131:
 2118              		.section	.text.HAL_RCC_GetPCLK2Freq,"ax",%progbits
 2119              		.align	2
 2120              		.global	HAL_RCC_GetPCLK2Freq
 2121              		.thumb
 2122              		.thumb_func
 2124              	HAL_RCC_GetPCLK2Freq:
 2125              	.LFB132:
 994:Drivers/STM32F3xx_HAL_Driver/Src/stm32f3xx_hal_rcc.c **** 
 995:Drivers/STM32F3xx_HAL_Driver/Src/stm32f3xx_hal_rcc.c **** /**
 996:Drivers/STM32F3xx_HAL_Driver/Src/stm32f3xx_hal_rcc.c ****   * @brief  Returns the PCLK2 frequency     
 997:Drivers/STM32F3xx_HAL_Driver/Src/stm32f3xx_hal_rcc.c ****   * @note   Each time PCLK2 changes, this function must be called to update the
 998:Drivers/STM32F3xx_HAL_Driver/Src/stm32f3xx_hal_rcc.c ****   *         right PCLK2 value. Otherwise, any configuration based on this function will be incorrec
 999:Drivers/STM32F3xx_HAL_Driver/Src/stm32f3xx_hal_rcc.c ****   * @retval PCLK2 frequency
1000:Drivers/STM32F3xx_HAL_Driver/Src/stm32f3xx_hal_rcc.c ****   */
1001:Drivers/STM32F3xx_HAL_Driver/Src/stm32f3xx_hal_rcc.c **** uint32_t HAL_RCC_GetPCLK2Freq(void)
1002:Drivers/STM32F3xx_HAL_Driver/Src/stm32f3xx_hal_rcc.c **** {
 2126              		.loc 1 1002 0
 2127              		.cfi_startproc
 2128              		@ args = 0, pretend = 0, frame = 0
 2129              		@ frame_needed = 0, uses_anonymous_args = 0
 2130 0000 08B5     		push	{r3, lr}
 2131              	.LCFI8:
 2132              		.cfi_def_cfa_offset 8
 2133              		.cfi_offset 3, -8
 2134              		.cfi_offset 14, -4
1003:Drivers/STM32F3xx_HAL_Driver/Src/stm32f3xx_hal_rcc.c ****   /* Get HCLK source and Compute PCLK2 frequency ---------------------------*/
1004:Drivers/STM32F3xx_HAL_Driver/Src/stm32f3xx_hal_rcc.c ****   return (HAL_RCC_GetHCLKFreq()>> APBPrescTable[(RCC->CFGR & RCC_CFGR_PPRE2) >> RCC_CFGR_PPRE2_BITN
 2135              		.loc 1 1004 0
 2136 0002 FFF7FEFF 		bl	HAL_RCC_GetHCLKFreq
 2137              	.LVL251:
 2138 0006 074B     		ldr	r3, .L159
 2139 0008 5B68     		ldr	r3, [r3, #4]
 2140 000a 03F46053 		and	r3, r3, #14336
 2141              	.LVL252:
 2142              	.LBB280:
 2143              	.LBB281:
 2144              		.loc 2 531 0
 2145 000e 4FF46052 		mov	r2, #14336
 2146              	@ 531 "Drivers/CMSIS/Include/cmsis_gcc.h" 1
 2147 0012 92FAA2F2 		rbit r2, r2
 2148              	@ 0 "" 2
 2149              	.LVL253:
 2150              		.thumb
 2151              	.LBE281:
 2152              	.LBE280:
ARM GAS  C:\Users\geoma\AppData\Local\Temp\ccuxvdtO.s 			page 67


 2153              		.loc 1 1004 0
 2154 0016 B2FA82F2 		clz	r2, r2
 2155              	.LVL254:
 2156 001a D340     		lsrs	r3, r3, r2
 2157 001c 024A     		ldr	r2, .L159+4
 2158 001e D35C     		ldrb	r3, [r2, r3]	@ zero_extendqisi2
1005:Drivers/STM32F3xx_HAL_Driver/Src/stm32f3xx_hal_rcc.c **** } 
 2159              		.loc 1 1005 0
 2160 0020 D840     		lsrs	r0, r0, r3
 2161 0022 08BD     		pop	{r3, pc}
 2162              	.L160:
 2163              		.align	2
 2164              	.L159:
 2165 0024 00100240 		.word	1073876992
 2166 0028 00000000 		.word	APBPrescTable
 2167              		.cfi_endproc
 2168              	.LFE132:
 2170              		.section	.text.HAL_RCC_GetOscConfig,"ax",%progbits
 2171              		.align	2
 2172              		.global	HAL_RCC_GetOscConfig
 2173              		.thumb
 2174              		.thumb_func
 2176              	HAL_RCC_GetOscConfig:
 2177              	.LFB133:
1006:Drivers/STM32F3xx_HAL_Driver/Src/stm32f3xx_hal_rcc.c **** 
1007:Drivers/STM32F3xx_HAL_Driver/Src/stm32f3xx_hal_rcc.c **** /**
1008:Drivers/STM32F3xx_HAL_Driver/Src/stm32f3xx_hal_rcc.c ****   * @brief  Configures the RCC_OscInitStruct according to the internal 
1009:Drivers/STM32F3xx_HAL_Driver/Src/stm32f3xx_hal_rcc.c ****   * RCC configuration registers.
1010:Drivers/STM32F3xx_HAL_Driver/Src/stm32f3xx_hal_rcc.c ****   * @param  RCC_OscInitStruct pointer to an RCC_OscInitTypeDef structure that 
1011:Drivers/STM32F3xx_HAL_Driver/Src/stm32f3xx_hal_rcc.c ****   * will be configured.
1012:Drivers/STM32F3xx_HAL_Driver/Src/stm32f3xx_hal_rcc.c ****   * @retval None
1013:Drivers/STM32F3xx_HAL_Driver/Src/stm32f3xx_hal_rcc.c ****   */
1014:Drivers/STM32F3xx_HAL_Driver/Src/stm32f3xx_hal_rcc.c **** void HAL_RCC_GetOscConfig(RCC_OscInitTypeDef  *RCC_OscInitStruct)
1015:Drivers/STM32F3xx_HAL_Driver/Src/stm32f3xx_hal_rcc.c **** {
 2178              		.loc 1 1015 0
 2179              		.cfi_startproc
 2180              		@ args = 0, pretend = 0, frame = 0
 2181              		@ frame_needed = 0, uses_anonymous_args = 0
 2182              		@ link register save eliminated.
 2183              	.LVL255:
1016:Drivers/STM32F3xx_HAL_Driver/Src/stm32f3xx_hal_rcc.c ****   /* Check the parameters */
1017:Drivers/STM32F3xx_HAL_Driver/Src/stm32f3xx_hal_rcc.c ****   assert_param(RCC_OscInitStruct != NULL);
1018:Drivers/STM32F3xx_HAL_Driver/Src/stm32f3xx_hal_rcc.c **** 
1019:Drivers/STM32F3xx_HAL_Driver/Src/stm32f3xx_hal_rcc.c ****   /* Set all possible values for the Oscillator type parameter ---------------*/
1020:Drivers/STM32F3xx_HAL_Driver/Src/stm32f3xx_hal_rcc.c ****   RCC_OscInitStruct->OscillatorType = RCC_OSCILLATORTYPE_HSE | RCC_OSCILLATORTYPE_HSI  \
 2184              		.loc 1 1020 0
 2185 0000 0F23     		movs	r3, #15
 2186 0002 0360     		str	r3, [r0]
1021:Drivers/STM32F3xx_HAL_Driver/Src/stm32f3xx_hal_rcc.c ****                   | RCC_OSCILLATORTYPE_LSE | RCC_OSCILLATORTYPE_LSI;
1022:Drivers/STM32F3xx_HAL_Driver/Src/stm32f3xx_hal_rcc.c **** 
1023:Drivers/STM32F3xx_HAL_Driver/Src/stm32f3xx_hal_rcc.c **** 
1024:Drivers/STM32F3xx_HAL_Driver/Src/stm32f3xx_hal_rcc.c ****   /* Get the HSE configuration -----------------------------------------------*/
1025:Drivers/STM32F3xx_HAL_Driver/Src/stm32f3xx_hal_rcc.c ****   if((RCC->CR &RCC_CR_HSEBYP) == RCC_CR_HSEBYP)
 2187              		.loc 1 1025 0
 2188 0004 2D4B     		ldr	r3, .L174
 2189 0006 1B68     		ldr	r3, [r3]
 2190 0008 13F4802F 		tst	r3, #262144
ARM GAS  C:\Users\geoma\AppData\Local\Temp\ccuxvdtO.s 			page 68


 2191 000c 03D0     		beq	.L162
1026:Drivers/STM32F3xx_HAL_Driver/Src/stm32f3xx_hal_rcc.c ****   {
1027:Drivers/STM32F3xx_HAL_Driver/Src/stm32f3xx_hal_rcc.c ****     RCC_OscInitStruct->HSEState = RCC_HSE_BYPASS;
 2192              		.loc 1 1027 0
 2193 000e 4FF4A023 		mov	r3, #327680
 2194 0012 4360     		str	r3, [r0, #4]
 2195 0014 0AE0     		b	.L163
 2196              	.L162:
1028:Drivers/STM32F3xx_HAL_Driver/Src/stm32f3xx_hal_rcc.c ****   }
1029:Drivers/STM32F3xx_HAL_Driver/Src/stm32f3xx_hal_rcc.c ****   else if((RCC->CR &RCC_CR_HSEON) == RCC_CR_HSEON)
 2197              		.loc 1 1029 0
 2198 0016 294B     		ldr	r3, .L174
 2199 0018 1B68     		ldr	r3, [r3]
 2200 001a 13F4803F 		tst	r3, #65536
 2201 001e 03D0     		beq	.L164
1030:Drivers/STM32F3xx_HAL_Driver/Src/stm32f3xx_hal_rcc.c ****   {
1031:Drivers/STM32F3xx_HAL_Driver/Src/stm32f3xx_hal_rcc.c ****     RCC_OscInitStruct->HSEState = RCC_HSE_ON;
 2202              		.loc 1 1031 0
 2203 0020 4FF48033 		mov	r3, #65536
 2204 0024 4360     		str	r3, [r0, #4]
 2205 0026 01E0     		b	.L163
 2206              	.L164:
1032:Drivers/STM32F3xx_HAL_Driver/Src/stm32f3xx_hal_rcc.c ****   }
1033:Drivers/STM32F3xx_HAL_Driver/Src/stm32f3xx_hal_rcc.c ****   else
1034:Drivers/STM32F3xx_HAL_Driver/Src/stm32f3xx_hal_rcc.c ****   {
1035:Drivers/STM32F3xx_HAL_Driver/Src/stm32f3xx_hal_rcc.c ****     RCC_OscInitStruct->HSEState = RCC_HSE_OFF;
 2207              		.loc 1 1035 0
 2208 0028 0023     		movs	r3, #0
 2209 002a 4360     		str	r3, [r0, #4]
 2210              	.L163:
1036:Drivers/STM32F3xx_HAL_Driver/Src/stm32f3xx_hal_rcc.c ****   }
1037:Drivers/STM32F3xx_HAL_Driver/Src/stm32f3xx_hal_rcc.c **** #if defined(RCC_CFGR_PLLSRC_HSI_DIV2)
1038:Drivers/STM32F3xx_HAL_Driver/Src/stm32f3xx_hal_rcc.c ****   RCC_OscInitStruct->HSEPredivValue = __HAL_RCC_HSE_GET_PREDIV();
 2211              		.loc 1 1038 0
 2212 002c 234A     		ldr	r2, .L174
 2213 002e D36A     		ldr	r3, [r2, #44]
 2214 0030 03F00F03 		and	r3, r3, #15
 2215 0034 8360     		str	r3, [r0, #8]
1039:Drivers/STM32F3xx_HAL_Driver/Src/stm32f3xx_hal_rcc.c **** #endif
1040:Drivers/STM32F3xx_HAL_Driver/Src/stm32f3xx_hal_rcc.c **** 
1041:Drivers/STM32F3xx_HAL_Driver/Src/stm32f3xx_hal_rcc.c ****   /* Get the HSI configuration -----------------------------------------------*/
1042:Drivers/STM32F3xx_HAL_Driver/Src/stm32f3xx_hal_rcc.c ****   if((RCC->CR &RCC_CR_HSION) == RCC_CR_HSION)
 2216              		.loc 1 1042 0
 2217 0036 1368     		ldr	r3, [r2]
 2218 0038 13F0010F 		tst	r3, #1
 2219 003c 02D0     		beq	.L165
1043:Drivers/STM32F3xx_HAL_Driver/Src/stm32f3xx_hal_rcc.c ****   {
1044:Drivers/STM32F3xx_HAL_Driver/Src/stm32f3xx_hal_rcc.c ****     RCC_OscInitStruct->HSIState = RCC_HSI_ON;
 2220              		.loc 1 1044 0
 2221 003e 0123     		movs	r3, #1
 2222 0040 0361     		str	r3, [r0, #16]
 2223 0042 01E0     		b	.L166
 2224              	.L165:
1045:Drivers/STM32F3xx_HAL_Driver/Src/stm32f3xx_hal_rcc.c ****   }
1046:Drivers/STM32F3xx_HAL_Driver/Src/stm32f3xx_hal_rcc.c ****   else
1047:Drivers/STM32F3xx_HAL_Driver/Src/stm32f3xx_hal_rcc.c ****   {
1048:Drivers/STM32F3xx_HAL_Driver/Src/stm32f3xx_hal_rcc.c ****     RCC_OscInitStruct->HSIState = RCC_HSI_OFF;
ARM GAS  C:\Users\geoma\AppData\Local\Temp\ccuxvdtO.s 			page 69


 2225              		.loc 1 1048 0
 2226 0044 0023     		movs	r3, #0
 2227 0046 0361     		str	r3, [r0, #16]
 2228              	.L166:
1049:Drivers/STM32F3xx_HAL_Driver/Src/stm32f3xx_hal_rcc.c ****   }
1050:Drivers/STM32F3xx_HAL_Driver/Src/stm32f3xx_hal_rcc.c ****   
1051:Drivers/STM32F3xx_HAL_Driver/Src/stm32f3xx_hal_rcc.c ****   RCC_OscInitStruct->HSICalibrationValue = (uint32_t)((RCC->CR & RCC_CR_HSITRIM) >> POSITION_VAL(RC
 2229              		.loc 1 1051 0
 2230 0048 1C49     		ldr	r1, .L174
 2231 004a 0B68     		ldr	r3, [r1]
 2232 004c 03F0F803 		and	r3, r3, #248
 2233              	.LVL256:
 2234              	.LBB282:
 2235              	.LBB283:
 2236              		.loc 2 531 0
 2237 0050 F822     		movs	r2, #248
 2238              	@ 531 "Drivers/CMSIS/Include/cmsis_gcc.h" 1
 2239 0052 92FAA2F2 		rbit r2, r2
 2240              	@ 0 "" 2
 2241              	.LVL257:
 2242              		.thumb
 2243              	.LBE283:
 2244              	.LBE282:
 2245              		.loc 1 1051 0
 2246 0056 B2FA82F2 		clz	r2, r2
 2247              	.LVL258:
 2248 005a D340     		lsrs	r3, r3, r2
 2249 005c 4361     		str	r3, [r0, #20]
1052:Drivers/STM32F3xx_HAL_Driver/Src/stm32f3xx_hal_rcc.c ****   
1053:Drivers/STM32F3xx_HAL_Driver/Src/stm32f3xx_hal_rcc.c ****   /* Get the LSE configuration -----------------------------------------------*/
1054:Drivers/STM32F3xx_HAL_Driver/Src/stm32f3xx_hal_rcc.c ****   if((RCC->BDCR &RCC_BDCR_LSEBYP) == RCC_BDCR_LSEBYP)
 2250              		.loc 1 1054 0
 2251 005e 0B6A     		ldr	r3, [r1, #32]
 2252 0060 13F0040F 		tst	r3, #4
 2253 0064 02D0     		beq	.L167
1055:Drivers/STM32F3xx_HAL_Driver/Src/stm32f3xx_hal_rcc.c ****   {
1056:Drivers/STM32F3xx_HAL_Driver/Src/stm32f3xx_hal_rcc.c ****     RCC_OscInitStruct->LSEState = RCC_LSE_BYPASS;
 2254              		.loc 1 1056 0
 2255 0066 0523     		movs	r3, #5
 2256 0068 C360     		str	r3, [r0, #12]
 2257 006a 09E0     		b	.L168
 2258              	.L167:
1057:Drivers/STM32F3xx_HAL_Driver/Src/stm32f3xx_hal_rcc.c ****   }
1058:Drivers/STM32F3xx_HAL_Driver/Src/stm32f3xx_hal_rcc.c ****   else if((RCC->BDCR &RCC_BDCR_LSEON) == RCC_BDCR_LSEON)
 2259              		.loc 1 1058 0
 2260 006c 134B     		ldr	r3, .L174
 2261 006e 1B6A     		ldr	r3, [r3, #32]
 2262 0070 13F0010F 		tst	r3, #1
 2263 0074 02D0     		beq	.L169
1059:Drivers/STM32F3xx_HAL_Driver/Src/stm32f3xx_hal_rcc.c ****   {
1060:Drivers/STM32F3xx_HAL_Driver/Src/stm32f3xx_hal_rcc.c ****     RCC_OscInitStruct->LSEState = RCC_LSE_ON;
 2264              		.loc 1 1060 0
 2265 0076 0123     		movs	r3, #1
 2266 0078 C360     		str	r3, [r0, #12]
 2267 007a 01E0     		b	.L168
 2268              	.L169:
1061:Drivers/STM32F3xx_HAL_Driver/Src/stm32f3xx_hal_rcc.c ****   }
ARM GAS  C:\Users\geoma\AppData\Local\Temp\ccuxvdtO.s 			page 70


1062:Drivers/STM32F3xx_HAL_Driver/Src/stm32f3xx_hal_rcc.c ****   else
1063:Drivers/STM32F3xx_HAL_Driver/Src/stm32f3xx_hal_rcc.c ****   {
1064:Drivers/STM32F3xx_HAL_Driver/Src/stm32f3xx_hal_rcc.c ****     RCC_OscInitStruct->LSEState = RCC_LSE_OFF;
 2269              		.loc 1 1064 0
 2270 007c 0023     		movs	r3, #0
 2271 007e C360     		str	r3, [r0, #12]
 2272              	.L168:
1065:Drivers/STM32F3xx_HAL_Driver/Src/stm32f3xx_hal_rcc.c ****   }
1066:Drivers/STM32F3xx_HAL_Driver/Src/stm32f3xx_hal_rcc.c ****   
1067:Drivers/STM32F3xx_HAL_Driver/Src/stm32f3xx_hal_rcc.c ****   /* Get the LSI configuration -----------------------------------------------*/
1068:Drivers/STM32F3xx_HAL_Driver/Src/stm32f3xx_hal_rcc.c ****   if((RCC->CSR &RCC_CSR_LSION) == RCC_CSR_LSION)
 2273              		.loc 1 1068 0
 2274 0080 0E4B     		ldr	r3, .L174
 2275 0082 5B6A     		ldr	r3, [r3, #36]
 2276 0084 13F0010F 		tst	r3, #1
 2277 0088 02D0     		beq	.L170
1069:Drivers/STM32F3xx_HAL_Driver/Src/stm32f3xx_hal_rcc.c ****   {
1070:Drivers/STM32F3xx_HAL_Driver/Src/stm32f3xx_hal_rcc.c ****     RCC_OscInitStruct->LSIState = RCC_LSI_ON;
 2278              		.loc 1 1070 0
 2279 008a 0123     		movs	r3, #1
 2280 008c 8361     		str	r3, [r0, #24]
 2281 008e 01E0     		b	.L171
 2282              	.L170:
1071:Drivers/STM32F3xx_HAL_Driver/Src/stm32f3xx_hal_rcc.c ****   }
1072:Drivers/STM32F3xx_HAL_Driver/Src/stm32f3xx_hal_rcc.c ****   else
1073:Drivers/STM32F3xx_HAL_Driver/Src/stm32f3xx_hal_rcc.c ****   {
1074:Drivers/STM32F3xx_HAL_Driver/Src/stm32f3xx_hal_rcc.c ****     RCC_OscInitStruct->LSIState = RCC_LSI_OFF;
 2283              		.loc 1 1074 0
 2284 0090 0023     		movs	r3, #0
 2285 0092 8361     		str	r3, [r0, #24]
 2286              	.L171:
1075:Drivers/STM32F3xx_HAL_Driver/Src/stm32f3xx_hal_rcc.c ****   }
1076:Drivers/STM32F3xx_HAL_Driver/Src/stm32f3xx_hal_rcc.c ****   
1077:Drivers/STM32F3xx_HAL_Driver/Src/stm32f3xx_hal_rcc.c **** 
1078:Drivers/STM32F3xx_HAL_Driver/Src/stm32f3xx_hal_rcc.c ****   /* Get the PLL configuration -----------------------------------------------*/
1079:Drivers/STM32F3xx_HAL_Driver/Src/stm32f3xx_hal_rcc.c ****   if((RCC->CR &RCC_CR_PLLON) == RCC_CR_PLLON)
 2287              		.loc 1 1079 0
 2288 0094 094B     		ldr	r3, .L174
 2289 0096 1B68     		ldr	r3, [r3]
 2290 0098 13F0807F 		tst	r3, #16777216
 2291 009c 02D0     		beq	.L172
1080:Drivers/STM32F3xx_HAL_Driver/Src/stm32f3xx_hal_rcc.c ****   {
1081:Drivers/STM32F3xx_HAL_Driver/Src/stm32f3xx_hal_rcc.c ****     RCC_OscInitStruct->PLL.PLLState = RCC_PLL_ON;
 2292              		.loc 1 1081 0
 2293 009e 0223     		movs	r3, #2
 2294 00a0 C361     		str	r3, [r0, #28]
 2295 00a2 01E0     		b	.L173
 2296              	.L172:
1082:Drivers/STM32F3xx_HAL_Driver/Src/stm32f3xx_hal_rcc.c ****   }
1083:Drivers/STM32F3xx_HAL_Driver/Src/stm32f3xx_hal_rcc.c ****   else
1084:Drivers/STM32F3xx_HAL_Driver/Src/stm32f3xx_hal_rcc.c ****   {
1085:Drivers/STM32F3xx_HAL_Driver/Src/stm32f3xx_hal_rcc.c ****     RCC_OscInitStruct->PLL.PLLState = RCC_PLL_OFF;
 2297              		.loc 1 1085 0
 2298 00a4 0123     		movs	r3, #1
 2299 00a6 C361     		str	r3, [r0, #28]
 2300              	.L173:
1086:Drivers/STM32F3xx_HAL_Driver/Src/stm32f3xx_hal_rcc.c ****   }
ARM GAS  C:\Users\geoma\AppData\Local\Temp\ccuxvdtO.s 			page 71


1087:Drivers/STM32F3xx_HAL_Driver/Src/stm32f3xx_hal_rcc.c ****   RCC_OscInitStruct->PLL.PLLSource = (uint32_t)(RCC->CFGR & RCC_CFGR_PLLSRC);
 2301              		.loc 1 1087 0
 2302 00a8 044A     		ldr	r2, .L174
 2303 00aa 5368     		ldr	r3, [r2, #4]
 2304 00ac 03F48033 		and	r3, r3, #65536
 2305 00b0 0362     		str	r3, [r0, #32]
1088:Drivers/STM32F3xx_HAL_Driver/Src/stm32f3xx_hal_rcc.c ****   RCC_OscInitStruct->PLL.PLLMUL = (uint32_t)(RCC->CFGR & RCC_CFGR_PLLMUL);
 2306              		.loc 1 1088 0
 2307 00b2 5368     		ldr	r3, [r2, #4]
 2308 00b4 03F47013 		and	r3, r3, #3932160
 2309 00b8 4362     		str	r3, [r0, #36]
 2310 00ba 7047     		bx	lr
 2311              	.L175:
 2312              		.align	2
 2313              	.L174:
 2314 00bc 00100240 		.word	1073876992
 2315              		.cfi_endproc
 2316              	.LFE133:
 2318              		.section	.text.HAL_RCC_GetClockConfig,"ax",%progbits
 2319              		.align	2
 2320              		.global	HAL_RCC_GetClockConfig
 2321              		.thumb
 2322              		.thumb_func
 2324              	HAL_RCC_GetClockConfig:
 2325              	.LFB134:
1089:Drivers/STM32F3xx_HAL_Driver/Src/stm32f3xx_hal_rcc.c **** #if defined(RCC_CFGR_PLLSRC_HSI_PREDIV)
1090:Drivers/STM32F3xx_HAL_Driver/Src/stm32f3xx_hal_rcc.c ****   RCC_OscInitStruct->PLL.PREDIV = (uint32_t)(RCC->CFGR2 & RCC_CFGR2_PREDIV);
1091:Drivers/STM32F3xx_HAL_Driver/Src/stm32f3xx_hal_rcc.c **** #endif /* RCC_CFGR_PLLSRC_HSI_PREDIV */
1092:Drivers/STM32F3xx_HAL_Driver/Src/stm32f3xx_hal_rcc.c **** }
1093:Drivers/STM32F3xx_HAL_Driver/Src/stm32f3xx_hal_rcc.c **** 
1094:Drivers/STM32F3xx_HAL_Driver/Src/stm32f3xx_hal_rcc.c **** /**
1095:Drivers/STM32F3xx_HAL_Driver/Src/stm32f3xx_hal_rcc.c ****   * @brief  Get the RCC_ClkInitStruct according to the internal 
1096:Drivers/STM32F3xx_HAL_Driver/Src/stm32f3xx_hal_rcc.c ****   * RCC configuration registers.
1097:Drivers/STM32F3xx_HAL_Driver/Src/stm32f3xx_hal_rcc.c ****   * @param  RCC_ClkInitStruct pointer to an RCC_ClkInitTypeDef structure that 
1098:Drivers/STM32F3xx_HAL_Driver/Src/stm32f3xx_hal_rcc.c ****   * contains the current clock configuration.
1099:Drivers/STM32F3xx_HAL_Driver/Src/stm32f3xx_hal_rcc.c ****   * @param  pFLatency Pointer on the Flash Latency.
1100:Drivers/STM32F3xx_HAL_Driver/Src/stm32f3xx_hal_rcc.c ****   * @retval None
1101:Drivers/STM32F3xx_HAL_Driver/Src/stm32f3xx_hal_rcc.c ****   */
1102:Drivers/STM32F3xx_HAL_Driver/Src/stm32f3xx_hal_rcc.c **** void HAL_RCC_GetClockConfig(RCC_ClkInitTypeDef  *RCC_ClkInitStruct, uint32_t *pFLatency)
1103:Drivers/STM32F3xx_HAL_Driver/Src/stm32f3xx_hal_rcc.c **** {
 2326              		.loc 1 1103 0
 2327              		.cfi_startproc
 2328              		@ args = 0, pretend = 0, frame = 0
 2329              		@ frame_needed = 0, uses_anonymous_args = 0
 2330              		@ link register save eliminated.
 2331              	.LVL259:
1104:Drivers/STM32F3xx_HAL_Driver/Src/stm32f3xx_hal_rcc.c ****   /* Check the parameters */
1105:Drivers/STM32F3xx_HAL_Driver/Src/stm32f3xx_hal_rcc.c ****   assert_param(RCC_ClkInitStruct != NULL);
1106:Drivers/STM32F3xx_HAL_Driver/Src/stm32f3xx_hal_rcc.c ****   assert_param(pFLatency != NULL);
1107:Drivers/STM32F3xx_HAL_Driver/Src/stm32f3xx_hal_rcc.c **** 
1108:Drivers/STM32F3xx_HAL_Driver/Src/stm32f3xx_hal_rcc.c ****   /* Set all possible values for the Clock type parameter --------------------*/
1109:Drivers/STM32F3xx_HAL_Driver/Src/stm32f3xx_hal_rcc.c ****   RCC_ClkInitStruct->ClockType = RCC_CLOCKTYPE_SYSCLK | RCC_CLOCKTYPE_HCLK | RCC_CLOCKTYPE_PCLK1 | 
 2332              		.loc 1 1109 0
 2333 0000 0F23     		movs	r3, #15
 2334 0002 0360     		str	r3, [r0]
1110:Drivers/STM32F3xx_HAL_Driver/Src/stm32f3xx_hal_rcc.c ****   
1111:Drivers/STM32F3xx_HAL_Driver/Src/stm32f3xx_hal_rcc.c ****   /* Get the SYSCLK configuration --------------------------------------------*/ 
ARM GAS  C:\Users\geoma\AppData\Local\Temp\ccuxvdtO.s 			page 72


1112:Drivers/STM32F3xx_HAL_Driver/Src/stm32f3xx_hal_rcc.c ****   RCC_ClkInitStruct->SYSCLKSource = (uint32_t)(RCC->CFGR & RCC_CFGR_SW);
 2335              		.loc 1 1112 0
 2336 0004 0B4B     		ldr	r3, .L177
 2337 0006 5A68     		ldr	r2, [r3, #4]
 2338 0008 02F00302 		and	r2, r2, #3
 2339 000c 4260     		str	r2, [r0, #4]
1113:Drivers/STM32F3xx_HAL_Driver/Src/stm32f3xx_hal_rcc.c ****   
1114:Drivers/STM32F3xx_HAL_Driver/Src/stm32f3xx_hal_rcc.c ****   /* Get the HCLK configuration ----------------------------------------------*/ 
1115:Drivers/STM32F3xx_HAL_Driver/Src/stm32f3xx_hal_rcc.c ****   RCC_ClkInitStruct->AHBCLKDivider = (uint32_t)(RCC->CFGR & RCC_CFGR_HPRE); 
 2340              		.loc 1 1115 0
 2341 000e 5A68     		ldr	r2, [r3, #4]
 2342 0010 02F0F002 		and	r2, r2, #240
 2343 0014 8260     		str	r2, [r0, #8]
1116:Drivers/STM32F3xx_HAL_Driver/Src/stm32f3xx_hal_rcc.c ****   
1117:Drivers/STM32F3xx_HAL_Driver/Src/stm32f3xx_hal_rcc.c ****   /* Get the APB1 configuration ----------------------------------------------*/ 
1118:Drivers/STM32F3xx_HAL_Driver/Src/stm32f3xx_hal_rcc.c ****   RCC_ClkInitStruct->APB1CLKDivider = (uint32_t)(RCC->CFGR & RCC_CFGR_PPRE1);   
 2344              		.loc 1 1118 0
 2345 0016 5A68     		ldr	r2, [r3, #4]
 2346 0018 02F4E062 		and	r2, r2, #1792
 2347 001c C260     		str	r2, [r0, #12]
1119:Drivers/STM32F3xx_HAL_Driver/Src/stm32f3xx_hal_rcc.c ****   
1120:Drivers/STM32F3xx_HAL_Driver/Src/stm32f3xx_hal_rcc.c ****   /* Get the APB2 configuration ----------------------------------------------*/ 
1121:Drivers/STM32F3xx_HAL_Driver/Src/stm32f3xx_hal_rcc.c ****   RCC_ClkInitStruct->APB2CLKDivider = (uint32_t)((RCC->CFGR & RCC_CFGR_PPRE2) >> 3U);
 2348              		.loc 1 1121 0
 2349 001e 5B68     		ldr	r3, [r3, #4]
 2350 0020 03F46053 		and	r3, r3, #14336
 2351 0024 DB08     		lsrs	r3, r3, #3
 2352 0026 0361     		str	r3, [r0, #16]
1122:Drivers/STM32F3xx_HAL_Driver/Src/stm32f3xx_hal_rcc.c ****   
1123:Drivers/STM32F3xx_HAL_Driver/Src/stm32f3xx_hal_rcc.c ****   /* Get the Flash Wait State (Latency) configuration ------------------------*/   
1124:Drivers/STM32F3xx_HAL_Driver/Src/stm32f3xx_hal_rcc.c ****   *pFLatency = (uint32_t)(FLASH->ACR & FLASH_ACR_LATENCY); 
 2353              		.loc 1 1124 0
 2354 0028 034B     		ldr	r3, .L177+4
 2355 002a 1B68     		ldr	r3, [r3]
 2356 002c 03F00703 		and	r3, r3, #7
 2357 0030 0B60     		str	r3, [r1]
 2358 0032 7047     		bx	lr
 2359              	.L178:
 2360              		.align	2
 2361              	.L177:
 2362 0034 00100240 		.word	1073876992
 2363 0038 00200240 		.word	1073881088
 2364              		.cfi_endproc
 2365              	.LFE134:
 2367              		.section	.text.HAL_RCC_CSSCallback,"ax",%progbits
 2368              		.align	2
 2369              		.weak	HAL_RCC_CSSCallback
 2370              		.thumb
 2371              		.thumb_func
 2373              	HAL_RCC_CSSCallback:
 2374              	.LFB136:
1125:Drivers/STM32F3xx_HAL_Driver/Src/stm32f3xx_hal_rcc.c **** }
1126:Drivers/STM32F3xx_HAL_Driver/Src/stm32f3xx_hal_rcc.c **** 
1127:Drivers/STM32F3xx_HAL_Driver/Src/stm32f3xx_hal_rcc.c **** /**
1128:Drivers/STM32F3xx_HAL_Driver/Src/stm32f3xx_hal_rcc.c ****   * @brief This function handles the RCC CSS interrupt request.
1129:Drivers/STM32F3xx_HAL_Driver/Src/stm32f3xx_hal_rcc.c ****   * @note This API should be called under the NMI_Handler().
1130:Drivers/STM32F3xx_HAL_Driver/Src/stm32f3xx_hal_rcc.c ****   * @retval None
ARM GAS  C:\Users\geoma\AppData\Local\Temp\ccuxvdtO.s 			page 73


1131:Drivers/STM32F3xx_HAL_Driver/Src/stm32f3xx_hal_rcc.c ****   */
1132:Drivers/STM32F3xx_HAL_Driver/Src/stm32f3xx_hal_rcc.c **** void HAL_RCC_NMI_IRQHandler(void)
1133:Drivers/STM32F3xx_HAL_Driver/Src/stm32f3xx_hal_rcc.c **** {
1134:Drivers/STM32F3xx_HAL_Driver/Src/stm32f3xx_hal_rcc.c ****   /* Check RCC CSSF flag  */
1135:Drivers/STM32F3xx_HAL_Driver/Src/stm32f3xx_hal_rcc.c ****   if(__HAL_RCC_GET_IT(RCC_IT_CSS))
1136:Drivers/STM32F3xx_HAL_Driver/Src/stm32f3xx_hal_rcc.c ****   {
1137:Drivers/STM32F3xx_HAL_Driver/Src/stm32f3xx_hal_rcc.c ****     /* RCC Clock Security System interrupt user callback */
1138:Drivers/STM32F3xx_HAL_Driver/Src/stm32f3xx_hal_rcc.c ****     HAL_RCC_CSSCallback();
1139:Drivers/STM32F3xx_HAL_Driver/Src/stm32f3xx_hal_rcc.c ****     
1140:Drivers/STM32F3xx_HAL_Driver/Src/stm32f3xx_hal_rcc.c ****     /* Clear RCC CSS pending bit */
1141:Drivers/STM32F3xx_HAL_Driver/Src/stm32f3xx_hal_rcc.c ****     __HAL_RCC_CLEAR_IT(RCC_IT_CSS);
1142:Drivers/STM32F3xx_HAL_Driver/Src/stm32f3xx_hal_rcc.c ****   }
1143:Drivers/STM32F3xx_HAL_Driver/Src/stm32f3xx_hal_rcc.c **** }
1144:Drivers/STM32F3xx_HAL_Driver/Src/stm32f3xx_hal_rcc.c **** 
1145:Drivers/STM32F3xx_HAL_Driver/Src/stm32f3xx_hal_rcc.c **** /**
1146:Drivers/STM32F3xx_HAL_Driver/Src/stm32f3xx_hal_rcc.c ****   * @brief  RCC Clock Security System interrupt callback
1147:Drivers/STM32F3xx_HAL_Driver/Src/stm32f3xx_hal_rcc.c ****   * @retval none
1148:Drivers/STM32F3xx_HAL_Driver/Src/stm32f3xx_hal_rcc.c ****   */
1149:Drivers/STM32F3xx_HAL_Driver/Src/stm32f3xx_hal_rcc.c **** __weak void HAL_RCC_CSSCallback(void)
1150:Drivers/STM32F3xx_HAL_Driver/Src/stm32f3xx_hal_rcc.c **** {
 2375              		.loc 1 1150 0
 2376              		.cfi_startproc
 2377              		@ args = 0, pretend = 0, frame = 0
 2378              		@ frame_needed = 0, uses_anonymous_args = 0
 2379              		@ link register save eliminated.
 2380 0000 7047     		bx	lr
 2381              		.cfi_endproc
 2382              	.LFE136:
 2384 0002 00BF     		.section	.text.HAL_RCC_NMI_IRQHandler,"ax",%progbits
 2385              		.align	2
 2386              		.global	HAL_RCC_NMI_IRQHandler
 2387              		.thumb
 2388              		.thumb_func
 2390              	HAL_RCC_NMI_IRQHandler:
 2391              	.LFB135:
1133:Drivers/STM32F3xx_HAL_Driver/Src/stm32f3xx_hal_rcc.c ****   /* Check RCC CSSF flag  */
 2392              		.loc 1 1133 0
 2393              		.cfi_startproc
 2394              		@ args = 0, pretend = 0, frame = 0
 2395              		@ frame_needed = 0, uses_anonymous_args = 0
1133:Drivers/STM32F3xx_HAL_Driver/Src/stm32f3xx_hal_rcc.c ****   /* Check RCC CSSF flag  */
 2396              		.loc 1 1133 0
 2397 0000 08B5     		push	{r3, lr}
 2398              	.LCFI9:
 2399              		.cfi_def_cfa_offset 8
 2400              		.cfi_offset 3, -8
 2401              		.cfi_offset 14, -4
1135:Drivers/STM32F3xx_HAL_Driver/Src/stm32f3xx_hal_rcc.c ****   {
 2402              		.loc 1 1135 0
 2403 0002 054B     		ldr	r3, .L183
 2404 0004 9B68     		ldr	r3, [r3, #8]
 2405 0006 13F0800F 		tst	r3, #128
 2406 000a 04D0     		beq	.L180
1138:Drivers/STM32F3xx_HAL_Driver/Src/stm32f3xx_hal_rcc.c ****     
 2407              		.loc 1 1138 0
 2408 000c FFF7FEFF 		bl	HAL_RCC_CSSCallback
 2409              	.LVL260:
ARM GAS  C:\Users\geoma\AppData\Local\Temp\ccuxvdtO.s 			page 74


1141:Drivers/STM32F3xx_HAL_Driver/Src/stm32f3xx_hal_rcc.c ****   }
 2410              		.loc 1 1141 0
 2411 0010 8022     		movs	r2, #128
 2412 0012 024B     		ldr	r3, .L183+4
 2413 0014 1A70     		strb	r2, [r3]
 2414              	.L180:
 2415 0016 08BD     		pop	{r3, pc}
 2416              	.L184:
 2417              		.align	2
 2418              	.L183:
 2419 0018 00100240 		.word	1073876992
 2420 001c 0A100240 		.word	1073877002
 2421              		.cfi_endproc
 2422              	.LFE135:
 2424              		.global	aPredivFactorTable
 2425              		.global	aPLLMULFactorTable
 2426              		.section	.rodata.aPredivFactorTable,"a",%progbits
 2427              		.align	2
 2428              		.set	.LANCHOR1,. + 0
 2431              	aPredivFactorTable:
 2432 0000 01       		.byte	1
 2433 0001 02       		.byte	2
 2434 0002 03       		.byte	3
 2435 0003 04       		.byte	4
 2436 0004 05       		.byte	5
 2437 0005 06       		.byte	6
 2438 0006 07       		.byte	7
 2439 0007 08       		.byte	8
 2440 0008 09       		.byte	9
 2441 0009 0A       		.byte	10
 2442 000a 0B       		.byte	11
 2443 000b 0C       		.byte	12
 2444 000c 0D       		.byte	13
 2445 000d 0E       		.byte	14
 2446 000e 0F       		.byte	15
 2447 000f 10       		.byte	16
 2448              		.section	.rodata.aPLLMULFactorTable,"a",%progbits
 2449              		.align	2
 2450              		.set	.LANCHOR0,. + 0
 2453              	aPLLMULFactorTable:
 2454 0000 02       		.byte	2
 2455 0001 03       		.byte	3
 2456 0002 04       		.byte	4
 2457 0003 05       		.byte	5
 2458 0004 06       		.byte	6
 2459 0005 07       		.byte	7
 2460 0006 08       		.byte	8
 2461 0007 09       		.byte	9
 2462 0008 0A       		.byte	10
 2463 0009 0B       		.byte	11
 2464 000a 0C       		.byte	12
 2465 000b 0D       		.byte	13
 2466 000c 0E       		.byte	14
 2467 000d 0F       		.byte	15
 2468 000e 10       		.byte	16
 2469 000f 10       		.byte	16
 2470              		.text
ARM GAS  C:\Users\geoma\AppData\Local\Temp\ccuxvdtO.s 			page 75


 2471              	.Letext0:
 2472              		.file 3 "c:\\program files (x86)\\gnu tools arm embedded\\4.9 2015q2\\arm-none-eabi\\include\\mach
 2473              		.file 4 "c:\\program files (x86)\\gnu tools arm embedded\\4.9 2015q2\\arm-none-eabi\\include\\sys\
 2474              		.file 5 "Drivers/CMSIS/Device/ST/STM32F3xx/Include/stm32f302x8.h"
 2475              		.file 6 "Drivers/CMSIS/Device/ST/STM32F3xx/Include/stm32f3xx.h"
 2476              		.file 7 "Drivers/STM32F3xx_HAL_Driver/Inc/stm32f3xx_hal_def.h"
 2477              		.file 8 "Drivers/STM32F3xx_HAL_Driver/Inc/stm32f3xx_hal_rcc.h"
 2478              		.file 9 "Drivers/STM32F3xx_HAL_Driver/Inc/stm32f3xx_hal_gpio.h"
 2479              		.file 10 "Drivers/CMSIS/Include/core_cm4.h"
 2480              		.file 11 "Drivers/CMSIS/Device/ST/STM32F3xx/Include/system_stm32f3xx.h"
 2481              		.file 12 "Drivers/STM32F3xx_HAL_Driver/Inc/stm32f3xx_hal.h"
ARM GAS  C:\Users\geoma\AppData\Local\Temp\ccuxvdtO.s 			page 76


DEFINED SYMBOLS
                            *ABS*:00000000 stm32f3xx_hal_rcc.c
C:\Users\geoma\AppData\Local\Temp\ccuxvdtO.s:21     .text.HAL_RCC_DeInit:00000000 $t
C:\Users\geoma\AppData\Local\Temp\ccuxvdtO.s:26     .text.HAL_RCC_DeInit:00000000 HAL_RCC_DeInit
C:\Users\geoma\AppData\Local\Temp\ccuxvdtO.s:70     .text.HAL_RCC_DeInit:00000038 $d
C:\Users\geoma\AppData\Local\Temp\ccuxvdtO.s:78     .text.HAL_RCC_OscConfig:00000000 $t
C:\Users\geoma\AppData\Local\Temp\ccuxvdtO.s:83     .text.HAL_RCC_OscConfig:00000000 HAL_RCC_OscConfig
C:\Users\geoma\AppData\Local\Temp\ccuxvdtO.s:709    .text.HAL_RCC_OscConfig:000002ec $d
C:\Users\geoma\AppData\Local\Temp\ccuxvdtO.s:714    .text.HAL_RCC_OscConfig:000002f4 $t
C:\Users\geoma\AppData\Local\Temp\ccuxvdtO.s:1388   .text.HAL_RCC_OscConfig:00000608 $d
C:\Users\geoma\AppData\Local\Temp\ccuxvdtO.s:1393   .text.HAL_RCC_OscConfig:00000610 $t
C:\Users\geoma\AppData\Local\Temp\ccuxvdtO.s:1411   .text.HAL_RCC_MCOConfig:00000000 $t
C:\Users\geoma\AppData\Local\Temp\ccuxvdtO.s:1416   .text.HAL_RCC_MCOConfig:00000000 HAL_RCC_MCOConfig
C:\Users\geoma\AppData\Local\Temp\ccuxvdtO.s:1483   .text.HAL_RCC_MCOConfig:0000004c $d
C:\Users\geoma\AppData\Local\Temp\ccuxvdtO.s:1488   .text.HAL_RCC_EnableCSS:00000000 $t
C:\Users\geoma\AppData\Local\Temp\ccuxvdtO.s:1493   .text.HAL_RCC_EnableCSS:00000000 HAL_RCC_EnableCSS
C:\Users\geoma\AppData\Local\Temp\ccuxvdtO.s:1525   .text.HAL_RCC_DisableCSS:00000000 $t
C:\Users\geoma\AppData\Local\Temp\ccuxvdtO.s:1530   .text.HAL_RCC_DisableCSS:00000000 HAL_RCC_DisableCSS
C:\Users\geoma\AppData\Local\Temp\ccuxvdtO.s:1562   .text.HAL_RCC_GetSysClockFreq:00000000 $t
C:\Users\geoma\AppData\Local\Temp\ccuxvdtO.s:1567   .text.HAL_RCC_GetSysClockFreq:00000000 HAL_RCC_GetSysClockFreq
C:\Users\geoma\AppData\Local\Temp\ccuxvdtO.s:1657   .text.HAL_RCC_GetSysClockFreq:0000005c $d
C:\Users\geoma\AppData\Local\Temp\ccuxvdtO.s:1666   .text.HAL_RCC_ClockConfig:00000000 $t
C:\Users\geoma\AppData\Local\Temp\ccuxvdtO.s:1671   .text.HAL_RCC_ClockConfig:00000000 HAL_RCC_ClockConfig
C:\Users\geoma\AppData\Local\Temp\ccuxvdtO.s:2035   .text.HAL_RCC_ClockConfig:000001d0 $d
C:\Users\geoma\AppData\Local\Temp\ccuxvdtO.s:2043   .text.HAL_RCC_GetHCLKFreq:00000000 $t
C:\Users\geoma\AppData\Local\Temp\ccuxvdtO.s:2048   .text.HAL_RCC_GetHCLKFreq:00000000 HAL_RCC_GetHCLKFreq
C:\Users\geoma\AppData\Local\Temp\ccuxvdtO.s:2062   .text.HAL_RCC_GetHCLKFreq:00000008 $d
C:\Users\geoma\AppData\Local\Temp\ccuxvdtO.s:2067   .text.HAL_RCC_GetPCLK1Freq:00000000 $t
C:\Users\geoma\AppData\Local\Temp\ccuxvdtO.s:2072   .text.HAL_RCC_GetPCLK1Freq:00000000 HAL_RCC_GetPCLK1Freq
C:\Users\geoma\AppData\Local\Temp\ccuxvdtO.s:2113   .text.HAL_RCC_GetPCLK1Freq:00000024 $d
C:\Users\geoma\AppData\Local\Temp\ccuxvdtO.s:2119   .text.HAL_RCC_GetPCLK2Freq:00000000 $t
C:\Users\geoma\AppData\Local\Temp\ccuxvdtO.s:2124   .text.HAL_RCC_GetPCLK2Freq:00000000 HAL_RCC_GetPCLK2Freq
C:\Users\geoma\AppData\Local\Temp\ccuxvdtO.s:2165   .text.HAL_RCC_GetPCLK2Freq:00000024 $d
C:\Users\geoma\AppData\Local\Temp\ccuxvdtO.s:2171   .text.HAL_RCC_GetOscConfig:00000000 $t
C:\Users\geoma\AppData\Local\Temp\ccuxvdtO.s:2176   .text.HAL_RCC_GetOscConfig:00000000 HAL_RCC_GetOscConfig
C:\Users\geoma\AppData\Local\Temp\ccuxvdtO.s:2314   .text.HAL_RCC_GetOscConfig:000000bc $d
C:\Users\geoma\AppData\Local\Temp\ccuxvdtO.s:2319   .text.HAL_RCC_GetClockConfig:00000000 $t
C:\Users\geoma\AppData\Local\Temp\ccuxvdtO.s:2324   .text.HAL_RCC_GetClockConfig:00000000 HAL_RCC_GetClockConfig
C:\Users\geoma\AppData\Local\Temp\ccuxvdtO.s:2362   .text.HAL_RCC_GetClockConfig:00000034 $d
C:\Users\geoma\AppData\Local\Temp\ccuxvdtO.s:2368   .text.HAL_RCC_CSSCallback:00000000 $t
C:\Users\geoma\AppData\Local\Temp\ccuxvdtO.s:2373   .text.HAL_RCC_CSSCallback:00000000 HAL_RCC_CSSCallback
C:\Users\geoma\AppData\Local\Temp\ccuxvdtO.s:2385   .text.HAL_RCC_NMI_IRQHandler:00000000 $t
C:\Users\geoma\AppData\Local\Temp\ccuxvdtO.s:2390   .text.HAL_RCC_NMI_IRQHandler:00000000 HAL_RCC_NMI_IRQHandler
C:\Users\geoma\AppData\Local\Temp\ccuxvdtO.s:2419   .text.HAL_RCC_NMI_IRQHandler:00000018 $d
C:\Users\geoma\AppData\Local\Temp\ccuxvdtO.s:2431   .rodata.aPredivFactorTable:00000000 aPredivFactorTable
C:\Users\geoma\AppData\Local\Temp\ccuxvdtO.s:2453   .rodata.aPLLMULFactorTable:00000000 aPLLMULFactorTable
C:\Users\geoma\AppData\Local\Temp\ccuxvdtO.s:2427   .rodata.aPredivFactorTable:00000000 $d
C:\Users\geoma\AppData\Local\Temp\ccuxvdtO.s:2449   .rodata.aPLLMULFactorTable:00000000 $d
                     .debug_frame:00000010 $d

UNDEFINED SYMBOLS
SystemCoreClock
HAL_GetTick
HAL_GPIO_Init
HAL_InitTick
AHBPrescTable
APBPrescTable
ARM GAS  C:\Users\geoma\AppData\Local\Temp\ccuxvdtO.s 			page 77


