ARM GAS  C:\Users\geoma\AppData\Local\Temp\ccB1X9Yb.s 			page 1


   1              		.syntax unified
   2              		.cpu cortex-m4
   3              		.eabi_attribute 27, 1
   4              		.eabi_attribute 28, 1
   5              		.fpu fpv4-sp-d16
   6              		.eabi_attribute 20, 1
   7              		.eabi_attribute 21, 1
   8              		.eabi_attribute 23, 3
   9              		.eabi_attribute 24, 1
  10              		.eabi_attribute 25, 1
  11              		.eabi_attribute 26, 1
  12              		.eabi_attribute 30, 1
  13              		.eabi_attribute 34, 1
  14              		.eabi_attribute 18, 4
  15              		.thumb
  16              		.file	"USART_IT_F302R8_04.c"
  17              		.text
  18              	.Ltext0:
  19              		.cfi_sections	.debug_frame
  20              		.section	.text.assert_sci_failed,"ax",%progbits
  21              		.align	2
  22              		.global	assert_sci_failed
  23              		.thumb
  24              		.thumb_func
  26              	assert_sci_failed:
  27              	.LFB156:
  28              		.file 1 "C:/Users/geoma/Desktop/Scilab/scilab_test/USART_IT_F302R8_04/USART_IT_F302R8_04/Src/USART
   1:C:/Users/geoma/Desktop/Scilab/scilab_test/USART_IT_F302R8_04/USART_IT_F302R8_04/Src\USART_IT_F302R8_04.c **** /*
   2:C:/Users/geoma/Desktop/Scilab/scilab_test/USART_IT_F302R8_04/USART_IT_F302R8_04/Src\USART_IT_F302R8_04.c ****  * File: USART_IT_F302R8_04.c
   3:C:/Users/geoma/Desktop/Scilab/scilab_test/USART_IT_F302R8_04/USART_IT_F302R8_04/Src\USART_IT_F302R8_04.c ****  *
   4:C:/Users/geoma/Desktop/Scilab/scilab_test/USART_IT_F302R8_04/USART_IT_F302R8_04/Src\USART_IT_F302R8_04.c ****  * Generated by STM32 Coder for Xcos with scilab-5.5.2
   5:C:/Users/geoma/Desktop/Scilab/scilab_test/USART_IT_F302R8_04/USART_IT_F302R8_04/Src\USART_IT_F302R8_04.c ****  * C/C++ source code generated on  :08-Oct-2020
   6:C:/Users/geoma/Desktop/Scilab/scilab_test/USART_IT_F302R8_04/USART_IT_F302R8_04/Src\USART_IT_F302R8_04.c ****  *
   7:C:/Users/geoma/Desktop/Scilab/scilab_test/USART_IT_F302R8_04/USART_IT_F302R8_04/Src\USART_IT_F302R8_04.c ****  * Model version      : 1.0
   8:C:/Users/geoma/Desktop/Scilab/scilab_test/USART_IT_F302R8_04/USART_IT_F302R8_04/Src\USART_IT_F302R8_04.c ****  *
   9:C:/Users/geoma/Desktop/Scilab/scilab_test/USART_IT_F302R8_04/USART_IT_F302R8_04/Src\USART_IT_F302R8_04.c ****  * ******************************************************************************
  10:C:/Users/geoma/Desktop/Scilab/scilab_test/USART_IT_F302R8_04/USART_IT_F302R8_04/Src\USART_IT_F302R8_04.c ****  * * attention
  11:C:/Users/geoma/Desktop/Scilab/scilab_test/USART_IT_F302R8_04/USART_IT_F302R8_04/Src\USART_IT_F302R8_04.c ****  * *
  12:C:/Users/geoma/Desktop/Scilab/scilab_test/USART_IT_F302R8_04/USART_IT_F302R8_04/Src\USART_IT_F302R8_04.c ****  * * THE PRESENT FIRMWARE WHICH IS FOR GUIDANCE ONLY AIMS AT PROVIDING CUSTOMERS
  13:C:/Users/geoma/Desktop/Scilab/scilab_test/USART_IT_F302R8_04/USART_IT_F302R8_04/Src\USART_IT_F302R8_04.c ****  * * WITH CODING INFORMATION REGARDING THEIR PRODUCTS IN ORDER FOR THEM TO SAVE
  14:C:/Users/geoma/Desktop/Scilab/scilab_test/USART_IT_F302R8_04/USART_IT_F302R8_04/Src\USART_IT_F302R8_04.c ****  * * TIME. AS A RESULT, STMICROELECTRONICS SHALL NOT BE HELD LIABLE FOR ANY
  15:C:/Users/geoma/Desktop/Scilab/scilab_test/USART_IT_F302R8_04/USART_IT_F302R8_04/Src\USART_IT_F302R8_04.c ****  * * DIRECT, INDIRECT OR CONSEQUENTIAL DAMAGES WITH RESPECT TO ANY CLAIMS ARISING
  16:C:/Users/geoma/Desktop/Scilab/scilab_test/USART_IT_F302R8_04/USART_IT_F302R8_04/Src\USART_IT_F302R8_04.c ****  * * FROM THE CONTENT OF SUCH FIRMWARE AND/OR THE USE MADE BY CUSTOMERS OF THE
  17:C:/Users/geoma/Desktop/Scilab/scilab_test/USART_IT_F302R8_04/USART_IT_F302R8_04/Src\USART_IT_F302R8_04.c ****  * * CODING INFORMATION CONTAINED HEREIN IN CONNECTION WITH THEIR PRODUCTS.
  18:C:/Users/geoma/Desktop/Scilab/scilab_test/USART_IT_F302R8_04/USART_IT_F302R8_04/Src\USART_IT_F302R8_04.c ****  * *
  19:C:/Users/geoma/Desktop/Scilab/scilab_test/USART_IT_F302R8_04/USART_IT_F302R8_04/Src\USART_IT_F302R8_04.c ****  * ******************************************************************************
  20:C:/Users/geoma/Desktop/Scilab/scilab_test/USART_IT_F302R8_04/USART_IT_F302R8_04/Src\USART_IT_F302R8_04.c ****  */
  21:C:/Users/geoma/Desktop/Scilab/scilab_test/USART_IT_F302R8_04/USART_IT_F302R8_04/Src\USART_IT_F302R8_04.c **** 
  22:C:/Users/geoma/Desktop/Scilab/scilab_test/USART_IT_F302R8_04/USART_IT_F302R8_04/Src\USART_IT_F302R8_04.c **** /* ---- Headers ---- */
  23:C:/Users/geoma/Desktop/Scilab/scilab_test/USART_IT_F302R8_04/USART_IT_F302R8_04/Src\USART_IT_F302R8_04.c **** #include <string.h> // memcpy
  24:C:/Users/geoma/Desktop/Scilab/scilab_test/USART_IT_F302R8_04/USART_IT_F302R8_04/Src\USART_IT_F302R8_04.c **** #include "STM32_Config.h"
  25:C:/Users/geoma/Desktop/Scilab/scilab_test/USART_IT_F302R8_04/USART_IT_F302R8_04/Src\USART_IT_F302R8_04.c **** 
  26:C:/Users/geoma/Desktop/Scilab/scilab_test/USART_IT_F302R8_04/USART_IT_F302R8_04/Src\USART_IT_F302R8_04.c **** #include "scicos_block4.h"
  27:C:/Users/geoma/Desktop/Scilab/scilab_test/USART_IT_F302R8_04/USART_IT_F302R8_04/Src\USART_IT_F302R8_04.c **** 
  28:C:/Users/geoma/Desktop/Scilab/scilab_test/USART_IT_F302R8_04/USART_IT_F302R8_04/Src\USART_IT_F302R8_04.c **** #include "USART_IT_F302R8_04.h"
  29:C:/Users/geoma/Desktop/Scilab/scilab_test/USART_IT_F302R8_04/USART_IT_F302R8_04/Src\USART_IT_F302R8_04.c **** 
  30:C:/Users/geoma/Desktop/Scilab/scilab_test/USART_IT_F302R8_04/USART_IT_F302R8_04/Src\USART_IT_F302R8_04.c **** double get_scicos_time(void);
ARM GAS  C:\Users\geoma\AppData\Local\Temp\ccB1X9Yb.s 			page 2


  31:C:/Users/geoma/Desktop/Scilab/scilab_test/USART_IT_F302R8_04/USART_IT_F302R8_04/Src\USART_IT_F302R8_04.c **** void set_scicos_time(double t);
  32:C:/Users/geoma/Desktop/Scilab/scilab_test/USART_IT_F302R8_04/USART_IT_F302R8_04/Src\USART_IT_F302R8_04.c **** int get_phase_simulation(void);
  33:C:/Users/geoma/Desktop/Scilab/scilab_test/USART_IT_F302R8_04/USART_IT_F302R8_04/Src\USART_IT_F302R8_04.c **** void assert_sci_failed(const char* e, const char* file, int line){}
  29              		.loc 1 33 0
  30              		.cfi_startproc
  31              		@ args = 0, pretend = 0, frame = 0
  32              		@ frame_needed = 0, uses_anonymous_args = 0
  33              		@ link register save eliminated.
  34              	.LVL0:
  35 0000 7047     		bx	lr
  36              		.cfi_endproc
  37              	.LFE156:
  39 0002 00BF     		.section	.text.USART_IT_F302R8_04_Initialize,"ax",%progbits
  40              		.align	2
  41              		.global	USART_IT_F302R8_04_Initialize
  42              		.thumb
  43              		.thumb_func
  45              	USART_IT_F302R8_04_Initialize:
  46              	.LFB157:
  34:C:/Users/geoma/Desktop/Scilab/scilab_test/USART_IT_F302R8_04/USART_IT_F302R8_04/Src\USART_IT_F302R8_04.c **** 
  35:C:/Users/geoma/Desktop/Scilab/scilab_test/USART_IT_F302R8_04/USART_IT_F302R8_04/Src\USART_IT_F302R8_04.c ****  
  36:C:/Users/geoma/Desktop/Scilab/scilab_test/USART_IT_F302R8_04/USART_IT_F302R8_04/Src\USART_IT_F302R8_04.c **** #define max(a,b) ((a) >= (b) ? (a) : (b))
  37:C:/Users/geoma/Desktop/Scilab/scilab_test/USART_IT_F302R8_04/USART_IT_F302R8_04/Src\USART_IT_F302R8_04.c **** #define min(a,b) ((a) <= (b) ? (a) : (b))
  38:C:/Users/geoma/Desktop/Scilab/scilab_test/USART_IT_F302R8_04/USART_IT_F302R8_04/Src\USART_IT_F302R8_04.c ****  
  39:C:/Users/geoma/Desktop/Scilab/scilab_test/USART_IT_F302R8_04/USART_IT_F302R8_04/Src\USART_IT_F302R8_04.c **** /* Table of constant values passed by ref */
  40:C:/Users/geoma/Desktop/Scilab/scilab_test/USART_IT_F302R8_04/USART_IT_F302R8_04/Src\USART_IT_F302R8_04.c **** static const int nrd_0 = 0;
  41:C:/Users/geoma/Desktop/Scilab/scilab_test/USART_IT_F302R8_04/USART_IT_F302R8_04/Src\USART_IT_F302R8_04.c **** static const int nrd_1 = 1;
  42:C:/Users/geoma/Desktop/Scilab/scilab_test/USART_IT_F302R8_04/USART_IT_F302R8_04/Src\USART_IT_F302R8_04.c **** static const int nrd_2 = 2;
  43:C:/Users/geoma/Desktop/Scilab/scilab_test/USART_IT_F302R8_04/USART_IT_F302R8_04/Src\USART_IT_F302R8_04.c **** static const int nrd_10 = 10;
  44:C:/Users/geoma/Desktop/Scilab/scilab_test/USART_IT_F302R8_04/USART_IT_F302R8_04/Src\USART_IT_F302R8_04.c **** static const int nrd_11 = 11;
  45:C:/Users/geoma/Desktop/Scilab/scilab_test/USART_IT_F302R8_04/USART_IT_F302R8_04/Src\USART_IT_F302R8_04.c **** static const int nrd_81 = 81;
  46:C:/Users/geoma/Desktop/Scilab/scilab_test/USART_IT_F302R8_04/USART_IT_F302R8_04/Src\USART_IT_F302R8_04.c **** static const int nrd_82 = 82;
  47:C:/Users/geoma/Desktop/Scilab/scilab_test/USART_IT_F302R8_04/USART_IT_F302R8_04/Src\USART_IT_F302R8_04.c **** static const int nrd_84 = 84;
  48:C:/Users/geoma/Desktop/Scilab/scilab_test/USART_IT_F302R8_04/USART_IT_F302R8_04/Src\USART_IT_F302R8_04.c **** static const int nrd_811 = 811;
  49:C:/Users/geoma/Desktop/Scilab/scilab_test/USART_IT_F302R8_04/USART_IT_F302R8_04/Src\USART_IT_F302R8_04.c **** static const int nrd_812 = 812;
  50:C:/Users/geoma/Desktop/Scilab/scilab_test/USART_IT_F302R8_04/USART_IT_F302R8_04/Src\USART_IT_F302R8_04.c **** static const int nrd_814 = 814;
  51:C:/Users/geoma/Desktop/Scilab/scilab_test/USART_IT_F302R8_04/USART_IT_F302R8_04/Src\USART_IT_F302R8_04.c **** 
  52:C:/Users/geoma/Desktop/Scilab/scilab_test/USART_IT_F302R8_04/USART_IT_F302R8_04/Src\USART_IT_F302R8_04.c **** /* Some general static variables passed by ref */
  53:C:/Users/geoma/Desktop/Scilab/scilab_test/USART_IT_F302R8_04/USART_IT_F302R8_04/Src\USART_IT_F302R8_04.c **** static int aaa=0, bbb=0;
  54:C:/Users/geoma/Desktop/Scilab/scilab_test/USART_IT_F302R8_04/USART_IT_F302R8_04/Src\USART_IT_F302R8_04.c **** 
  55:C:/Users/geoma/Desktop/Scilab/scilab_test/USART_IT_F302R8_04/USART_IT_F302R8_04/Src\USART_IT_F302R8_04.c **** /* data shared ptr declaration */
  56:C:/Users/geoma/Desktop/Scilab/scilab_test/USART_IT_F302R8_04/USART_IT_F302R8_04/Src\USART_IT_F302R8_04.c **** void **work;
  57:C:/Users/geoma/Desktop/Scilab/scilab_test/USART_IT_F302R8_04/USART_IT_F302R8_04/Src\USART_IT_F302R8_04.c **** void **USART_IT_F302R8_04_block_outtbptr;
  58:C:/Users/geoma/Desktop/Scilab/scilab_test/USART_IT_F302R8_04/USART_IT_F302R8_04/Src\USART_IT_F302R8_04.c **** scicos_block block_USART_IT_F302R8_04;
  59:C:/Users/geoma/Desktop/Scilab/scilab_test/USART_IT_F302R8_04/USART_IT_F302R8_04/Src\USART_IT_F302R8_04.c **** /* Dumy variable not used in embedded word but necessary for current version based on PC scicos C f
  60:C:/Users/geoma/Desktop/Scilab/scilab_test/USART_IT_F302R8_04/USART_IT_F302R8_04/Src\USART_IT_F302R8_04.c **** int local_flag=4; //Set to initialization
  61:C:/Users/geoma/Desktop/Scilab/scilab_test/USART_IT_F302R8_04/USART_IT_F302R8_04/Src\USART_IT_F302R8_04.c **** double t; //Simulation time (not used)
  62:C:/Users/geoma/Desktop/Scilab/scilab_test/USART_IT_F302R8_04/USART_IT_F302R8_04/Src\USART_IT_F302R8_04.c **** 
  63:C:/Users/geoma/Desktop/Scilab/scilab_test/USART_IT_F302R8_04/USART_IT_F302R8_04/Src\USART_IT_F302R8_04.c **** double sci_time;
  64:C:/Users/geoma/Desktop/Scilab/scilab_test/USART_IT_F302R8_04/USART_IT_F302R8_04/Src\USART_IT_F302R8_04.c **** 
  65:C:/Users/geoma/Desktop/Scilab/scilab_test/USART_IT_F302R8_04/USART_IT_F302R8_04/Src\USART_IT_F302R8_04.c **** const int size_SCSREAL_N_1x1[] = {1, 1, SCSREAL_N};
  66:C:/Users/geoma/Desktop/Scilab/scilab_test/USART_IT_F302R8_04/USART_IT_F302R8_04/Src\USART_IT_F302R8_04.c **** 
  67:C:/Users/geoma/Desktop/Scilab/scilab_test/USART_IT_F302R8_04/USART_IT_F302R8_04/Src\USART_IT_F302R8_04.c **** /* def real parameters */
  68:C:/Users/geoma/Desktop/Scilab/scilab_test/USART_IT_F302R8_04/USART_IT_F302R8_04/Src\USART_IT_F302R8_04.c **** const double RPAR1[ ] = {
  69:C:/Users/geoma/Desktop/Scilab/scilab_test/USART_IT_F302R8_04/USART_IT_F302R8_04/Src\USART_IT_F302R8_04.c **** /*
  70:C:/Users/geoma/Desktop/Scilab/scilab_test/USART_IT_F302R8_04/USART_IT_F302R8_04/Src\USART_IT_F302R8_04.c ****  * Routine name of block: evtdly
  71:C:/Users/geoma/Desktop/Scilab/scilab_test/USART_IT_F302R8_04/USART_IT_F302R8_04/Src\USART_IT_F302R8_04.c ****  * UID of block: 41b3fae6:13d11b95ac2:-7d2e
ARM GAS  C:\Users\geoma\AppData\Local\Temp\ccB1X9Yb.s 			page 3


  72:C:/Users/geoma/Desktop/Scilab/scilab_test/USART_IT_F302R8_04/USART_IT_F302R8_04/Src\USART_IT_F302R8_04.c ****  * Compiled structure index: 1
  73:C:/Users/geoma/Desktop/Scilab/scilab_test/USART_IT_F302R8_04/USART_IT_F302R8_04/Src\USART_IT_F302R8_04.c ****  */
  74:C:/Users/geoma/Desktop/Scilab/scilab_test/USART_IT_F302R8_04/USART_IT_F302R8_04/Src\USART_IT_F302R8_04.c **** 5.0000000000000000000000000E-01,
  75:C:/Users/geoma/Desktop/Scilab/scilab_test/USART_IT_F302R8_04/USART_IT_F302R8_04/Src\USART_IT_F302R8_04.c **** 
  76:C:/Users/geoma/Desktop/Scilab/scilab_test/USART_IT_F302R8_04/USART_IT_F302R8_04/Src\USART_IT_F302R8_04.c **** };
  77:C:/Users/geoma/Desktop/Scilab/scilab_test/USART_IT_F302R8_04/USART_IT_F302R8_04/Src\USART_IT_F302R8_04.c **** 
  78:C:/Users/geoma/Desktop/Scilab/scilab_test/USART_IT_F302R8_04/USART_IT_F302R8_04/Src\USART_IT_F302R8_04.c **** /* def integer parameters */
  79:C:/Users/geoma/Desktop/Scilab/scilab_test/USART_IT_F302R8_04/USART_IT_F302R8_04/Src\USART_IT_F302R8_04.c **** const int IPAR1[ ] = {
  80:C:/Users/geoma/Desktop/Scilab/scilab_test/USART_IT_F302R8_04/USART_IT_F302R8_04/Src\USART_IT_F302R8_04.c **** /*
  81:C:/Users/geoma/Desktop/Scilab/scilab_test/USART_IT_F302R8_04/USART_IT_F302R8_04/Src\USART_IT_F302R8_04.c ****  * Routine name of block: convert
  82:C:/Users/geoma/Desktop/Scilab/scilab_test/USART_IT_F302R8_04/USART_IT_F302R8_04/Src\USART_IT_F302R8_04.c ****  * UID of block: -5f95c7d:1566ea22c33:-7f04
  83:C:/Users/geoma/Desktop/Scilab/scilab_test/USART_IT_F302R8_04/USART_IT_F302R8_04/Src\USART_IT_F302R8_04.c ****  * Compiled structure index: 2
  84:C:/Users/geoma/Desktop/Scilab/scilab_test/USART_IT_F302R8_04/USART_IT_F302R8_04/Src\USART_IT_F302R8_04.c ****  */
  85:C:/Users/geoma/Desktop/Scilab/scilab_test/USART_IT_F302R8_04/USART_IT_F302R8_04/Src\USART_IT_F302R8_04.c **** 6,
  86:C:/Users/geoma/Desktop/Scilab/scilab_test/USART_IT_F302R8_04/USART_IT_F302R8_04/Src\USART_IT_F302R8_04.c **** 
  87:C:/Users/geoma/Desktop/Scilab/scilab_test/USART_IT_F302R8_04/USART_IT_F302R8_04/Src\USART_IT_F302R8_04.c **** };
  88:C:/Users/geoma/Desktop/Scilab/scilab_test/USART_IT_F302R8_04/USART_IT_F302R8_04/Src\USART_IT_F302R8_04.c **** 
  89:C:/Users/geoma/Desktop/Scilab/scilab_test/USART_IT_F302R8_04/USART_IT_F302R8_04/Src\USART_IT_F302R8_04.c **** /* def object parameters */
  90:C:/Users/geoma/Desktop/Scilab/scilab_test/USART_IT_F302R8_04/USART_IT_F302R8_04/Src\USART_IT_F302R8_04.c **** /*
  91:C:/Users/geoma/Desktop/Scilab/scilab_test/USART_IT_F302R8_04/USART_IT_F302R8_04/Src\USART_IT_F302R8_04.c ****  * Routine name of block: cstblk4_m
  92:C:/Users/geoma/Desktop/Scilab/scilab_test/USART_IT_F302R8_04/USART_IT_F302R8_04/Src\USART_IT_F302R8_04.c ****  * UID of block: -5f95c7d:1566ea22c33:-7ecc
  93:C:/Users/geoma/Desktop/Scilab/scilab_test/USART_IT_F302R8_04/USART_IT_F302R8_04/Src\USART_IT_F302R8_04.c ****  * Compiled structure index: 3
  94:C:/Users/geoma/Desktop/Scilab/scilab_test/USART_IT_F302R8_04/USART_IT_F302R8_04/Src\USART_IT_F302R8_04.c ****  */
  95:C:/Users/geoma/Desktop/Scilab/scilab_test/USART_IT_F302R8_04/USART_IT_F302R8_04/Src\USART_IT_F302R8_04.c **** static double OPAR_1[] = {4};
  96:C:/Users/geoma/Desktop/Scilab/scilab_test/USART_IT_F302R8_04/USART_IT_F302R8_04/Src\USART_IT_F302R8_04.c **** 
  97:C:/Users/geoma/Desktop/Scilab/scilab_test/USART_IT_F302R8_04/USART_IT_F302R8_04/Src\USART_IT_F302R8_04.c **** /* Initial values */
  98:C:/Users/geoma/Desktop/Scilab/scilab_test/USART_IT_F302R8_04/USART_IT_F302R8_04/Src\USART_IT_F302R8_04.c **** 
  99:C:/Users/geoma/Desktop/Scilab/scilab_test/USART_IT_F302R8_04/USART_IT_F302R8_04/Src\USART_IT_F302R8_04.c **** /* Note that z[]=[z_initial_condition;outtbptr;work]
 100:C:/Users/geoma/Desktop/Scilab/scilab_test/USART_IT_F302R8_04/USART_IT_F302R8_04/Src\USART_IT_F302R8_04.c ****     z_initial_condition={};
 101:C:/Users/geoma/Desktop/Scilab/scilab_test/USART_IT_F302R8_04/USART_IT_F302R8_04/Src\USART_IT_F302R8_04.c ****     outtbptr={0,0,0,0};
 102:C:/Users/geoma/Desktop/Scilab/scilab_test/USART_IT_F302R8_04/USART_IT_F302R8_04/Src\USART_IT_F302R8_04.c ****     work= {0,0,0,0,0};
 103:C:/Users/geoma/Desktop/Scilab/scilab_test/USART_IT_F302R8_04/USART_IT_F302R8_04/Src\USART_IT_F302R8_04.c ****   */
 104:C:/Users/geoma/Desktop/Scilab/scilab_test/USART_IT_F302R8_04/USART_IT_F302R8_04/Src\USART_IT_F302R8_04.c **** 
 105:C:/Users/geoma/Desktop/Scilab/scilab_test/USART_IT_F302R8_04/USART_IT_F302R8_04/Src\USART_IT_F302R8_04.c ****    double z[]={0,0,0,0,0,0,0,0,0};
 106:C:/Users/geoma/Desktop/Scilab/scilab_test/USART_IT_F302R8_04/USART_IT_F302R8_04/Src\USART_IT_F302R8_04.c **** 
 107:C:/Users/geoma/Desktop/Scilab/scilab_test/USART_IT_F302R8_04/USART_IT_F302R8_04/Src\USART_IT_F302R8_04.c ****   int evoutptr[1];
 108:C:/Users/geoma/Desktop/Scilab/scilab_test/USART_IT_F302R8_04/USART_IT_F302R8_04/Src\USART_IT_F302R8_04.c ****   void* inptr[1];
 109:C:/Users/geoma/Desktop/Scilab/scilab_test/USART_IT_F302R8_04/USART_IT_F302R8_04/Src\USART_IT_F302R8_04.c ****   int inszptr[3*1];
 110:C:/Users/geoma/Desktop/Scilab/scilab_test/USART_IT_F302R8_04/USART_IT_F302R8_04/Src\USART_IT_F302R8_04.c **** 
 111:C:/Users/geoma/Desktop/Scilab/scilab_test/USART_IT_F302R8_04/USART_IT_F302R8_04/Src\USART_IT_F302R8_04.c ****   void* outptr[2];
 112:C:/Users/geoma/Desktop/Scilab/scilab_test/USART_IT_F302R8_04/USART_IT_F302R8_04/Src\USART_IT_F302R8_04.c ****   int outszptr[3*2];
 113:C:/Users/geoma/Desktop/Scilab/scilab_test/USART_IT_F302R8_04/USART_IT_F302R8_04/Src\USART_IT_F302R8_04.c **** 
 114:C:/Users/geoma/Desktop/Scilab/scilab_test/USART_IT_F302R8_04/USART_IT_F302R8_04/Src\USART_IT_F302R8_04.c **** 
 115:C:/Users/geoma/Desktop/Scilab/scilab_test/USART_IT_F302R8_04/USART_IT_F302R8_04/Src\USART_IT_F302R8_04.c ****   /* outtb declaration */
 116:C:/Users/geoma/Desktop/Scilab/scilab_test/USART_IT_F302R8_04/USART_IT_F302R8_04/Src\USART_IT_F302R8_04.c ****   unsigned short outtb_2[1]={0};
 117:C:/Users/geoma/Desktop/Scilab/scilab_test/USART_IT_F302R8_04/USART_IT_F302R8_04/Src\USART_IT_F302R8_04.c ****   double outtb_1[1]={0};
 118:C:/Users/geoma/Desktop/Scilab/scilab_test/USART_IT_F302R8_04/USART_IT_F302R8_04/Src\USART_IT_F302R8_04.c **** 
 119:C:/Users/geoma/Desktop/Scilab/scilab_test/USART_IT_F302R8_04/USART_IT_F302R8_04/Src\USART_IT_F302R8_04.c **** /*----------------------------------------  Initialization function */
 120:C:/Users/geoma/Desktop/Scilab/scilab_test/USART_IT_F302R8_04/USART_IT_F302R8_04/Src\USART_IT_F302R8_04.c **** int USART_IT_F302R8_04_Initialize()
 121:C:/Users/geoma/Desktop/Scilab/scilab_test/USART_IT_F302R8_04/USART_IT_F302R8_04/Src\USART_IT_F302R8_04.c **** {
  47              		.loc 1 121 0
  48              		.cfi_startproc
  49              		@ args = 0, pretend = 0, frame = 0
  50              		@ frame_needed = 0, uses_anonymous_args = 0
  51              		.loc 1 121 0
  52 0000 2DE9F84F 		push	{r3, r4, r5, r6, r7, r8, r9, r10, fp, lr}
  53              	.LCFI0:
ARM GAS  C:\Users\geoma\AppData\Local\Temp\ccB1X9Yb.s 			page 4


  54              		.cfi_def_cfa_offset 40
  55              		.cfi_offset 3, -40
  56              		.cfi_offset 4, -36
  57              		.cfi_offset 5, -32
  58              		.cfi_offset 6, -28
  59              		.cfi_offset 7, -24
  60              		.cfi_offset 8, -20
  61              		.cfi_offset 9, -16
  62              		.cfi_offset 10, -12
  63              		.cfi_offset 11, -8
  64              		.cfi_offset 14, -4
  65              	.LVL1:
 122:C:/Users/geoma/Desktop/Scilab/scilab_test/USART_IT_F302R8_04/USART_IT_F302R8_04/Src\USART_IT_F302R8_04.c ****   int nevprt=1;
 123:C:/Users/geoma/Desktop/Scilab/scilab_test/USART_IT_F302R8_04/USART_IT_F302R8_04/Src\USART_IT_F302R8_04.c ****   int nport;
 124:C:/Users/geoma/Desktop/Scilab/scilab_test/USART_IT_F302R8_04/USART_IT_F302R8_04/Src\USART_IT_F302R8_04.c **** 
 125:C:/Users/geoma/Desktop/Scilab/scilab_test/USART_IT_F302R8_04/USART_IT_F302R8_04/Src\USART_IT_F302R8_04.c **** 
 126:C:/Users/geoma/Desktop/Scilab/scilab_test/USART_IT_F302R8_04/USART_IT_F302R8_04/Src\USART_IT_F302R8_04.c ****   /* Get work ptr of blocks */
 127:C:/Users/geoma/Desktop/Scilab/scilab_test/USART_IT_F302R8_04/USART_IT_F302R8_04/Src\USART_IT_F302R8_04.c ****   work = (void **)(z+4);
  66              		.loc 1 127 0
  67 0004 DFF8A882 		ldr	r8, .L11+40
  68 0008 08F12002 		add	r2, r8, #32
  69 000c 9E4B     		ldr	r3, .L11
  70 000e 1A60     		str	r2, [r3]
 128:C:/Users/geoma/Desktop/Scilab/scilab_test/USART_IT_F302R8_04/USART_IT_F302R8_04/Src\USART_IT_F302R8_04.c **** 
 129:C:/Users/geoma/Desktop/Scilab/scilab_test/USART_IT_F302R8_04/USART_IT_F302R8_04/Src\USART_IT_F302R8_04.c ****   /* Get outtbptr ptr of blocks */
 130:C:/Users/geoma/Desktop/Scilab/scilab_test/USART_IT_F302R8_04/USART_IT_F302R8_04/Src\USART_IT_F302R8_04.c ****   USART_IT_F302R8_04_block_outtbptr = (void **)(z+0);
  71              		.loc 1 130 0
  72 0010 9E4B     		ldr	r3, .L11+4
  73 0012 C3F80080 		str	r8, [r3]
 131:C:/Users/geoma/Desktop/Scilab/scilab_test/USART_IT_F302R8_04/USART_IT_F302R8_04/Src\USART_IT_F302R8_04.c **** 
 132:C:/Users/geoma/Desktop/Scilab/scilab_test/USART_IT_F302R8_04/USART_IT_F302R8_04/Src\USART_IT_F302R8_04.c ****   USART_IT_F302R8_04_block_outtbptr[1] = (void *) outtb_2;
  74              		.loc 1 132 0
  75 0016 9E4A     		ldr	r2, .L11+8
  76 0018 C8F80420 		str	r2, [r8, #4]
 133:C:/Users/geoma/Desktop/Scilab/scilab_test/USART_IT_F302R8_04/USART_IT_F302R8_04/Src\USART_IT_F302R8_04.c ****   USART_IT_F302R8_04_block_outtbptr[0] = (void *) outtb_1;
  77              		.loc 1 133 0
  78 001c 9D4B     		ldr	r3, .L11+12
  79 001e C8F80030 		str	r3, [r8]
 134:C:/Users/geoma/Desktop/Scilab/scilab_test/USART_IT_F302R8_04/USART_IT_F302R8_04/Src\USART_IT_F302R8_04.c **** 
 135:C:/Users/geoma/Desktop/Scilab/scilab_test/USART_IT_F302R8_04/USART_IT_F302R8_04/Src\USART_IT_F302R8_04.c ****   /* Initialization */
 136:C:/Users/geoma/Desktop/Scilab/scilab_test/USART_IT_F302R8_04/USART_IT_F302R8_04/Src\USART_IT_F302R8_04.c **** 
 137:C:/Users/geoma/Desktop/Scilab/scilab_test/USART_IT_F302R8_04/USART_IT_F302R8_04/Src\USART_IT_F302R8_04.c ****   /* Call of 'convert' (type 4 - blk nb 2 - uid ) */
 138:C:/Users/geoma/Desktop/Scilab/scilab_test/USART_IT_F302R8_04/USART_IT_F302R8_04/Src\USART_IT_F302R8_04.c ****   { 
 139:C:/Users/geoma/Desktop/Scilab/scilab_test/USART_IT_F302R8_04/USART_IT_F302R8_04/Src\USART_IT_F302R8_04.c ****     /* set blk struc. of 'convert' (type 4 - blk nb 2 - uid ) */
 140:C:/Users/geoma/Desktop/Scilab/scilab_test/USART_IT_F302R8_04/USART_IT_F302R8_04/Src\USART_IT_F302R8_04.c ****     block_USART_IT_F302R8_04.type   = 4;
  80              		.loc 1 140 0
  81 0022 9D4C     		ldr	r4, .L11+16
  82 0024 4FF00409 		mov	r9, #4
  83 0028 C4F80890 		str	r9, [r4, #8]
 141:C:/Users/geoma/Desktop/Scilab/scilab_test/USART_IT_F302R8_04/USART_IT_F302R8_04/Src\USART_IT_F302R8_04.c ****     block_USART_IT_F302R8_04.ztyp   = 0;
  84              		.loc 1 141 0
  85 002c 0025     		movs	r5, #0
  86 002e C4F88450 		str	r5, [r4, #132]
 142:C:/Users/geoma/Desktop/Scilab/scilab_test/USART_IT_F302R8_04/USART_IT_F302R8_04/Src\USART_IT_F302R8_04.c ****     block_USART_IT_F302R8_04.ng     = 0;
  87              		.loc 1 142 0
  88 0032 E567     		str	r5, [r4, #124]
 143:C:/Users/geoma/Desktop/Scilab/scilab_test/USART_IT_F302R8_04/USART_IT_F302R8_04/Src\USART_IT_F302R8_04.c ****     block_USART_IT_F302R8_04.nz     = 0;
ARM GAS  C:\Users\geoma\AppData\Local\Temp\ccB1X9Yb.s 			page 5


  89              		.loc 1 143 0
  90 0034 2561     		str	r5, [r4, #16]
 144:C:/Users/geoma/Desktop/Scilab/scilab_test/USART_IT_F302R8_04/USART_IT_F302R8_04/Src\USART_IT_F302R8_04.c ****     block_USART_IT_F302R8_04.noz    = 0;
  91              		.loc 1 144 0
  92 0036 A561     		str	r5, [r4, #24]
 145:C:/Users/geoma/Desktop/Scilab/scilab_test/USART_IT_F302R8_04/USART_IT_F302R8_04/Src\USART_IT_F302R8_04.c ****     block_USART_IT_F302R8_04.nrpar  = 0;
  93              		.loc 1 145 0
  94 0038 E565     		str	r5, [r4, #92]
 146:C:/Users/geoma/Desktop/Scilab/scilab_test/USART_IT_F302R8_04/USART_IT_F302R8_04/Src\USART_IT_F302R8_04.c ****     block_USART_IT_F302R8_04.nopar  = 0;
  95              		.loc 1 146 0
  96 003a E566     		str	r5, [r4, #108]
 147:C:/Users/geoma/Desktop/Scilab/scilab_test/USART_IT_F302R8_04/USART_IT_F302R8_04/Src\USART_IT_F302R8_04.c ****     block_USART_IT_F302R8_04.nipar  = 1;
  97              		.loc 1 147 0
  98 003c 0126     		movs	r6, #1
  99 003e 6666     		str	r6, [r4, #100]
 148:C:/Users/geoma/Desktop/Scilab/scilab_test/USART_IT_F302R8_04/USART_IT_F302R8_04/Src\USART_IT_F302R8_04.c ****     block_USART_IT_F302R8_04.nin    = 1;
 100              		.loc 1 148 0
 101 0040 E663     		str	r6, [r4, #60]
 149:C:/Users/geoma/Desktop/Scilab/scilab_test/USART_IT_F302R8_04/USART_IT_F302R8_04/Src\USART_IT_F302R8_04.c ****     block_USART_IT_F302R8_04.nout   = 1;
 102              		.loc 1 149 0
 103 0042 A664     		str	r6, [r4, #72]
 150:C:/Users/geoma/Desktop/Scilab/scilab_test/USART_IT_F302R8_04/USART_IT_F302R8_04/Src\USART_IT_F302R8_04.c ****     block_USART_IT_F302R8_04.nevout = 0;
 104              		.loc 1 150 0
 105 0044 6565     		str	r5, [r4, #84]
 151:C:/Users/geoma/Desktop/Scilab/scilab_test/USART_IT_F302R8_04/USART_IT_F302R8_04/Src\USART_IT_F302R8_04.c ****     block_USART_IT_F302R8_04.nmode  = 0;
 106              		.loc 1 151 0
 107 0046 C4F89450 		str	r5, [r4, #148]
 152:C:/Users/geoma/Desktop/Scilab/scilab_test/USART_IT_F302R8_04/USART_IT_F302R8_04/Src\USART_IT_F302R8_04.c ****     block_USART_IT_F302R8_04.evout = NULL;
 108              		.loc 1 152 0
 109 004a A565     		str	r5, [r4, #88]
 153:C:/Users/geoma/Desktop/Scilab/scilab_test/USART_IT_F302R8_04/USART_IT_F302R8_04/Src\USART_IT_F302R8_04.c ****     block_USART_IT_F302R8_04.inptr  = inptr;
 110              		.loc 1 153 0
 111 004c DFF864B2 		ldr	fp, .L11+44
 112 0050 C4F844B0 		str	fp, [r4, #68]
 154:C:/Users/geoma/Desktop/Scilab/scilab_test/USART_IT_F302R8_04/USART_IT_F302R8_04/Src\USART_IT_F302R8_04.c ****     block_USART_IT_F302R8_04.inptr[0]  = USART_IT_F302R8_04_block_outtbptr[0];
 113              		.loc 1 154 0
 114 0054 CBF80030 		str	r3, [fp]
 155:C:/Users/geoma/Desktop/Scilab/scilab_test/USART_IT_F302R8_04/USART_IT_F302R8_04/Src\USART_IT_F302R8_04.c ****     block_USART_IT_F302R8_04.insz = inszptr;
 115              		.loc 1 155 0
 116 0058 904B     		ldr	r3, .L11+20
 117 005a 2364     		str	r3, [r4, #64]
 156:C:/Users/geoma/Desktop/Scilab/scilab_test/USART_IT_F302R8_04/USART_IT_F302R8_04/Src\USART_IT_F302R8_04.c ****     block_USART_IT_F302R8_04.insz[0]   = 1;
 118              		.loc 1 156 0
 119 005c 1E60     		str	r6, [r3]
 157:C:/Users/geoma/Desktop/Scilab/scilab_test/USART_IT_F302R8_04/USART_IT_F302R8_04/Src\USART_IT_F302R8_04.c ****     block_USART_IT_F302R8_04.insz[1]   = 1;
 120              		.loc 1 157 0
 121 005e 5E60     		str	r6, [r3, #4]
 158:C:/Users/geoma/Desktop/Scilab/scilab_test/USART_IT_F302R8_04/USART_IT_F302R8_04/Src\USART_IT_F302R8_04.c ****     block_USART_IT_F302R8_04.insz[2]   = SCSREAL_N;
 122              		.loc 1 158 0
 123 0060 0A21     		movs	r1, #10
 124 0062 9960     		str	r1, [r3, #8]
 159:C:/Users/geoma/Desktop/Scilab/scilab_test/USART_IT_F302R8_04/USART_IT_F302R8_04/Src\USART_IT_F302R8_04.c ****     block_USART_IT_F302R8_04.outptr = outptr;
 125              		.loc 1 159 0
 126 0064 DFF850A2 		ldr	r10, .L11+48
 127 0068 C4F850A0 		str	r10, [r4, #80]
 160:C:/Users/geoma/Desktop/Scilab/scilab_test/USART_IT_F302R8_04/USART_IT_F302R8_04/Src\USART_IT_F302R8_04.c ****     block_USART_IT_F302R8_04.outptr[0] = USART_IT_F302R8_04_block_outtbptr[1];
 128              		.loc 1 160 0
ARM GAS  C:\Users\geoma\AppData\Local\Temp\ccB1X9Yb.s 			page 6


 129 006c CAF80020 		str	r2, [r10]
 161:C:/Users/geoma/Desktop/Scilab/scilab_test/USART_IT_F302R8_04/USART_IT_F302R8_04/Src\USART_IT_F302R8_04.c ****     block_USART_IT_F302R8_04.outsz = outszptr;
 130              		.loc 1 161 0
 131 0070 8B4F     		ldr	r7, .L11+24
 132 0072 E764     		str	r7, [r4, #76]
 162:C:/Users/geoma/Desktop/Scilab/scilab_test/USART_IT_F302R8_04/USART_IT_F302R8_04/Src\USART_IT_F302R8_04.c ****     block_USART_IT_F302R8_04.outsz[0]  = 1;
 133              		.loc 1 162 0
 134 0074 3E60     		str	r6, [r7]
 163:C:/Users/geoma/Desktop/Scilab/scilab_test/USART_IT_F302R8_04/USART_IT_F302R8_04/Src\USART_IT_F302R8_04.c ****     block_USART_IT_F302R8_04.outsz[1]  = 1;
 135              		.loc 1 163 0
 136 0076 7E60     		str	r6, [r7, #4]
 164:C:/Users/geoma/Desktop/Scilab/scilab_test/USART_IT_F302R8_04/USART_IT_F302R8_04/Src\USART_IT_F302R8_04.c ****     block_USART_IT_F302R8_04.outsz[2]  = SCSUINT16_N;
 137              		.loc 1 164 0
 138 0078 4FF44B73 		mov	r3, #812
 139 007c BB60     		str	r3, [r7, #8]
 165:C:/Users/geoma/Desktop/Scilab/scilab_test/USART_IT_F302R8_04/USART_IT_F302R8_04/Src\USART_IT_F302R8_04.c ****     block_USART_IT_F302R8_04.z = &(z[0]);
 140              		.loc 1 165 0
 141 007e C4F81480 		str	r8, [r4, #20]
 166:C:/Users/geoma/Desktop/Scilab/scilab_test/USART_IT_F302R8_04/USART_IT_F302R8_04/Src\USART_IT_F302R8_04.c ****     block_USART_IT_F302R8_04.ipar=(int*) &(IPAR1[0]);
 142              		.loc 1 166 0
 143 0082 884B     		ldr	r3, .L11+28
 144 0084 A366     		str	r3, [r4, #104]
 167:C:/Users/geoma/Desktop/Scilab/scilab_test/USART_IT_F302R8_04/USART_IT_F302R8_04/Src\USART_IT_F302R8_04.c ****     block_USART_IT_F302R8_04.work = (void **)(((double *)work)+1);
 145              		.loc 1 167 0
 146 0086 08F12803 		add	r3, r8, #40
 147 008a C4F89030 		str	r3, [r4, #144]
 168:C:/Users/geoma/Desktop/Scilab/scilab_test/USART_IT_F302R8_04/USART_IT_F302R8_04/Src\USART_IT_F302R8_04.c ****   }
 169:C:/Users/geoma/Desktop/Scilab/scilab_test/USART_IT_F302R8_04/USART_IT_F302R8_04/Src\USART_IT_F302R8_04.c ****   convert(&block_USART_IT_F302R8_04,4);
 148              		.loc 1 169 0
 149 008e 2046     		mov	r0, r4
 150 0090 4946     		mov	r1, r9
 151 0092 FFF7FEFF 		bl	convert
 152              	.LVL2:
 170:C:/Users/geoma/Desktop/Scilab/scilab_test/USART_IT_F302R8_04/USART_IT_F302R8_04/Src\USART_IT_F302R8_04.c **** 
 171:C:/Users/geoma/Desktop/Scilab/scilab_test/USART_IT_F302R8_04/USART_IT_F302R8_04/Src\USART_IT_F302R8_04.c ****   /* Call of 'cstblk4_m' (type 4 - blk nb 3 - uid ) */
 172:C:/Users/geoma/Desktop/Scilab/scilab_test/USART_IT_F302R8_04/USART_IT_F302R8_04/Src\USART_IT_F302R8_04.c ****   { 
 173:C:/Users/geoma/Desktop/Scilab/scilab_test/USART_IT_F302R8_04/USART_IT_F302R8_04/Src\USART_IT_F302R8_04.c ****     /* set blk struc. of 'cstblk4_m' (type 4 - blk nb 3 - uid ) */
 174:C:/Users/geoma/Desktop/Scilab/scilab_test/USART_IT_F302R8_04/USART_IT_F302R8_04/Src\USART_IT_F302R8_04.c ****     block_USART_IT_F302R8_04.type   = 4;
 153              		.loc 1 174 0
 154 0096 C4F80890 		str	r9, [r4, #8]
 175:C:/Users/geoma/Desktop/Scilab/scilab_test/USART_IT_F302R8_04/USART_IT_F302R8_04/Src\USART_IT_F302R8_04.c ****     block_USART_IT_F302R8_04.ztyp   = 0;
 155              		.loc 1 175 0
 156 009a C4F88450 		str	r5, [r4, #132]
 176:C:/Users/geoma/Desktop/Scilab/scilab_test/USART_IT_F302R8_04/USART_IT_F302R8_04/Src\USART_IT_F302R8_04.c ****     block_USART_IT_F302R8_04.ng     = 0;
 157              		.loc 1 176 0
 158 009e E567     		str	r5, [r4, #124]
 177:C:/Users/geoma/Desktop/Scilab/scilab_test/USART_IT_F302R8_04/USART_IT_F302R8_04/Src\USART_IT_F302R8_04.c ****     block_USART_IT_F302R8_04.nz     = 0;
 159              		.loc 1 177 0
 160 00a0 2561     		str	r5, [r4, #16]
 178:C:/Users/geoma/Desktop/Scilab/scilab_test/USART_IT_F302R8_04/USART_IT_F302R8_04/Src\USART_IT_F302R8_04.c ****     block_USART_IT_F302R8_04.noz    = 0;
 161              		.loc 1 178 0
 162 00a2 A561     		str	r5, [r4, #24]
 179:C:/Users/geoma/Desktop/Scilab/scilab_test/USART_IT_F302R8_04/USART_IT_F302R8_04/Src\USART_IT_F302R8_04.c ****     block_USART_IT_F302R8_04.nrpar  = 0;
 163              		.loc 1 179 0
 164 00a4 E565     		str	r5, [r4, #92]
 180:C:/Users/geoma/Desktop/Scilab/scilab_test/USART_IT_F302R8_04/USART_IT_F302R8_04/Src\USART_IT_F302R8_04.c ****     block_USART_IT_F302R8_04.nopar  = 1;
 165              		.loc 1 180 0
ARM GAS  C:\Users\geoma\AppData\Local\Temp\ccB1X9Yb.s 			page 7


 166 00a6 E666     		str	r6, [r4, #108]
 181:C:/Users/geoma/Desktop/Scilab/scilab_test/USART_IT_F302R8_04/USART_IT_F302R8_04/Src\USART_IT_F302R8_04.c ****     block_USART_IT_F302R8_04.nipar  = 0;
 167              		.loc 1 181 0
 168 00a8 6566     		str	r5, [r4, #100]
 182:C:/Users/geoma/Desktop/Scilab/scilab_test/USART_IT_F302R8_04/USART_IT_F302R8_04/Src\USART_IT_F302R8_04.c ****     block_USART_IT_F302R8_04.nin    = 0;
 169              		.loc 1 182 0
 170 00aa E563     		str	r5, [r4, #60]
 183:C:/Users/geoma/Desktop/Scilab/scilab_test/USART_IT_F302R8_04/USART_IT_F302R8_04/Src\USART_IT_F302R8_04.c ****     block_USART_IT_F302R8_04.nout   = 1;
 171              		.loc 1 183 0
 172 00ac A664     		str	r6, [r4, #72]
 184:C:/Users/geoma/Desktop/Scilab/scilab_test/USART_IT_F302R8_04/USART_IT_F302R8_04/Src\USART_IT_F302R8_04.c ****     block_USART_IT_F302R8_04.nevout = 0;
 173              		.loc 1 184 0
 174 00ae 6565     		str	r5, [r4, #84]
 185:C:/Users/geoma/Desktop/Scilab/scilab_test/USART_IT_F302R8_04/USART_IT_F302R8_04/Src\USART_IT_F302R8_04.c ****     block_USART_IT_F302R8_04.nmode  = 0;
 175              		.loc 1 185 0
 176 00b0 C4F89450 		str	r5, [r4, #148]
 186:C:/Users/geoma/Desktop/Scilab/scilab_test/USART_IT_F302R8_04/USART_IT_F302R8_04/Src\USART_IT_F302R8_04.c ****     block_USART_IT_F302R8_04.evout = NULL;
 177              		.loc 1 186 0
 178 00b4 A565     		str	r5, [r4, #88]
 187:C:/Users/geoma/Desktop/Scilab/scilab_test/USART_IT_F302R8_04/USART_IT_F302R8_04/Src\USART_IT_F302R8_04.c ****     block_USART_IT_F302R8_04.inptr  = inptr;
 179              		.loc 1 187 0
 180 00b6 C4F844B0 		str	fp, [r4, #68]
 188:C:/Users/geoma/Desktop/Scilab/scilab_test/USART_IT_F302R8_04/USART_IT_F302R8_04/Src\USART_IT_F302R8_04.c ****     block_USART_IT_F302R8_04.insz = NULL;
 181              		.loc 1 188 0
 182 00ba 2564     		str	r5, [r4, #64]
 189:C:/Users/geoma/Desktop/Scilab/scilab_test/USART_IT_F302R8_04/USART_IT_F302R8_04/Src\USART_IT_F302R8_04.c ****     block_USART_IT_F302R8_04.outptr = outptr;
 183              		.loc 1 189 0
 184 00bc C4F850A0 		str	r10, [r4, #80]
 190:C:/Users/geoma/Desktop/Scilab/scilab_test/USART_IT_F302R8_04/USART_IT_F302R8_04/Src\USART_IT_F302R8_04.c ****     block_USART_IT_F302R8_04.outptr[0] = USART_IT_F302R8_04_block_outtbptr[0];
 185              		.loc 1 190 0
 186 00c0 724B     		ldr	r3, .L11+4
 187 00c2 1B68     		ldr	r3, [r3]
 188 00c4 1B68     		ldr	r3, [r3]
 189 00c6 CAF80030 		str	r3, [r10]
 191:C:/Users/geoma/Desktop/Scilab/scilab_test/USART_IT_F302R8_04/USART_IT_F302R8_04/Src\USART_IT_F302R8_04.c ****     block_USART_IT_F302R8_04.outsz = outszptr;
 190              		.loc 1 191 0
 191 00ca E764     		str	r7, [r4, #76]
 192:C:/Users/geoma/Desktop/Scilab/scilab_test/USART_IT_F302R8_04/USART_IT_F302R8_04/Src\USART_IT_F302R8_04.c ****     block_USART_IT_F302R8_04.outsz[0]  = 1;
 192              		.loc 1 192 0
 193 00cc 3E60     		str	r6, [r7]
 193:C:/Users/geoma/Desktop/Scilab/scilab_test/USART_IT_F302R8_04/USART_IT_F302R8_04/Src\USART_IT_F302R8_04.c ****     block_USART_IT_F302R8_04.outsz[1]  = 1;
 194              		.loc 1 193 0
 195 00ce 7E60     		str	r6, [r7, #4]
 194:C:/Users/geoma/Desktop/Scilab/scilab_test/USART_IT_F302R8_04/USART_IT_F302R8_04/Src\USART_IT_F302R8_04.c ****     block_USART_IT_F302R8_04.outsz[2]  = SCSREAL_N;
 196              		.loc 1 194 0
 197 00d0 0A23     		movs	r3, #10
 198 00d2 BB60     		str	r3, [r7, #8]
 195:C:/Users/geoma/Desktop/Scilab/scilab_test/USART_IT_F302R8_04/USART_IT_F302R8_04/Src\USART_IT_F302R8_04.c ****     block_USART_IT_F302R8_04.z = &(z[0]);
 199              		.loc 1 195 0
 200 00d4 C4F81480 		str	r8, [r4, #20]
 196:C:/Users/geoma/Desktop/Scilab/scilab_test/USART_IT_F302R8_04/USART_IT_F302R8_04/Src\USART_IT_F302R8_04.c ****     if ((block_USART_IT_F302R8_04.oparptr = malloc(sizeof(void *)*block_USART_IT_F302R8_04.nopar))=
 201              		.loc 1 196 0
 202 00d8 4846     		mov	r0, r9
 203 00da FFF7FEFF 		bl	malloc
 204              	.LVL3:
 205 00de 0546     		mov	r5, r0
 206 00e0 A067     		str	r0, [r4, #120]
ARM GAS  C:\Users\geoma\AppData\Local\Temp\ccB1X9Yb.s 			page 8


 207 00e2 0028     		cmp	r0, #0
 208 00e4 00F0BE80 		beq	.L4
 197:C:/Users/geoma/Desktop/Scilab/scilab_test/USART_IT_F302R8_04/USART_IT_F302R8_04/Src\USART_IT_F302R8_04.c ****     if ((block_USART_IT_F302R8_04.oparsz  = malloc(2*sizeof(int)*block_USART_IT_F302R8_04.nopar))==
 209              		.loc 1 197 0
 210 00e8 0820     		movs	r0, #8
 211 00ea FFF7FEFF 		bl	malloc
 212              	.LVL4:
 213 00ee 2067     		str	r0, [r4, #112]
 214 00f0 0028     		cmp	r0, #0
 215 00f2 00F0BA80 		beq	.L5
 198:C:/Users/geoma/Desktop/Scilab/scilab_test/USART_IT_F302R8_04/USART_IT_F302R8_04/Src\USART_IT_F302R8_04.c ****     if ((block_USART_IT_F302R8_04.opartyp = malloc(sizeof(int)*block_USART_IT_F302R8_04.nopar))== N
 216              		.loc 1 198 0
 217 00f6 4846     		mov	r0, r9
 218 00f8 FFF7FEFF 		bl	malloc
 219              	.LVL5:
 220 00fc 6067     		str	r0, [r4, #116]
 221 00fe 0028     		cmp	r0, #0
 222 0100 00F0B680 		beq	.L6
 199:C:/Users/geoma/Desktop/Scilab/scilab_test/USART_IT_F302R8_04/USART_IT_F302R8_04/Src\USART_IT_F302R8_04.c ****     block_USART_IT_F302R8_04.oparptr[0]   = (void *) OPAR_1;
 223              		.loc 1 199 0
 224 0104 684B     		ldr	r3, .L11+32
 225 0106 2B60     		str	r3, [r5]
 200:C:/Users/geoma/Desktop/Scilab/scilab_test/USART_IT_F302R8_04/USART_IT_F302R8_04/Src\USART_IT_F302R8_04.c ****     block_USART_IT_F302R8_04.oparsz[0]    = 1;
 226              		.loc 1 200 0
 227 0108 236F     		ldr	r3, [r4, #112]
 228 010a 3546     		mov	r5, r6
 229 010c 1E60     		str	r6, [r3]
 201:C:/Users/geoma/Desktop/Scilab/scilab_test/USART_IT_F302R8_04/USART_IT_F302R8_04/Src\USART_IT_F302R8_04.c ****     block_USART_IT_F302R8_04.oparsz[1]    = 1;
 230              		.loc 1 201 0
 231 010e 236F     		ldr	r3, [r4, #112]
 232 0110 5E60     		str	r6, [r3, #4]
 202:C:/Users/geoma/Desktop/Scilab/scilab_test/USART_IT_F302R8_04/USART_IT_F302R8_04/Src\USART_IT_F302R8_04.c ****     block_USART_IT_F302R8_04.opartyp[0]   = SCSREAL_N;
 233              		.loc 1 202 0
 234 0112 636F     		ldr	r3, [r4, #116]
 235 0114 0A26     		movs	r6, #10
 236 0116 1E60     		str	r6, [r3]
 203:C:/Users/geoma/Desktop/Scilab/scilab_test/USART_IT_F302R8_04/USART_IT_F302R8_04/Src\USART_IT_F302R8_04.c ****     block_USART_IT_F302R8_04.work = (void **)(((double *)work)+2);
 237              		.loc 1 203 0
 238 0118 5B4B     		ldr	r3, .L11
 239 011a 1B68     		ldr	r3, [r3]
 240 011c 1033     		adds	r3, r3, #16
 241 011e C4F89030 		str	r3, [r4, #144]
 204:C:/Users/geoma/Desktop/Scilab/scilab_test/USART_IT_F302R8_04/USART_IT_F302R8_04/Src\USART_IT_F302R8_04.c ****   }
 205:C:/Users/geoma/Desktop/Scilab/scilab_test/USART_IT_F302R8_04/USART_IT_F302R8_04/Src\USART_IT_F302R8_04.c ****   cstblk4_m(&block_USART_IT_F302R8_04,4);
 242              		.loc 1 205 0
 243 0122 2046     		mov	r0, r4
 244 0124 4946     		mov	r1, r9
 245 0126 FFF7FEFF 		bl	cstblk4_m
 246              	.LVL6:
 206:C:/Users/geoma/Desktop/Scilab/scilab_test/USART_IT_F302R8_04/USART_IT_F302R8_04/Src\USART_IT_F302R8_04.c ****   {
 207:C:/Users/geoma/Desktop/Scilab/scilab_test/USART_IT_F302R8_04/USART_IT_F302R8_04/Src\USART_IT_F302R8_04.c ****     free(block_USART_IT_F302R8_04.oparptr);
 247              		.loc 1 207 0
 248 012a A06F     		ldr	r0, [r4, #120]
 249 012c FFF7FEFF 		bl	free
 250              	.LVL7:
 208:C:/Users/geoma/Desktop/Scilab/scilab_test/USART_IT_F302R8_04/USART_IT_F302R8_04/Src\USART_IT_F302R8_04.c ****     free(block_USART_IT_F302R8_04.oparsz);
 251              		.loc 1 208 0
ARM GAS  C:\Users\geoma\AppData\Local\Temp\ccB1X9Yb.s 			page 9


 252 0130 206F     		ldr	r0, [r4, #112]
 253 0132 FFF7FEFF 		bl	free
 254              	.LVL8:
 209:C:/Users/geoma/Desktop/Scilab/scilab_test/USART_IT_F302R8_04/USART_IT_F302R8_04/Src\USART_IT_F302R8_04.c ****     free(block_USART_IT_F302R8_04.opartyp);
 255              		.loc 1 209 0
 256 0136 606F     		ldr	r0, [r4, #116]
 257 0138 FFF7FEFF 		bl	free
 258              	.LVL9:
 210:C:/Users/geoma/Desktop/Scilab/scilab_test/USART_IT_F302R8_04/USART_IT_F302R8_04/Src\USART_IT_F302R8_04.c ****   }
 211:C:/Users/geoma/Desktop/Scilab/scilab_test/USART_IT_F302R8_04/USART_IT_F302R8_04/Src\USART_IT_F302R8_04.c **** 
 212:C:/Users/geoma/Desktop/Scilab/scilab_test/USART_IT_F302R8_04/USART_IT_F302R8_04/Src\USART_IT_F302R8_04.c ****   //Call USART Initialization function defined in _USART.c file
 213:C:/Users/geoma/Desktop/Scilab/scilab_test/USART_IT_F302R8_04/USART_IT_F302R8_04/Src\USART_IT_F302R8_04.c ****   USART_Initialize();
 259              		.loc 1 213 0
 260 013c FFF7FEFF 		bl	USART_Initialize
 261              	.LVL10:
 214:C:/Users/geoma/Desktop/Scilab/scilab_test/USART_IT_F302R8_04/USART_IT_F302R8_04/Src\USART_IT_F302R8_04.c **** 
 215:C:/Users/geoma/Desktop/Scilab/scilab_test/USART_IT_F302R8_04/USART_IT_F302R8_04/Src\USART_IT_F302R8_04.c ****     /* Initial blocks must be called with flag 1 */
 216:C:/Users/geoma/Desktop/Scilab/scilab_test/USART_IT_F302R8_04/USART_IT_F302R8_04/Src\USART_IT_F302R8_04.c ****     /* Call of 'cstblk4_m' (type 4 - blk nb 3 - uid ) */
 217:C:/Users/geoma/Desktop/Scilab/scilab_test/USART_IT_F302R8_04/USART_IT_F302R8_04/Src\USART_IT_F302R8_04.c ****     { 
 218:C:/Users/geoma/Desktop/Scilab/scilab_test/USART_IT_F302R8_04/USART_IT_F302R8_04/Src\USART_IT_F302R8_04.c ****       /* set blk struc. of 'cstblk4_m' (type 4 - blk nb 3 - uid ) */
 219:C:/Users/geoma/Desktop/Scilab/scilab_test/USART_IT_F302R8_04/USART_IT_F302R8_04/Src\USART_IT_F302R8_04.c ****       block_USART_IT_F302R8_04.type   = 4;
 262              		.loc 1 219 0
 263 0140 4846     		mov	r0, r9
 264 0142 C4F80890 		str	r9, [r4, #8]
 220:C:/Users/geoma/Desktop/Scilab/scilab_test/USART_IT_F302R8_04/USART_IT_F302R8_04/Src\USART_IT_F302R8_04.c ****       block_USART_IT_F302R8_04.ztyp   = 0;
 265              		.loc 1 220 0
 266 0146 0023     		movs	r3, #0
 267 0148 C4F88430 		str	r3, [r4, #132]
 221:C:/Users/geoma/Desktop/Scilab/scilab_test/USART_IT_F302R8_04/USART_IT_F302R8_04/Src\USART_IT_F302R8_04.c ****       block_USART_IT_F302R8_04.ng     = 0;
 268              		.loc 1 221 0
 269 014c E367     		str	r3, [r4, #124]
 222:C:/Users/geoma/Desktop/Scilab/scilab_test/USART_IT_F302R8_04/USART_IT_F302R8_04/Src\USART_IT_F302R8_04.c ****       block_USART_IT_F302R8_04.nz     = 0;
 270              		.loc 1 222 0
 271 014e 2361     		str	r3, [r4, #16]
 223:C:/Users/geoma/Desktop/Scilab/scilab_test/USART_IT_F302R8_04/USART_IT_F302R8_04/Src\USART_IT_F302R8_04.c ****       block_USART_IT_F302R8_04.noz    = 0;
 272              		.loc 1 223 0
 273 0150 A361     		str	r3, [r4, #24]
 224:C:/Users/geoma/Desktop/Scilab/scilab_test/USART_IT_F302R8_04/USART_IT_F302R8_04/Src\USART_IT_F302R8_04.c ****       block_USART_IT_F302R8_04.nrpar  = 0;
 274              		.loc 1 224 0
 275 0152 E365     		str	r3, [r4, #92]
 225:C:/Users/geoma/Desktop/Scilab/scilab_test/USART_IT_F302R8_04/USART_IT_F302R8_04/Src\USART_IT_F302R8_04.c ****       block_USART_IT_F302R8_04.nopar  = 1;
 276              		.loc 1 225 0
 277 0154 E566     		str	r5, [r4, #108]
 226:C:/Users/geoma/Desktop/Scilab/scilab_test/USART_IT_F302R8_04/USART_IT_F302R8_04/Src\USART_IT_F302R8_04.c ****       block_USART_IT_F302R8_04.nipar  = 0;
 278              		.loc 1 226 0
 279 0156 6366     		str	r3, [r4, #100]
 227:C:/Users/geoma/Desktop/Scilab/scilab_test/USART_IT_F302R8_04/USART_IT_F302R8_04/Src\USART_IT_F302R8_04.c ****       block_USART_IT_F302R8_04.nin    = 0;
 280              		.loc 1 227 0
 281 0158 E363     		str	r3, [r4, #60]
 228:C:/Users/geoma/Desktop/Scilab/scilab_test/USART_IT_F302R8_04/USART_IT_F302R8_04/Src\USART_IT_F302R8_04.c ****       block_USART_IT_F302R8_04.nout   = 1;
 282              		.loc 1 228 0
 283 015a A564     		str	r5, [r4, #72]
 229:C:/Users/geoma/Desktop/Scilab/scilab_test/USART_IT_F302R8_04/USART_IT_F302R8_04/Src\USART_IT_F302R8_04.c ****       block_USART_IT_F302R8_04.nevout = 0;
 284              		.loc 1 229 0
 285 015c 6365     		str	r3, [r4, #84]
 230:C:/Users/geoma/Desktop/Scilab/scilab_test/USART_IT_F302R8_04/USART_IT_F302R8_04/Src\USART_IT_F302R8_04.c ****       block_USART_IT_F302R8_04.nmode  = 0;
 286              		.loc 1 230 0
ARM GAS  C:\Users\geoma\AppData\Local\Temp\ccB1X9Yb.s 			page 10


 287 015e C4F89430 		str	r3, [r4, #148]
 231:C:/Users/geoma/Desktop/Scilab/scilab_test/USART_IT_F302R8_04/USART_IT_F302R8_04/Src\USART_IT_F302R8_04.c ****       block_USART_IT_F302R8_04.evout = NULL;
 288              		.loc 1 231 0
 289 0162 A365     		str	r3, [r4, #88]
 232:C:/Users/geoma/Desktop/Scilab/scilab_test/USART_IT_F302R8_04/USART_IT_F302R8_04/Src\USART_IT_F302R8_04.c ****       block_USART_IT_F302R8_04.inptr  = inptr;
 290              		.loc 1 232 0
 291 0164 C4F844B0 		str	fp, [r4, #68]
 233:C:/Users/geoma/Desktop/Scilab/scilab_test/USART_IT_F302R8_04/USART_IT_F302R8_04/Src\USART_IT_F302R8_04.c ****       block_USART_IT_F302R8_04.insz = NULL;
 292              		.loc 1 233 0
 293 0168 2364     		str	r3, [r4, #64]
 234:C:/Users/geoma/Desktop/Scilab/scilab_test/USART_IT_F302R8_04/USART_IT_F302R8_04/Src\USART_IT_F302R8_04.c ****       block_USART_IT_F302R8_04.outptr = outptr;
 294              		.loc 1 234 0
 295 016a C4F850A0 		str	r10, [r4, #80]
 235:C:/Users/geoma/Desktop/Scilab/scilab_test/USART_IT_F302R8_04/USART_IT_F302R8_04/Src\USART_IT_F302R8_04.c ****       block_USART_IT_F302R8_04.outptr[0] = USART_IT_F302R8_04_block_outtbptr[0];
 296              		.loc 1 235 0
 297 016e 474A     		ldr	r2, .L11+4
 298 0170 1268     		ldr	r2, [r2]
 299 0172 1268     		ldr	r2, [r2]
 300 0174 CAF80020 		str	r2, [r10]
 236:C:/Users/geoma/Desktop/Scilab/scilab_test/USART_IT_F302R8_04/USART_IT_F302R8_04/Src\USART_IT_F302R8_04.c ****       block_USART_IT_F302R8_04.outsz = outszptr;
 301              		.loc 1 236 0
 302 0178 E764     		str	r7, [r4, #76]
 237:C:/Users/geoma/Desktop/Scilab/scilab_test/USART_IT_F302R8_04/USART_IT_F302R8_04/Src\USART_IT_F302R8_04.c ****       block_USART_IT_F302R8_04.outsz[0]  = 1;
 303              		.loc 1 237 0
 304 017a 3D60     		str	r5, [r7]
 238:C:/Users/geoma/Desktop/Scilab/scilab_test/USART_IT_F302R8_04/USART_IT_F302R8_04/Src\USART_IT_F302R8_04.c ****       block_USART_IT_F302R8_04.outsz[1]  = 1;
 305              		.loc 1 238 0
 306 017c 7D60     		str	r5, [r7, #4]
 239:C:/Users/geoma/Desktop/Scilab/scilab_test/USART_IT_F302R8_04/USART_IT_F302R8_04/Src\USART_IT_F302R8_04.c ****       block_USART_IT_F302R8_04.outsz[2]  = SCSREAL_N;
 307              		.loc 1 239 0
 308 017e BE60     		str	r6, [r7, #8]
 240:C:/Users/geoma/Desktop/Scilab/scilab_test/USART_IT_F302R8_04/USART_IT_F302R8_04/Src\USART_IT_F302R8_04.c ****       block_USART_IT_F302R8_04.z = &(z[0]);
 309              		.loc 1 240 0
 310 0180 C4F81480 		str	r8, [r4, #20]
 241:C:/Users/geoma/Desktop/Scilab/scilab_test/USART_IT_F302R8_04/USART_IT_F302R8_04/Src\USART_IT_F302R8_04.c ****       if ((block_USART_IT_F302R8_04.oparptr = malloc(sizeof(void *)*block_USART_IT_F302R8_04.nopar)
 311              		.loc 1 241 0
 312 0184 FFF7FEFF 		bl	malloc
 313              	.LVL11:
 314 0188 0546     		mov	r5, r0
 315 018a A067     		str	r0, [r4, #120]
 316 018c 0028     		cmp	r0, #0
 317 018e 72D0     		beq	.L7
 242:C:/Users/geoma/Desktop/Scilab/scilab_test/USART_IT_F302R8_04/USART_IT_F302R8_04/Src\USART_IT_F302R8_04.c ****       if ((block_USART_IT_F302R8_04.oparsz  = malloc(2*sizeof(int)*block_USART_IT_F302R8_04.nopar))
 318              		.loc 1 242 0
 319 0190 0820     		movs	r0, #8
 320 0192 FFF7FEFF 		bl	malloc
 321              	.LVL12:
 322 0196 2067     		str	r0, [r4, #112]
 323 0198 0028     		cmp	r0, #0
 324 019a 6FD0     		beq	.L8
 243:C:/Users/geoma/Desktop/Scilab/scilab_test/USART_IT_F302R8_04/USART_IT_F302R8_04/Src\USART_IT_F302R8_04.c ****       if ((block_USART_IT_F302R8_04.opartyp = malloc(sizeof(int)*block_USART_IT_F302R8_04.nopar))==
 325              		.loc 1 243 0
 326 019c 4846     		mov	r0, r9
 327 019e FFF7FEFF 		bl	malloc
 328              	.LVL13:
 329 01a2 6067     		str	r0, [r4, #116]
 330 01a4 0028     		cmp	r0, #0
ARM GAS  C:\Users\geoma\AppData\Local\Temp\ccB1X9Yb.s 			page 11


 331 01a6 6CD0     		beq	.L9
 244:C:/Users/geoma/Desktop/Scilab/scilab_test/USART_IT_F302R8_04/USART_IT_F302R8_04/Src\USART_IT_F302R8_04.c ****       block_USART_IT_F302R8_04.oparptr[0]   = (void *) OPAR_1;
 332              		.loc 1 244 0
 333 01a8 3F4B     		ldr	r3, .L11+32
 334 01aa 2B60     		str	r3, [r5]
 245:C:/Users/geoma/Desktop/Scilab/scilab_test/USART_IT_F302R8_04/USART_IT_F302R8_04/Src\USART_IT_F302R8_04.c ****       block_USART_IT_F302R8_04.oparsz[0]    = 1;
 335              		.loc 1 245 0
 336 01ac 236F     		ldr	r3, [r4, #112]
 337 01ae 0125     		movs	r5, #1
 338 01b0 1D60     		str	r5, [r3]
 246:C:/Users/geoma/Desktop/Scilab/scilab_test/USART_IT_F302R8_04/USART_IT_F302R8_04/Src\USART_IT_F302R8_04.c ****       block_USART_IT_F302R8_04.oparsz[1]    = 1;
 339              		.loc 1 246 0
 340 01b2 236F     		ldr	r3, [r4, #112]
 341 01b4 5D60     		str	r5, [r3, #4]
 247:C:/Users/geoma/Desktop/Scilab/scilab_test/USART_IT_F302R8_04/USART_IT_F302R8_04/Src\USART_IT_F302R8_04.c ****       block_USART_IT_F302R8_04.opartyp[0]   = SCSREAL_N;
 342              		.loc 1 247 0
 343 01b6 636F     		ldr	r3, [r4, #116]
 344 01b8 3746     		mov	r7, r6
 345 01ba 1E60     		str	r6, [r3]
 248:C:/Users/geoma/Desktop/Scilab/scilab_test/USART_IT_F302R8_04/USART_IT_F302R8_04/Src\USART_IT_F302R8_04.c ****       block_USART_IT_F302R8_04.work = (void **)(((double *)work)+2);
 346              		.loc 1 248 0
 347 01bc 324E     		ldr	r6, .L11
 348 01be 3368     		ldr	r3, [r6]
 349 01c0 1033     		adds	r3, r3, #16
 350 01c2 C4F89030 		str	r3, [r4, #144]
 249:C:/Users/geoma/Desktop/Scilab/scilab_test/USART_IT_F302R8_04/USART_IT_F302R8_04/Src\USART_IT_F302R8_04.c ****     }
 250:C:/Users/geoma/Desktop/Scilab/scilab_test/USART_IT_F302R8_04/USART_IT_F302R8_04/Src\USART_IT_F302R8_04.c ****     cstblk4_m(&block_USART_IT_F302R8_04,1);
 351              		.loc 1 250 0
 352 01c6 2046     		mov	r0, r4
 353 01c8 2946     		mov	r1, r5
 354 01ca FFF7FEFF 		bl	cstblk4_m
 355              	.LVL14:
 251:C:/Users/geoma/Desktop/Scilab/scilab_test/USART_IT_F302R8_04/USART_IT_F302R8_04/Src\USART_IT_F302R8_04.c ****     cstblk4_m(&block_USART_IT_F302R8_04,2);
 356              		.loc 1 251 0
 357 01ce 2046     		mov	r0, r4
 358 01d0 0221     		movs	r1, #2
 359 01d2 FFF7FEFF 		bl	cstblk4_m
 360              	.LVL15:
 252:C:/Users/geoma/Desktop/Scilab/scilab_test/USART_IT_F302R8_04/USART_IT_F302R8_04/Src\USART_IT_F302R8_04.c ****     {
 253:C:/Users/geoma/Desktop/Scilab/scilab_test/USART_IT_F302R8_04/USART_IT_F302R8_04/Src\USART_IT_F302R8_04.c ****       free(block_USART_IT_F302R8_04.oparptr);
 361              		.loc 1 253 0
 362 01d6 A06F     		ldr	r0, [r4, #120]
 363 01d8 FFF7FEFF 		bl	free
 364              	.LVL16:
 254:C:/Users/geoma/Desktop/Scilab/scilab_test/USART_IT_F302R8_04/USART_IT_F302R8_04/Src\USART_IT_F302R8_04.c ****       free(block_USART_IT_F302R8_04.oparsz);
 365              		.loc 1 254 0
 366 01dc 206F     		ldr	r0, [r4, #112]
 367 01de FFF7FEFF 		bl	free
 368              	.LVL17:
 255:C:/Users/geoma/Desktop/Scilab/scilab_test/USART_IT_F302R8_04/USART_IT_F302R8_04/Src\USART_IT_F302R8_04.c ****       free(block_USART_IT_F302R8_04.opartyp);
 369              		.loc 1 255 0
 370 01e2 606F     		ldr	r0, [r4, #116]
 371 01e4 FFF7FEFF 		bl	free
 372              	.LVL18:
 256:C:/Users/geoma/Desktop/Scilab/scilab_test/USART_IT_F302R8_04/USART_IT_F302R8_04/Src\USART_IT_F302R8_04.c ****     }
 257:C:/Users/geoma/Desktop/Scilab/scilab_test/USART_IT_F302R8_04/USART_IT_F302R8_04/Src\USART_IT_F302R8_04.c **** 
 258:C:/Users/geoma/Desktop/Scilab/scilab_test/USART_IT_F302R8_04/USART_IT_F302R8_04/Src\USART_IT_F302R8_04.c ****     /* Call of 'convert' (type 4 - blk nb 2 - uid ) */
ARM GAS  C:\Users\geoma\AppData\Local\Temp\ccB1X9Yb.s 			page 12


 259:C:/Users/geoma/Desktop/Scilab/scilab_test/USART_IT_F302R8_04/USART_IT_F302R8_04/Src\USART_IT_F302R8_04.c ****     { 
 260:C:/Users/geoma/Desktop/Scilab/scilab_test/USART_IT_F302R8_04/USART_IT_F302R8_04/Src\USART_IT_F302R8_04.c ****       /* set blk struc. of 'convert' (type 4 - blk nb 2 - uid ) */
 261:C:/Users/geoma/Desktop/Scilab/scilab_test/USART_IT_F302R8_04/USART_IT_F302R8_04/Src\USART_IT_F302R8_04.c ****       block_USART_IT_F302R8_04.type   = 4;
 373              		.loc 1 261 0
 374 01e8 C4F80890 		str	r9, [r4, #8]
 262:C:/Users/geoma/Desktop/Scilab/scilab_test/USART_IT_F302R8_04/USART_IT_F302R8_04/Src\USART_IT_F302R8_04.c ****       block_USART_IT_F302R8_04.ztyp   = 0;
 375              		.loc 1 262 0
 376 01ec 0023     		movs	r3, #0
 377 01ee C4F88430 		str	r3, [r4, #132]
 263:C:/Users/geoma/Desktop/Scilab/scilab_test/USART_IT_F302R8_04/USART_IT_F302R8_04/Src\USART_IT_F302R8_04.c ****       block_USART_IT_F302R8_04.ng     = 0;
 378              		.loc 1 263 0
 379 01f2 E367     		str	r3, [r4, #124]
 264:C:/Users/geoma/Desktop/Scilab/scilab_test/USART_IT_F302R8_04/USART_IT_F302R8_04/Src\USART_IT_F302R8_04.c ****       block_USART_IT_F302R8_04.nz     = 0;
 380              		.loc 1 264 0
 381 01f4 2361     		str	r3, [r4, #16]
 265:C:/Users/geoma/Desktop/Scilab/scilab_test/USART_IT_F302R8_04/USART_IT_F302R8_04/Src\USART_IT_F302R8_04.c ****       block_USART_IT_F302R8_04.noz    = 0;
 382              		.loc 1 265 0
 383 01f6 A361     		str	r3, [r4, #24]
 266:C:/Users/geoma/Desktop/Scilab/scilab_test/USART_IT_F302R8_04/USART_IT_F302R8_04/Src\USART_IT_F302R8_04.c ****       block_USART_IT_F302R8_04.nrpar  = 0;
 384              		.loc 1 266 0
 385 01f8 E365     		str	r3, [r4, #92]
 267:C:/Users/geoma/Desktop/Scilab/scilab_test/USART_IT_F302R8_04/USART_IT_F302R8_04/Src\USART_IT_F302R8_04.c ****       block_USART_IT_F302R8_04.nopar  = 0;
 386              		.loc 1 267 0
 387 01fa E366     		str	r3, [r4, #108]
 268:C:/Users/geoma/Desktop/Scilab/scilab_test/USART_IT_F302R8_04/USART_IT_F302R8_04/Src\USART_IT_F302R8_04.c ****       block_USART_IT_F302R8_04.nipar  = 1;
 388              		.loc 1 268 0
 389 01fc 6566     		str	r5, [r4, #100]
 269:C:/Users/geoma/Desktop/Scilab/scilab_test/USART_IT_F302R8_04/USART_IT_F302R8_04/Src\USART_IT_F302R8_04.c ****       block_USART_IT_F302R8_04.nin    = 1;
 390              		.loc 1 269 0
 391 01fe E563     		str	r5, [r4, #60]
 270:C:/Users/geoma/Desktop/Scilab/scilab_test/USART_IT_F302R8_04/USART_IT_F302R8_04/Src\USART_IT_F302R8_04.c ****       block_USART_IT_F302R8_04.nout   = 1;
 392              		.loc 1 270 0
 393 0200 A564     		str	r5, [r4, #72]
 271:C:/Users/geoma/Desktop/Scilab/scilab_test/USART_IT_F302R8_04/USART_IT_F302R8_04/Src\USART_IT_F302R8_04.c ****       block_USART_IT_F302R8_04.nevout = 0;
 394              		.loc 1 271 0
 395 0202 6365     		str	r3, [r4, #84]
 272:C:/Users/geoma/Desktop/Scilab/scilab_test/USART_IT_F302R8_04/USART_IT_F302R8_04/Src\USART_IT_F302R8_04.c ****       block_USART_IT_F302R8_04.nmode  = 0;
 396              		.loc 1 272 0
 397 0204 C4F89430 		str	r3, [r4, #148]
 273:C:/Users/geoma/Desktop/Scilab/scilab_test/USART_IT_F302R8_04/USART_IT_F302R8_04/Src\USART_IT_F302R8_04.c ****       block_USART_IT_F302R8_04.evout = NULL;
 398              		.loc 1 273 0
 399 0208 A365     		str	r3, [r4, #88]
 274:C:/Users/geoma/Desktop/Scilab/scilab_test/USART_IT_F302R8_04/USART_IT_F302R8_04/Src\USART_IT_F302R8_04.c ****       block_USART_IT_F302R8_04.inptr  = inptr;
 400              		.loc 1 274 0
 401 020a C4F844B0 		str	fp, [r4, #68]
 275:C:/Users/geoma/Desktop/Scilab/scilab_test/USART_IT_F302R8_04/USART_IT_F302R8_04/Src\USART_IT_F302R8_04.c ****       block_USART_IT_F302R8_04.inptr[0]  = USART_IT_F302R8_04_block_outtbptr[0];
 402              		.loc 1 275 0
 403 020e 1F4A     		ldr	r2, .L11+4
 404 0210 1268     		ldr	r2, [r2]
 405 0212 1168     		ldr	r1, [r2]
 406 0214 CBF80010 		str	r1, [fp]
 276:C:/Users/geoma/Desktop/Scilab/scilab_test/USART_IT_F302R8_04/USART_IT_F302R8_04/Src\USART_IT_F302R8_04.c ****       block_USART_IT_F302R8_04.insz = inszptr;
 407              		.loc 1 276 0
 408 0218 204B     		ldr	r3, .L11+20
 409 021a 2364     		str	r3, [r4, #64]
 277:C:/Users/geoma/Desktop/Scilab/scilab_test/USART_IT_F302R8_04/USART_IT_F302R8_04/Src\USART_IT_F302R8_04.c ****       block_USART_IT_F302R8_04.insz[0]   = 1;
 410              		.loc 1 277 0
ARM GAS  C:\Users\geoma\AppData\Local\Temp\ccB1X9Yb.s 			page 13


 411 021c 1D60     		str	r5, [r3]
 278:C:/Users/geoma/Desktop/Scilab/scilab_test/USART_IT_F302R8_04/USART_IT_F302R8_04/Src\USART_IT_F302R8_04.c ****       block_USART_IT_F302R8_04.insz[1]   = 1;
 412              		.loc 1 278 0
 413 021e 5D60     		str	r5, [r3, #4]
 279:C:/Users/geoma/Desktop/Scilab/scilab_test/USART_IT_F302R8_04/USART_IT_F302R8_04/Src\USART_IT_F302R8_04.c ****       block_USART_IT_F302R8_04.insz[2]   = SCSREAL_N;
 414              		.loc 1 279 0
 415 0220 9F60     		str	r7, [r3, #8]
 280:C:/Users/geoma/Desktop/Scilab/scilab_test/USART_IT_F302R8_04/USART_IT_F302R8_04/Src\USART_IT_F302R8_04.c ****       block_USART_IT_F302R8_04.outptr = outptr;
 416              		.loc 1 280 0
 417 0222 C4F850A0 		str	r10, [r4, #80]
 281:C:/Users/geoma/Desktop/Scilab/scilab_test/USART_IT_F302R8_04/USART_IT_F302R8_04/Src\USART_IT_F302R8_04.c ****       block_USART_IT_F302R8_04.outptr[0] = USART_IT_F302R8_04_block_outtbptr[1];
 418              		.loc 1 281 0
 419 0226 5268     		ldr	r2, [r2, #4]
 420 0228 CAF80020 		str	r2, [r10]
 282:C:/Users/geoma/Desktop/Scilab/scilab_test/USART_IT_F302R8_04/USART_IT_F302R8_04/Src\USART_IT_F302R8_04.c ****       block_USART_IT_F302R8_04.outsz = outszptr;
 421              		.loc 1 282 0
 422 022c 1C4B     		ldr	r3, .L11+24
 423 022e E364     		str	r3, [r4, #76]
 283:C:/Users/geoma/Desktop/Scilab/scilab_test/USART_IT_F302R8_04/USART_IT_F302R8_04/Src\USART_IT_F302R8_04.c ****       block_USART_IT_F302R8_04.outsz[0]  = 1;
 424              		.loc 1 283 0
 425 0230 1D60     		str	r5, [r3]
 284:C:/Users/geoma/Desktop/Scilab/scilab_test/USART_IT_F302R8_04/USART_IT_F302R8_04/Src\USART_IT_F302R8_04.c ****       block_USART_IT_F302R8_04.outsz[1]  = 1;
 426              		.loc 1 284 0
 427 0232 5D60     		str	r5, [r3, #4]
 285:C:/Users/geoma/Desktop/Scilab/scilab_test/USART_IT_F302R8_04/USART_IT_F302R8_04/Src\USART_IT_F302R8_04.c ****       block_USART_IT_F302R8_04.outsz[2]  = SCSUINT16_N;
 428              		.loc 1 285 0
 429 0234 4FF44B72 		mov	r2, #812
 430 0238 9A60     		str	r2, [r3, #8]
 286:C:/Users/geoma/Desktop/Scilab/scilab_test/USART_IT_F302R8_04/USART_IT_F302R8_04/Src\USART_IT_F302R8_04.c ****       block_USART_IT_F302R8_04.z = &(z[0]);
 431              		.loc 1 286 0
 432 023a C4F81480 		str	r8, [r4, #20]
 287:C:/Users/geoma/Desktop/Scilab/scilab_test/USART_IT_F302R8_04/USART_IT_F302R8_04/Src\USART_IT_F302R8_04.c ****       block_USART_IT_F302R8_04.ipar=(int*) &(IPAR1[0]);
 433              		.loc 1 287 0
 434 023e 194B     		ldr	r3, .L11+28
 435 0240 A366     		str	r3, [r4, #104]
 288:C:/Users/geoma/Desktop/Scilab/scilab_test/USART_IT_F302R8_04/USART_IT_F302R8_04/Src\USART_IT_F302R8_04.c ****       block_USART_IT_F302R8_04.work = (void **)(((double *)work)+1);
 436              		.loc 1 288 0
 437 0242 3368     		ldr	r3, [r6]
 438 0244 0833     		adds	r3, r3, #8
 439 0246 C4F89030 		str	r3, [r4, #144]
 289:C:/Users/geoma/Desktop/Scilab/scilab_test/USART_IT_F302R8_04/USART_IT_F302R8_04/Src\USART_IT_F302R8_04.c ****     }
 290:C:/Users/geoma/Desktop/Scilab/scilab_test/USART_IT_F302R8_04/USART_IT_F302R8_04/Src\USART_IT_F302R8_04.c ****     convert(&block_USART_IT_F302R8_04,1);
 440              		.loc 1 290 0
 441 024a 2046     		mov	r0, r4
 442 024c 2946     		mov	r1, r5
 443 024e FFF7FEFF 		bl	convert
 444              	.LVL19:
 291:C:/Users/geoma/Desktop/Scilab/scilab_test/USART_IT_F302R8_04/USART_IT_F302R8_04/Src\USART_IT_F302R8_04.c ****     convert(&block_USART_IT_F302R8_04,2);
 445              		.loc 1 291 0
 446 0252 2046     		mov	r0, r4
 447 0254 0221     		movs	r1, #2
 448 0256 FFF7FEFF 		bl	convert
 449              	.LVL20:
 292:C:/Users/geoma/Desktop/Scilab/scilab_test/USART_IT_F302R8_04/USART_IT_F302R8_04/Src\USART_IT_F302R8_04.c **** 
 293:C:/Users/geoma/Desktop/Scilab/scilab_test/USART_IT_F302R8_04/USART_IT_F302R8_04/Src\USART_IT_F302R8_04.c **** 
 294:C:/Users/geoma/Desktop/Scilab/scilab_test/USART_IT_F302R8_04/USART_IT_F302R8_04/Src\USART_IT_F302R8_04.c ****     /* Dumy variable not used in embedded word but necessary for current version based on PC scicos
 295:C:/Users/geoma/Desktop/Scilab/scilab_test/USART_IT_F302R8_04/USART_IT_F302R8_04/Src\USART_IT_F302R8_04.c ****     /* local_flag set to output update */
ARM GAS  C:\Users\geoma\AppData\Local\Temp\ccB1X9Yb.s 			page 14


 296:C:/Users/geoma/Desktop/Scilab/scilab_test/USART_IT_F302R8_04/USART_IT_F302R8_04/Src\USART_IT_F302R8_04.c ****     local_flag = 1;
 450              		.loc 1 296 0
 451 025a 144B     		ldr	r3, .L11+36
 452 025c 1D60     		str	r5, [r3]
 297:C:/Users/geoma/Desktop/Scilab/scilab_test/USART_IT_F302R8_04/USART_IT_F302R8_04/Src\USART_IT_F302R8_04.c ****     double t; //Simulation time (not used)
 298:C:/Users/geoma/Desktop/Scilab/scilab_test/USART_IT_F302R8_04/USART_IT_F302R8_04/Src\USART_IT_F302R8_04.c **** return(1);
 453              		.loc 1 298 0
 454 025e 2846     		mov	r0, r5
 455 0260 BDE8F88F 		pop	{r3, r4, r5, r6, r7, r8, r9, r10, fp, pc}
 456              	.L4:
 196:C:/Users/geoma/Desktop/Scilab/scilab_test/USART_IT_F302R8_04/USART_IT_F302R8_04/Src\USART_IT_F302R8_04.c ****     if ((block_USART_IT_F302R8_04.oparsz  = malloc(2*sizeof(int)*block_USART_IT_F302R8_04.nopar))==
 457              		.loc 1 196 0
 458 0264 0020     		movs	r0, #0
 459 0266 BDE8F88F 		pop	{r3, r4, r5, r6, r7, r8, r9, r10, fp, pc}
 460              	.L5:
 197:C:/Users/geoma/Desktop/Scilab/scilab_test/USART_IT_F302R8_04/USART_IT_F302R8_04/Src\USART_IT_F302R8_04.c ****     if ((block_USART_IT_F302R8_04.opartyp = malloc(sizeof(int)*block_USART_IT_F302R8_04.nopar))== N
 461              		.loc 1 197 0
 462 026a 0020     		movs	r0, #0
 463 026c BDE8F88F 		pop	{r3, r4, r5, r6, r7, r8, r9, r10, fp, pc}
 464              	.L6:
 198:C:/Users/geoma/Desktop/Scilab/scilab_test/USART_IT_F302R8_04/USART_IT_F302R8_04/Src\USART_IT_F302R8_04.c ****     block_USART_IT_F302R8_04.oparptr[0]   = (void *) OPAR_1;
 465              		.loc 1 198 0
 466 0270 0020     		movs	r0, #0
 467 0272 BDE8F88F 		pop	{r3, r4, r5, r6, r7, r8, r9, r10, fp, pc}
 468              	.L7:
 241:C:/Users/geoma/Desktop/Scilab/scilab_test/USART_IT_F302R8_04/USART_IT_F302R8_04/Src\USART_IT_F302R8_04.c ****       if ((block_USART_IT_F302R8_04.oparsz  = malloc(2*sizeof(int)*block_USART_IT_F302R8_04.nopar))
 469              		.loc 1 241 0
 470 0276 0020     		movs	r0, #0
 471 0278 BDE8F88F 		pop	{r3, r4, r5, r6, r7, r8, r9, r10, fp, pc}
 472              	.L8:
 242:C:/Users/geoma/Desktop/Scilab/scilab_test/USART_IT_F302R8_04/USART_IT_F302R8_04/Src\USART_IT_F302R8_04.c ****       if ((block_USART_IT_F302R8_04.opartyp = malloc(sizeof(int)*block_USART_IT_F302R8_04.nopar))==
 473              		.loc 1 242 0
 474 027c 0020     		movs	r0, #0
 475 027e BDE8F88F 		pop	{r3, r4, r5, r6, r7, r8, r9, r10, fp, pc}
 476              	.L9:
 243:C:/Users/geoma/Desktop/Scilab/scilab_test/USART_IT_F302R8_04/USART_IT_F302R8_04/Src\USART_IT_F302R8_04.c ****       block_USART_IT_F302R8_04.oparptr[0]   = (void *) OPAR_1;
 477              		.loc 1 243 0
 478 0282 0020     		movs	r0, #0
 299:C:/Users/geoma/Desktop/Scilab/scilab_test/USART_IT_F302R8_04/USART_IT_F302R8_04/Src\USART_IT_F302R8_04.c **** } //End of function USART_IT_F302R8_04_Initialize()
 479              		.loc 1 299 0
 480 0284 BDE8F88F 		pop	{r3, r4, r5, r6, r7, r8, r9, r10, fp, pc}
 481              	.L12:
 482              		.align	2
 483              	.L11:
 484 0288 00000000 		.word	work
 485 028c 00000000 		.word	USART_IT_F302R8_04_block_outtbptr
 486 0290 00000000 		.word	.LANCHOR1
 487 0294 00000000 		.word	.LANCHOR2
 488 0298 00000000 		.word	block_USART_IT_F302R8_04
 489 029c 00000000 		.word	inszptr
 490 02a0 00000000 		.word	outszptr
 491 02a4 00000000 		.word	.LANCHOR3
 492 02a8 00000000 		.word	.LANCHOR4
 493 02ac 00000000 		.word	.LANCHOR5
 494 02b0 00000000 		.word	.LANCHOR0
 495 02b4 00000000 		.word	inptr
 496 02b8 00000000 		.word	outptr
ARM GAS  C:\Users\geoma\AppData\Local\Temp\ccB1X9Yb.s 			page 15


 497              		.cfi_endproc
 498              	.LFE157:
 500              		.section	.text.USART_IT_F302R8_04_Step1,"ax",%progbits
 501              		.align	2
 502              		.global	USART_IT_F302R8_04_Step1
 503              		.thumb
 504              		.thumb_func
 506              	USART_IT_F302R8_04_Step1:
 507              	.LFB158:
 300:C:/Users/geoma/Desktop/Scilab/scilab_test/USART_IT_F302R8_04/USART_IT_F302R8_04/Src\USART_IT_F302R8_04.c **** /*------------------------------  Step1 function called every 1 solver loop(s)*/
 301:C:/Users/geoma/Desktop/Scilab/scilab_test/USART_IT_F302R8_04/USART_IT_F302R8_04/Src\USART_IT_F302R8_04.c **** void USART_IT_F302R8_04_Step1()
 302:C:/Users/geoma/Desktop/Scilab/scilab_test/USART_IT_F302R8_04/USART_IT_F302R8_04/Src\USART_IT_F302R8_04.c **** {
 508              		.loc 1 302 0
 509              		.cfi_startproc
 510              		@ args = 0, pretend = 0, frame = 0
 511              		@ frame_needed = 0, uses_anonymous_args = 0
 512 0000 08B5     		push	{r3, lr}
 513              	.LCFI1:
 514              		.cfi_def_cfa_offset 8
 515              		.cfi_offset 3, -8
 516              		.cfi_offset 14, -4
 517              	.LVL21:
 303:C:/Users/geoma/Desktop/Scilab/scilab_test/USART_IT_F302R8_04/USART_IT_F302R8_04/Src\USART_IT_F302R8_04.c ****   // double t;
 304:C:/Users/geoma/Desktop/Scilab/scilab_test/USART_IT_F302R8_04/USART_IT_F302R8_04/Src\USART_IT_F302R8_04.c ****   int nevprt=1;
 305:C:/Users/geoma/Desktop/Scilab/scilab_test/USART_IT_F302R8_04/USART_IT_F302R8_04/Src\USART_IT_F302R8_04.c ****   // int local_flag = 1; //Output update
 306:C:/Users/geoma/Desktop/Scilab/scilab_test/USART_IT_F302R8_04/USART_IT_F302R8_04/Src\USART_IT_F302R8_04.c ****   int nport;
 307:C:/Users/geoma/Desktop/Scilab/scilab_test/USART_IT_F302R8_04/USART_IT_F302R8_04/Src\USART_IT_F302R8_04.c **** 
 308:C:/Users/geoma/Desktop/Scilab/scilab_test/USART_IT_F302R8_04/USART_IT_F302R8_04/Src\USART_IT_F302R8_04.c **** /*---------------continuous activation state */
 309:C:/Users/geoma/Desktop/Scilab/scilab_test/USART_IT_F302R8_04/USART_IT_F302R8_04/Src\USART_IT_F302R8_04.c **** /*---------------STM32 block(s) without activation state  */
 310:C:/Users/geoma/Desktop/Scilab/scilab_test/USART_IT_F302R8_04/USART_IT_F302R8_04/Src\USART_IT_F302R8_04.c **** /*---------------STM32 solver step: NoEvt NoIn NoOut*/
 311:C:/Users/geoma/Desktop/Scilab/scilab_test/USART_IT_F302R8_04/USART_IT_F302R8_04/Src\USART_IT_F302R8_04.c **** /*---------------STM32 solver step: NoEvt NoIn Out*/
 312:C:/Users/geoma/Desktop/Scilab/scilab_test/USART_IT_F302R8_04/USART_IT_F302R8_04/Src\USART_IT_F302R8_04.c **** /*---------------STM32 solver step: NoEvt In Out*/
 313:C:/Users/geoma/Desktop/Scilab/scilab_test/USART_IT_F302R8_04/USART_IT_F302R8_04/Src\USART_IT_F302R8_04.c **** /*---------------STM32 solver step: NoEvt In NoOut*/
 314:C:/Users/geoma/Desktop/Scilab/scilab_test/USART_IT_F302R8_04/USART_IT_F302R8_04/Src\USART_IT_F302R8_04.c **** /*---------------FLAG: 1  */
 315:C:/Users/geoma/Desktop/Scilab/scilab_test/USART_IT_F302R8_04/USART_IT_F302R8_04/Src\USART_IT_F302R8_04.c ****     /* Output computation */
 316:C:/Users/geoma/Desktop/Scilab/scilab_test/USART_IT_F302R8_04/USART_IT_F302R8_04/Src\USART_IT_F302R8_04.c ****     if(USART2_RxDataLink.rxStatus == USART_RX_OFF)
 518              		.loc 1 316 0
 519 0002 124B     		ldr	r3, .L17
 520 0004 9B79     		ldrb	r3, [r3, #6]	@ zero_extendqisi2
 521 0006 DBB2     		uxtb	r3, r3
 522 0008 022B     		cmp	r3, #2
 523 000a 0CD1     		bne	.L14
 317:C:/Users/geoma/Desktop/Scilab/scilab_test/USART_IT_F302R8_04/USART_IT_F302R8_04/Src\USART_IT_F302R8_04.c ****     {
 318:C:/Users/geoma/Desktop/Scilab/scilab_test/USART_IT_F302R8_04/USART_IT_F302R8_04/Src\USART_IT_F302R8_04.c ****        USART2_RxDataLink.ptRcv = G_USART2_RxDataBuffer;
 524              		.loc 1 318 0
 525 000c 0F4B     		ldr	r3, .L17
 526 000e 1049     		ldr	r1, .L17+4
 527 0010 1960     		str	r1, [r3]
 319:C:/Users/geoma/Desktop/Scilab/scilab_test/USART_IT_F302R8_04/USART_IT_F302R8_04/Src\USART_IT_F302R8_04.c ****        USART2_RxDataLink.nbRcv = 0;
 528              		.loc 1 319 0
 529 0012 0022     		movs	r2, #0
 530 0014 9A80     		strh	r2, [r3, #4]	@ movhi
 320:C:/Users/geoma/Desktop/Scilab/scilab_test/USART_IT_F302R8_04/USART_IT_F302R8_04/Src\USART_IT_F302R8_04.c ****         USART2_RxDataLink.rxStatus = USART_RX_ON;
 531              		.loc 1 320 0
 532 0016 9A71     		strb	r2, [r3, #6]
 321:C:/Users/geoma/Desktop/Scilab/scilab_test/USART_IT_F302R8_04/USART_IT_F302R8_04/Src\USART_IT_F302R8_04.c ****         HAL_UART_Receive_IT(&huart2, G_USART2_RxDataBuffer, *(uint16_t*)USART_IT_F302R8_04_block_ou
 533              		.loc 1 321 0
ARM GAS  C:\Users\geoma\AppData\Local\Temp\ccB1X9Yb.s 			page 16


 534 0018 0E4B     		ldr	r3, .L17+8
 535 001a 1B68     		ldr	r3, [r3]
 536 001c 5B68     		ldr	r3, [r3, #4]
 537 001e 0E48     		ldr	r0, .L17+12
 538 0020 1A88     		ldrh	r2, [r3]
 539 0022 FFF7FEFF 		bl	HAL_UART_Receive_IT
 540              	.LVL22:
 541              	.L14:
 322:C:/Users/geoma/Desktop/Scilab/scilab_test/USART_IT_F302R8_04/USART_IT_F302R8_04/Src\USART_IT_F302R8_04.c ****     }
 323:C:/Users/geoma/Desktop/Scilab/scilab_test/USART_IT_F302R8_04/USART_IT_F302R8_04/Src\USART_IT_F302R8_04.c ****     
 324:C:/Users/geoma/Desktop/Scilab/scilab_test/USART_IT_F302R8_04/USART_IT_F302R8_04/Src\USART_IT_F302R8_04.c ****     if(USART2_RxDataLink.rxStatus == USART_RX_OK)
 542              		.loc 1 324 0
 543 0026 094B     		ldr	r3, .L17
 544 0028 9B79     		ldrb	r3, [r3, #6]	@ zero_extendqisi2
 545 002a DBB2     		uxtb	r3, r3
 546 002c 012B     		cmp	r3, #1
 547 002e 0CD1     		bne	.L13
 325:C:/Users/geoma/Desktop/Scilab/scilab_test/USART_IT_F302R8_04/USART_IT_F302R8_04/Src\USART_IT_F302R8_04.c ****     {
 326:C:/Users/geoma/Desktop/Scilab/scilab_test/USART_IT_F302R8_04/USART_IT_F302R8_04/Src\USART_IT_F302R8_04.c ****        USART2_RxDataLink.nbRcv = *(uint16_t*)USART_IT_F302R8_04_block_outtbptr[1];
 548              		.loc 1 326 0
 549 0030 084B     		ldr	r3, .L17+8
 550 0032 1B68     		ldr	r3, [r3]
 551 0034 5B68     		ldr	r3, [r3, #4]
 552 0036 1A88     		ldrh	r2, [r3]
 553 0038 044B     		ldr	r3, .L17
 554 003a 9A80     		strh	r2, [r3, #4]	@ movhi
 327:C:/Users/geoma/Desktop/Scilab/scilab_test/USART_IT_F302R8_04/USART_IT_F302R8_04/Src\USART_IT_F302R8_04.c ****        USART2_RxDataLink.rxStatus = USART_RX_OFF;
 555              		.loc 1 327 0
 556 003c 0222     		movs	r2, #2
 557 003e 9A71     		strb	r2, [r3, #6]
 328:C:/Users/geoma/Desktop/Scilab/scilab_test/USART_IT_F302R8_04/USART_IT_F302R8_04/Src\USART_IT_F302R8_04.c ****        /* Soft IT request*/
 329:C:/Users/geoma/Desktop/Scilab/scilab_test/USART_IT_F302R8_04/USART_IT_F302R8_04/Src\USART_IT_F302R8_04.c ****        EXTI->SWIER |= 1 << 13;
 558              		.loc 1 329 0
 559 0040 064A     		ldr	r2, .L17+16
 560 0042 1369     		ldr	r3, [r2, #16]
 561 0044 43F40053 		orr	r3, r3, #8192
 562 0048 1361     		str	r3, [r2, #16]
 563              	.L13:
 564 004a 08BD     		pop	{r3, pc}
 565              	.L18:
 566              		.align	2
 567              	.L17:
 568 004c 00000000 		.word	USART2_RxDataLink
 569 0050 00000000 		.word	G_USART2_RxDataBuffer
 570 0054 00000000 		.word	USART_IT_F302R8_04_block_outtbptr
 571 0058 00000000 		.word	huart2
 572 005c 00040140 		.word	1073808384
 573              		.cfi_endproc
 574              	.LFE158:
 576              		.section	.text.get_scicos_time,"ax",%progbits
 577              		.align	2
 578              		.global	get_scicos_time
 579              		.thumb
 580              		.thumb_func
 582              	get_scicos_time:
 583              	.LFB159:
 330:C:/Users/geoma/Desktop/Scilab/scilab_test/USART_IT_F302R8_04/USART_IT_F302R8_04/Src\USART_IT_F302R8_04.c ****     }
ARM GAS  C:\Users\geoma\AppData\Local\Temp\ccB1X9Yb.s 			page 17


 331:C:/Users/geoma/Desktop/Scilab/scilab_test/USART_IT_F302R8_04/USART_IT_F302R8_04/Src\USART_IT_F302R8_04.c ****     
 332:C:/Users/geoma/Desktop/Scilab/scilab_test/USART_IT_F302R8_04/USART_IT_F302R8_04/Src\USART_IT_F302R8_04.c **** 
 333:C:/Users/geoma/Desktop/Scilab/scilab_test/USART_IT_F302R8_04/USART_IT_F302R8_04/Src\USART_IT_F302R8_04.c **** 
 334:C:/Users/geoma/Desktop/Scilab/scilab_test/USART_IT_F302R8_04/USART_IT_F302R8_04/Src\USART_IT_F302R8_04.c ****   } //End of USART_IT_F302R8_04_Step1 function
 335:C:/Users/geoma/Desktop/Scilab/scilab_test/USART_IT_F302R8_04/USART_IT_F302R8_04/Src\USART_IT_F302R8_04.c **** 
 336:C:/Users/geoma/Desktop/Scilab/scilab_test/USART_IT_F302R8_04/USART_IT_F302R8_04/Src\USART_IT_F302R8_04.c **** 
 337:C:/Users/geoma/Desktop/Scilab/scilab_test/USART_IT_F302R8_04/USART_IT_F302R8_04/Src\USART_IT_F302R8_04.c **** double get_scicos_time()
 338:C:/Users/geoma/Desktop/Scilab/scilab_test/USART_IT_F302R8_04/USART_IT_F302R8_04/Src\USART_IT_F302R8_04.c **** {
 584              		.loc 1 338 0
 585              		.cfi_startproc
 586              		@ args = 0, pretend = 0, frame = 0
 587              		@ frame_needed = 0, uses_anonymous_args = 0
 588              		@ link register save eliminated.
 339:C:/Users/geoma/Desktop/Scilab/scilab_test/USART_IT_F302R8_04/USART_IT_F302R8_04/Src\USART_IT_F302R8_04.c ****   return sci_time;
 340:C:/Users/geoma/Desktop/Scilab/scilab_test/USART_IT_F302R8_04/USART_IT_F302R8_04/Src\USART_IT_F302R8_04.c **** }
 589              		.loc 1 340 0
 590 0000 014B     		ldr	r3, .L20
 591 0002 93ED000B 		fldd	d0, [r3]
 592 0006 7047     		bx	lr
 593              	.L21:
 594              		.align	2
 595              	.L20:
 596 0008 00000000 		.word	sci_time
 597              		.cfi_endproc
 598              	.LFE159:
 600              		.section	.text.set_scicos_time,"ax",%progbits
 601              		.align	2
 602              		.global	set_scicos_time
 603              		.thumb
 604              		.thumb_func
 606              	set_scicos_time:
 607              	.LFB160:
 341:C:/Users/geoma/Desktop/Scilab/scilab_test/USART_IT_F302R8_04/USART_IT_F302R8_04/Src\USART_IT_F302R8_04.c **** 
 342:C:/Users/geoma/Desktop/Scilab/scilab_test/USART_IT_F302R8_04/USART_IT_F302R8_04/Src\USART_IT_F302R8_04.c **** void set_scicos_time(double t)
 343:C:/Users/geoma/Desktop/Scilab/scilab_test/USART_IT_F302R8_04/USART_IT_F302R8_04/Src\USART_IT_F302R8_04.c **** {
 608              		.loc 1 343 0
 609              		.cfi_startproc
 610              		@ args = 0, pretend = 0, frame = 0
 611              		@ frame_needed = 0, uses_anonymous_args = 0
 612              		@ link register save eliminated.
 613              	.LVL23:
 344:C:/Users/geoma/Desktop/Scilab/scilab_test/USART_IT_F302R8_04/USART_IT_F302R8_04/Src\USART_IT_F302R8_04.c ****  sci_time = t;
 614              		.loc 1 344 0
 615 0000 014B     		ldr	r3, .L23
 616 0002 83ED000B 		fstd	d0, [r3]
 617 0006 7047     		bx	lr
 618              	.L24:
 619              		.align	2
 620              	.L23:
 621 0008 00000000 		.word	sci_time
 622              		.cfi_endproc
 623              	.LFE160:
 625              		.section	.text.get_phase_simulation,"ax",%progbits
 626              		.align	2
 627              		.global	get_phase_simulation
 628              		.thumb
 629              		.thumb_func
ARM GAS  C:\Users\geoma\AppData\Local\Temp\ccB1X9Yb.s 			page 18


 631              	get_phase_simulation:
 632              	.LFB161:
 345:C:/Users/geoma/Desktop/Scilab/scilab_test/USART_IT_F302R8_04/USART_IT_F302R8_04/Src\USART_IT_F302R8_04.c **** }
 346:C:/Users/geoma/Desktop/Scilab/scilab_test/USART_IT_F302R8_04/USART_IT_F302R8_04/Src\USART_IT_F302R8_04.c **** 
 347:C:/Users/geoma/Desktop/Scilab/scilab_test/USART_IT_F302R8_04/USART_IT_F302R8_04/Src\USART_IT_F302R8_04.c **** int get_phase_simulation()
 348:C:/Users/geoma/Desktop/Scilab/scilab_test/USART_IT_F302R8_04/USART_IT_F302R8_04/Src\USART_IT_F302R8_04.c **** {
 633              		.loc 1 348 0
 634              		.cfi_startproc
 635              		@ args = 0, pretend = 0, frame = 0
 636              		@ frame_needed = 0, uses_anonymous_args = 0
 637              		@ link register save eliminated.
 349:C:/Users/geoma/Desktop/Scilab/scilab_test/USART_IT_F302R8_04/USART_IT_F302R8_04/Src\USART_IT_F302R8_04.c ****   return 1;
 350:C:/Users/geoma/Desktop/Scilab/scilab_test/USART_IT_F302R8_04/USART_IT_F302R8_04/Src\USART_IT_F302R8_04.c **** }
 638              		.loc 1 350 0
 639 0000 0120     		movs	r0, #1
 640 0002 7047     		bx	lr
 641              		.cfi_endproc
 642              	.LFE161:
 644              		.section	.text.set_block_error,"ax",%progbits
 645              		.align	2
 646              		.global	set_block_error
 647              		.thumb
 648              		.thumb_func
 650              	set_block_error:
 651              	.LFB162:
 351:C:/Users/geoma/Desktop/Scilab/scilab_test/USART_IT_F302R8_04/USART_IT_F302R8_04/Src\USART_IT_F302R8_04.c **** 
 352:C:/Users/geoma/Desktop/Scilab/scilab_test/USART_IT_F302R8_04/USART_IT_F302R8_04/Src\USART_IT_F302R8_04.c **** 
 353:C:/Users/geoma/Desktop/Scilab/scilab_test/USART_IT_F302R8_04/USART_IT_F302R8_04/Src\USART_IT_F302R8_04.c **** 
 354:C:/Users/geoma/Desktop/Scilab/scilab_test/USART_IT_F302R8_04/USART_IT_F302R8_04/Src\USART_IT_F302R8_04.c **** void set_block_error(int err)
 355:C:/Users/geoma/Desktop/Scilab/scilab_test/USART_IT_F302R8_04/USART_IT_F302R8_04/Src\USART_IT_F302R8_04.c **** {
 652              		.loc 1 355 0
 653              		.cfi_startproc
 654              		@ args = 0, pretend = 0, frame = 0
 655              		@ frame_needed = 0, uses_anonymous_args = 0
 656              		@ link register save eliminated.
 657              	.LVL24:
 658 0000 7047     		bx	lr
 659              		.cfi_endproc
 660              	.LFE162:
 662 0002 00BF     		.section	.text.scicos_malloc,"ax",%progbits
 663              		.align	2
 664              		.global	scicos_malloc
 665              		.thumb
 666              		.thumb_func
 668              	scicos_malloc:
 669              	.LFB163:
 356:C:/Users/geoma/Desktop/Scilab/scilab_test/USART_IT_F302R8_04/USART_IT_F302R8_04/Src\USART_IT_F302R8_04.c ****   return;
 357:C:/Users/geoma/Desktop/Scilab/scilab_test/USART_IT_F302R8_04/USART_IT_F302R8_04/Src\USART_IT_F302R8_04.c **** }
 358:C:/Users/geoma/Desktop/Scilab/scilab_test/USART_IT_F302R8_04/USART_IT_F302R8_04/Src\USART_IT_F302R8_04.c **** 
 359:C:/Users/geoma/Desktop/Scilab/scilab_test/USART_IT_F302R8_04/USART_IT_F302R8_04/Src\USART_IT_F302R8_04.c **** void * scicos_malloc(size_t size)
 360:C:/Users/geoma/Desktop/Scilab/scilab_test/USART_IT_F302R8_04/USART_IT_F302R8_04/Src\USART_IT_F302R8_04.c **** {
 670              		.loc 1 360 0
 671              		.cfi_startproc
 672              		@ args = 0, pretend = 0, frame = 0
 673              		@ frame_needed = 0, uses_anonymous_args = 0
 674              	.LVL25:
 675              		.loc 1 360 0
ARM GAS  C:\Users\geoma\AppData\Local\Temp\ccB1X9Yb.s 			page 19


 676 0000 08B5     		push	{r3, lr}
 677              	.LCFI2:
 678              		.cfi_def_cfa_offset 8
 679              		.cfi_offset 3, -8
 680              		.cfi_offset 14, -4
 361:C:/Users/geoma/Desktop/Scilab/scilab_test/USART_IT_F302R8_04/USART_IT_F302R8_04/Src\USART_IT_F302R8_04.c ****   return malloc(size);
 681              		.loc 1 361 0
 682 0002 FFF7FEFF 		bl	malloc
 683              	.LVL26:
 362:C:/Users/geoma/Desktop/Scilab/scilab_test/USART_IT_F302R8_04/USART_IT_F302R8_04/Src\USART_IT_F302R8_04.c **** }
 684              		.loc 1 362 0
 685 0006 08BD     		pop	{r3, pc}
 686              		.cfi_endproc
 687              	.LFE163:
 689              		.section	.text.scicos_free,"ax",%progbits
 690              		.align	2
 691              		.global	scicos_free
 692              		.thumb
 693              		.thumb_func
 695              	scicos_free:
 696              	.LFB164:
 363:C:/Users/geoma/Desktop/Scilab/scilab_test/USART_IT_F302R8_04/USART_IT_F302R8_04/Src\USART_IT_F302R8_04.c **** 
 364:C:/Users/geoma/Desktop/Scilab/scilab_test/USART_IT_F302R8_04/USART_IT_F302R8_04/Src\USART_IT_F302R8_04.c **** void scicos_free(void *p)
 365:C:/Users/geoma/Desktop/Scilab/scilab_test/USART_IT_F302R8_04/USART_IT_F302R8_04/Src\USART_IT_F302R8_04.c **** {
 697              		.loc 1 365 0
 698              		.cfi_startproc
 699              		@ args = 0, pretend = 0, frame = 0
 700              		@ frame_needed = 0, uses_anonymous_args = 0
 701              	.LVL27:
 702 0000 08B5     		push	{r3, lr}
 703              	.LCFI3:
 704              		.cfi_def_cfa_offset 8
 705              		.cfi_offset 3, -8
 706              		.cfi_offset 14, -4
 366:C:/Users/geoma/Desktop/Scilab/scilab_test/USART_IT_F302R8_04/USART_IT_F302R8_04/Src\USART_IT_F302R8_04.c ****   free(p);
 707              		.loc 1 366 0
 708 0002 FFF7FEFF 		bl	free
 709              	.LVL28:
 710 0006 08BD     		pop	{r3, pc}
 711              		.cfi_endproc
 712              	.LFE164:
 714              		.section	.text.do_cold_restart,"ax",%progbits
 715              		.align	2
 716              		.global	do_cold_restart
 717              		.thumb
 718              		.thumb_func
 720              	do_cold_restart:
 721              	.LFB165:
 367:C:/Users/geoma/Desktop/Scilab/scilab_test/USART_IT_F302R8_04/USART_IT_F302R8_04/Src\USART_IT_F302R8_04.c **** }
 368:C:/Users/geoma/Desktop/Scilab/scilab_test/USART_IT_F302R8_04/USART_IT_F302R8_04/Src\USART_IT_F302R8_04.c **** 
 369:C:/Users/geoma/Desktop/Scilab/scilab_test/USART_IT_F302R8_04/USART_IT_F302R8_04/Src\USART_IT_F302R8_04.c **** void do_cold_restart()
 370:C:/Users/geoma/Desktop/Scilab/scilab_test/USART_IT_F302R8_04/USART_IT_F302R8_04/Src\USART_IT_F302R8_04.c **** {
 722              		.loc 1 370 0
 723              		.cfi_startproc
 724              		@ args = 0, pretend = 0, frame = 0
 725              		@ frame_needed = 0, uses_anonymous_args = 0
 726              		@ link register save eliminated.
ARM GAS  C:\Users\geoma\AppData\Local\Temp\ccB1X9Yb.s 			page 20


 727 0000 7047     		bx	lr
 728              		.cfi_endproc
 729              	.LFE165:
 731 0002 00BF     		.section	.text.sciprint,"ax",%progbits
 732              		.align	2
 733              		.global	sciprint
 734              		.thumb
 735              		.thumb_func
 737              	sciprint:
 738              	.LFB166:
 371:C:/Users/geoma/Desktop/Scilab/scilab_test/USART_IT_F302R8_04/USART_IT_F302R8_04/Src\USART_IT_F302R8_04.c ****   return;
 372:C:/Users/geoma/Desktop/Scilab/scilab_test/USART_IT_F302R8_04/USART_IT_F302R8_04/Src\USART_IT_F302R8_04.c **** }
 373:C:/Users/geoma/Desktop/Scilab/scilab_test/USART_IT_F302R8_04/USART_IT_F302R8_04/Src\USART_IT_F302R8_04.c **** 
 374:C:/Users/geoma/Desktop/Scilab/scilab_test/USART_IT_F302R8_04/USART_IT_F302R8_04/Src\USART_IT_F302R8_04.c **** void sciprint (char *fmt)
 375:C:/Users/geoma/Desktop/Scilab/scilab_test/USART_IT_F302R8_04/USART_IT_F302R8_04/Src\USART_IT_F302R8_04.c **** {
 739              		.loc 1 375 0
 740              		.cfi_startproc
 741              		@ args = 0, pretend = 0, frame = 0
 742              		@ frame_needed = 0, uses_anonymous_args = 0
 743              		@ link register save eliminated.
 744              	.LVL29:
 745 0000 7047     		bx	lr
 746              		.cfi_endproc
 747              	.LFE166:
 749              		.global	outtb_1
 750              		.global	outtb_2
 751              		.comm	outszptr,24,4
 752              		.comm	outptr,8,4
 753              		.comm	inszptr,12,4
 754              		.comm	inptr,4,4
 755              		.comm	evoutptr,4,4
 756              		.global	z
 757              		.global	IPAR1
 758              		.global	RPAR1
 759              		.global	size_SCSREAL_N_1x1
 760              		.comm	sci_time,8,8
 761              		.comm	t,8,8
 762              		.global	local_flag
 763              		.comm	block_USART_IT_F302R8_04,160,4
 764              		.comm	USART_IT_F302R8_04_block_outtbptr,4,4
 765              		.comm	work,4,4
 766 0002 00BF     		.section	.data.local_flag,"aw",%progbits
 767              		.align	2
 768              		.set	.LANCHOR5,. + 0
 771              	local_flag:
 772 0000 04000000 		.word	4
 773              		.section	.rodata.size_SCSREAL_N_1x1,"a",%progbits
 774              		.align	2
 777              	size_SCSREAL_N_1x1:
 778 0000 01000000 		.word	1
 779 0004 01000000 		.word	1
 780 0008 0A000000 		.word	10
 781              		.section	.rodata.IPAR1,"a",%progbits
 782              		.align	2
 783              		.set	.LANCHOR3,. + 0
 786              	IPAR1:
 787 0000 06000000 		.word	6
ARM GAS  C:\Users\geoma\AppData\Local\Temp\ccB1X9Yb.s 			page 21


 788              		.section	.bss.z,"aw",%nobits
 789              		.align	3
 790              		.set	.LANCHOR0,. + 0
 793              	z:
 794 0000 00000000 		.space	72
 794      00000000 
 794      00000000 
 794      00000000 
 794      00000000 
 795              		.section	.data.OPAR_1,"aw",%progbits
 796              		.align	3
 797              		.set	.LANCHOR4,. + 0
 800              	OPAR_1:
 801 0000 00000000 		.word	0
 802 0004 00001040 		.word	1074790400
 803              		.section	.rodata.RPAR1,"a",%progbits
 804              		.align	3
 807              	RPAR1:
 808 0000 00000000 		.word	0
 809 0004 0000E03F 		.word	1071644672
 810              		.section	.bss.outtb_1,"aw",%nobits
 811              		.align	3
 812              		.set	.LANCHOR2,. + 0
 815              	outtb_1:
 816 0000 00000000 		.space	8
 816      00000000 
 817              		.section	.bss.outtb_2,"aw",%nobits
 818              		.align	2
 819              		.set	.LANCHOR1,. + 0
 822              	outtb_2:
 823 0000 0000     		.space	2
 824              		.text
 825              	.Letext0:
 826              		.file 2 "c:\\program files (x86)\\gnu tools arm embedded\\4.9 2015q2\\lib\\gcc\\arm-none-eabi\\4.9
 827              		.file 3 "c:\\program files (x86)\\gnu tools arm embedded\\4.9 2015q2\\arm-none-eabi\\include\\mach
 828              		.file 4 "c:\\program files (x86)\\gnu tools arm embedded\\4.9 2015q2\\arm-none-eabi\\include\\sys\
 829              		.file 5 "Drivers/CMSIS/Device/ST/STM32F3xx/Include/stm32f302x8.h"
 830              		.file 6 "Drivers/STM32F3xx_HAL_Driver/Inc/stm32f3xx_hal_def.h"
 831              		.file 7 "Drivers/STM32F3xx_HAL_Driver/Inc/stm32f3xx_hal_dma.h"
 832              		.file 8 "Drivers/STM32F3xx_HAL_Driver/Inc/stm32f3xx_hal_uart.h"
 833              		.file 9 "../../toolboxes/STM32_toolbox_1-1/scicos_blocks/includes/scicos_block4.h"
 834              		.file 10 "USART_IT_F302R8_04/Inc/USART_IT_F302R8_04_USART.h"
 835              		.file 11 "Drivers/CMSIS/Include/core_cm4.h"
 836              		.file 12 "c:\\program files (x86)\\gnu tools arm embedded\\4.9 2015q2\\arm-none-eabi\\include\\std
ARM GAS  C:\Users\geoma\AppData\Local\Temp\ccB1X9Yb.s 			page 22

