ARM GAS  C:\Users\geoma\AppData\Local\Temp\ccN9PHOy.s 			page 1


   1              		.syntax unified
   2              		.cpu cortex-m4
   3              		.eabi_attribute 27, 1
   4              		.eabi_attribute 28, 1
   5              		.fpu fpv4-sp-d16
   6              		.eabi_attribute 20, 1
   7              		.eabi_attribute 21, 1
   8              		.eabi_attribute 23, 3
   9              		.eabi_attribute 24, 1
  10              		.eabi_attribute 25, 1
  11              		.eabi_attribute 26, 1
  12              		.eabi_attribute 30, 1
  13              		.eabi_attribute 34, 1
  14              		.eabi_attribute 18, 4
  15              		.thumb
  16              		.file	"USART_DMA_F302R8_GPIO.c"
  17              		.text
  18              	.Ltext0:
  19              		.cfi_sections	.debug_frame
  20              		.section	.text.HAL_GPIO_EXTI_Callback,"ax",%progbits
  21              		.align	2
  22              		.global	HAL_GPIO_EXTI_Callback
  23              		.thumb
  24              		.thumb_func
  26              	HAL_GPIO_EXTI_Callback:
  27              	.LFB156:
  28              		.file 1 "C:/Users/geoma/Desktop/Scilab/scilab_test/USART_DMA_F302R8/USART_DMA_F302R8/Src/USART_DMA
   1:C:/Users/geoma/Desktop/Scilab/scilab_test/USART_DMA_F302R8/USART_DMA_F302R8/Src\USART_DMA_F302R8_GPIO.c **** /*
   2:C:/Users/geoma/Desktop/Scilab/scilab_test/USART_DMA_F302R8/USART_DMA_F302R8/Src\USART_DMA_F302R8_GPIO.c ****  * File: USART_DMA_F302R8_GPIO.c
   3:C:/Users/geoma/Desktop/Scilab/scilab_test/USART_DMA_F302R8/USART_DMA_F302R8/Src\USART_DMA_F302R8_GPIO.c ****  *
   4:C:/Users/geoma/Desktop/Scilab/scilab_test/USART_DMA_F302R8/USART_DMA_F302R8/Src\USART_DMA_F302R8_GPIO.c ****  * Generated by GPIO Coder for Xcos with scilab-5.5.2
   5:C:/Users/geoma/Desktop/Scilab/scilab_test/USART_DMA_F302R8/USART_DMA_F302R8/Src\USART_DMA_F302R8_GPIO.c ****  * C/C++ source code generated on  :10-Oct-2020
   6:C:/Users/geoma/Desktop/Scilab/scilab_test/USART_DMA_F302R8/USART_DMA_F302R8/Src\USART_DMA_F302R8_GPIO.c ****  *
   7:C:/Users/geoma/Desktop/Scilab/scilab_test/USART_DMA_F302R8/USART_DMA_F302R8/Src\USART_DMA_F302R8_GPIO.c ****  * Model version      :1.0
   8:C:/Users/geoma/Desktop/Scilab/scilab_test/USART_DMA_F302R8/USART_DMA_F302R8/Src\USART_DMA_F302R8_GPIO.c ****  *
   9:C:/Users/geoma/Desktop/Scilab/scilab_test/USART_DMA_F302R8/USART_DMA_F302R8/Src\USART_DMA_F302R8_GPIO.c ****  * ******************************************************************************
  10:C:/Users/geoma/Desktop/Scilab/scilab_test/USART_DMA_F302R8/USART_DMA_F302R8/Src\USART_DMA_F302R8_GPIO.c ****  * * attention
  11:C:/Users/geoma/Desktop/Scilab/scilab_test/USART_DMA_F302R8/USART_DMA_F302R8/Src\USART_DMA_F302R8_GPIO.c ****  * *
  12:C:/Users/geoma/Desktop/Scilab/scilab_test/USART_DMA_F302R8/USART_DMA_F302R8/Src\USART_DMA_F302R8_GPIO.c ****  * * THE PRESENT FIRMWARE WHICH IS FOR GUIDANCE ONLY AIMS AT PROVIDING CUSTOMERS
  13:C:/Users/geoma/Desktop/Scilab/scilab_test/USART_DMA_F302R8/USART_DMA_F302R8/Src\USART_DMA_F302R8_GPIO.c ****  * * WITH CODING INFORMATION REGARDING THEIR PRODUCTS IN ORDER FOR THEM TO SAVE
  14:C:/Users/geoma/Desktop/Scilab/scilab_test/USART_DMA_F302R8/USART_DMA_F302R8/Src\USART_DMA_F302R8_GPIO.c ****  * * TIME. AS A RESULT, STMICROELECTRONICS SHALL NOT BE HELD LIABLE FOR ANY
  15:C:/Users/geoma/Desktop/Scilab/scilab_test/USART_DMA_F302R8/USART_DMA_F302R8/Src\USART_DMA_F302R8_GPIO.c ****  * * DIRECT, INDIRECT OR CONSEQUENTIAL DAMAGES WITH RESPECT TO ANY CLAIMS ARISING
  16:C:/Users/geoma/Desktop/Scilab/scilab_test/USART_DMA_F302R8/USART_DMA_F302R8/Src\USART_DMA_F302R8_GPIO.c ****  * * FROM THE CONTENT OF SUCH FIRMWARE AND/OR THE USE MADE BY CUSTOMERS OF THE
  17:C:/Users/geoma/Desktop/Scilab/scilab_test/USART_DMA_F302R8/USART_DMA_F302R8/Src\USART_DMA_F302R8_GPIO.c ****  * * CODING INFORMATION CONTAINED HEREIN IN CONNECTION WITH THEIR PRODUCTS.
  18:C:/Users/geoma/Desktop/Scilab/scilab_test/USART_DMA_F302R8/USART_DMA_F302R8/Src\USART_DMA_F302R8_GPIO.c ****  * *
  19:C:/Users/geoma/Desktop/Scilab/scilab_test/USART_DMA_F302R8/USART_DMA_F302R8/Src\USART_DMA_F302R8_GPIO.c ****  * ******************************************************************************
  20:C:/Users/geoma/Desktop/Scilab/scilab_test/USART_DMA_F302R8/USART_DMA_F302R8/Src\USART_DMA_F302R8_GPIO.c ****  */
  21:C:/Users/geoma/Desktop/Scilab/scilab_test/USART_DMA_F302R8/USART_DMA_F302R8/Src\USART_DMA_F302R8_GPIO.c **** 
  22:C:/Users/geoma/Desktop/Scilab/scilab_test/USART_DMA_F302R8/USART_DMA_F302R8/Src\USART_DMA_F302R8_GPIO.c **** #include "USART_DMA_F302R8.h"
  23:C:/Users/geoma/Desktop/Scilab/scilab_test/USART_DMA_F302R8/USART_DMA_F302R8/Src\USART_DMA_F302R8_GPIO.c **** #include "USART_DMA_F302R8_GPIO.h"
  24:C:/Users/geoma/Desktop/Scilab/scilab_test/USART_DMA_F302R8/USART_DMA_F302R8/Src\USART_DMA_F302R8_GPIO.c **** 
  25:C:/Users/geoma/Desktop/Scilab/scilab_test/USART_DMA_F302R8/USART_DMA_F302R8/Src\USART_DMA_F302R8_GPIO.c **** /* Exti function pointer array definition*/
  26:C:/Users/geoma/Desktop/Scilab/scilab_test/USART_DMA_F302R8/USART_DMA_F302R8/Src\USART_DMA_F302R8_GPIO.c **** void (*EXTI_Callback[16])(void) = {NULL,NULL,NULL,NULL,NULL,NULL,NULL,NULL,NULL,NULL,NULL,NULL,NULL
  27:C:/Users/geoma/Desktop/Scilab/scilab_test/USART_DMA_F302R8/USART_DMA_F302R8/Src\USART_DMA_F302R8_GPIO.c **** /*******************************************************************************
  28:C:/Users/geoma/Desktop/Scilab/scilab_test/USART_DMA_F302R8/USART_DMA_F302R8/Src\USART_DMA_F302R8_GPIO.c **** * Function Name  : HAL_GPIO_EXTI_Callback
  29:C:/Users/geoma/Desktop/Scilab/scilab_test/USART_DMA_F302R8/USART_DMA_F302R8/Src\USART_DMA_F302R8_GPIO.c **** * Description    : Callback for External Interrupt
  30:C:/Users/geoma/Desktop/Scilab/scilab_test/USART_DMA_F302R8/USART_DMA_F302R8/Src\USART_DMA_F302R8_GPIO.c **** * Input          : GPIO_Pin
ARM GAS  C:\Users\geoma\AppData\Local\Temp\ccN9PHOy.s 			page 2


  31:C:/Users/geoma/Desktop/Scilab/scilab_test/USART_DMA_F302R8/USART_DMA_F302R8/Src\USART_DMA_F302R8_GPIO.c **** *******************************************************************************/
  32:C:/Users/geoma/Desktop/Scilab/scilab_test/USART_DMA_F302R8/USART_DMA_F302R8/Src\USART_DMA_F302R8_GPIO.c **** void HAL_GPIO_EXTI_Callback(uint16_t GPIO_Pin)
  33:C:/Users/geoma/Desktop/Scilab/scilab_test/USART_DMA_F302R8/USART_DMA_F302R8/Src\USART_DMA_F302R8_GPIO.c **** {
  29              		.loc 1 33 0
  30              		.cfi_startproc
  31              		@ args = 0, pretend = 0, frame = 0
  32              		@ frame_needed = 0, uses_anonymous_args = 0
  33              	.LVL0:
  34 0000 08B5     		push	{r3, lr}
  35              	.LCFI0:
  36              		.cfi_def_cfa_offset 8
  37              		.cfi_offset 3, -8
  38              		.cfi_offset 14, -4
  39              	.LVL1:
  34:C:/Users/geoma/Desktop/Scilab/scilab_test/USART_DMA_F302R8/USART_DMA_F302R8/Src\USART_DMA_F302R8_GPIO.c ****   uint16_t L_PinNum = 0;
  35:C:/Users/geoma/Desktop/Scilab/scilab_test/USART_DMA_F302R8/USART_DMA_F302R8/Src\USART_DMA_F302R8_GPIO.c ****   switch(GPIO_Pin) {
  40              		.loc 1 35 0
  41 0002 B0F5807F 		cmp	r0, #256
  42 0006 35D0     		beq	.L3
  43 0008 10D8     		bhi	.L4
  44 000a 1028     		cmp	r0, #16
  45 000c 2AD0     		beq	.L5
  46 000e 06D8     		bhi	.L6
  47 0010 0428     		cmp	r0, #4
  48 0012 41D0     		beq	.L22
  49 0014 0828     		cmp	r0, #8
  50 0016 23D0     		beq	.L8
  51 0018 0228     		cmp	r0, #2
  52 001a 3BD1     		bne	.L2
  53 001c 1EE0     		b	.L9
  54              	.L6:
  55 001e 4028     		cmp	r0, #64
  56 0020 24D0     		beq	.L10
  57 0022 8028     		cmp	r0, #128
  58 0024 24D0     		beq	.L11
  59 0026 2028     		cmp	r0, #32
  60 0028 34D1     		bne	.L2
  61 002a 1DE0     		b	.L12
  62              	.L4:
  63 002c B0F5805F 		cmp	r0, #4096
  64 0030 28D0     		beq	.L13
  65 0032 09D8     		bhi	.L14
  66 0034 B0F5806F 		cmp	r0, #1024
  67 0038 20D0     		beq	.L15
  68 003a B0F5006F 		cmp	r0, #2048
  69 003e 1FD0     		beq	.L16
  70 0040 B0F5007F 		cmp	r0, #512
  71 0044 26D1     		bne	.L2
  72 0046 17E0     		b	.L17
  73              	.L14:
  74 0048 B0F5804F 		cmp	r0, #16384
  75 004c 1ED0     		beq	.L18
  76 004e B0F5004F 		cmp	r0, #32768
  77 0052 1DD0     		beq	.L19
  78 0054 B0F5005F 		cmp	r0, #8192
  79 0058 1CD1     		bne	.L2
  80 005a 15E0     		b	.L20
ARM GAS  C:\Users\geoma\AppData\Local\Temp\ccN9PHOy.s 			page 3


  81              	.L9:
  36:C:/Users/geoma/Desktop/Scilab/scilab_test/USART_DMA_F302R8/USART_DMA_F302R8/Src\USART_DMA_F302R8_GPIO.c ****     case GPIO_PIN_1 :
  37:C:/Users/geoma/Desktop/Scilab/scilab_test/USART_DMA_F302R8/USART_DMA_F302R8/Src\USART_DMA_F302R8_GPIO.c ****       L_PinNum = 1;
  82              		.loc 1 37 0
  83 005c 0122     		movs	r2, #1
  84 005e 1CE0     		b	.L7
  85              	.L8:
  86              	.LVL2:
  38:C:/Users/geoma/Desktop/Scilab/scilab_test/USART_DMA_F302R8/USART_DMA_F302R8/Src\USART_DMA_F302R8_GPIO.c ****     break;
  39:C:/Users/geoma/Desktop/Scilab/scilab_test/USART_DMA_F302R8/USART_DMA_F302R8/Src\USART_DMA_F302R8_GPIO.c ****     case GPIO_PIN_2 :
  40:C:/Users/geoma/Desktop/Scilab/scilab_test/USART_DMA_F302R8/USART_DMA_F302R8/Src\USART_DMA_F302R8_GPIO.c ****       L_PinNum = 2;
  41:C:/Users/geoma/Desktop/Scilab/scilab_test/USART_DMA_F302R8/USART_DMA_F302R8/Src\USART_DMA_F302R8_GPIO.c ****     break;
  42:C:/Users/geoma/Desktop/Scilab/scilab_test/USART_DMA_F302R8/USART_DMA_F302R8/Src\USART_DMA_F302R8_GPIO.c ****     case GPIO_PIN_3 :
  43:C:/Users/geoma/Desktop/Scilab/scilab_test/USART_DMA_F302R8/USART_DMA_F302R8/Src\USART_DMA_F302R8_GPIO.c ****       L_PinNum = 3;
  87              		.loc 1 43 0
  88 0060 0322     		movs	r2, #3
  44:C:/Users/geoma/Desktop/Scilab/scilab_test/USART_DMA_F302R8/USART_DMA_F302R8/Src\USART_DMA_F302R8_GPIO.c ****     break;
  89              		.loc 1 44 0
  90 0062 1AE0     		b	.L7
  91              	.LVL3:
  92              	.L5:
  45:C:/Users/geoma/Desktop/Scilab/scilab_test/USART_DMA_F302R8/USART_DMA_F302R8/Src\USART_DMA_F302R8_GPIO.c ****     case GPIO_PIN_4 :
  46:C:/Users/geoma/Desktop/Scilab/scilab_test/USART_DMA_F302R8/USART_DMA_F302R8/Src\USART_DMA_F302R8_GPIO.c ****       L_PinNum = 4;
  93              		.loc 1 46 0
  94 0064 0422     		movs	r2, #4
  47:C:/Users/geoma/Desktop/Scilab/scilab_test/USART_DMA_F302R8/USART_DMA_F302R8/Src\USART_DMA_F302R8_GPIO.c ****     break;
  95              		.loc 1 47 0
  96 0066 18E0     		b	.L7
  97              	.LVL4:
  98              	.L12:
  48:C:/Users/geoma/Desktop/Scilab/scilab_test/USART_DMA_F302R8/USART_DMA_F302R8/Src\USART_DMA_F302R8_GPIO.c ****     case GPIO_PIN_5 :
  49:C:/Users/geoma/Desktop/Scilab/scilab_test/USART_DMA_F302R8/USART_DMA_F302R8/Src\USART_DMA_F302R8_GPIO.c ****       L_PinNum = 5;
  99              		.loc 1 49 0
 100 0068 0522     		movs	r2, #5
  50:C:/Users/geoma/Desktop/Scilab/scilab_test/USART_DMA_F302R8/USART_DMA_F302R8/Src\USART_DMA_F302R8_GPIO.c ****     break;
 101              		.loc 1 50 0
 102 006a 16E0     		b	.L7
 103              	.LVL5:
 104              	.L10:
  51:C:/Users/geoma/Desktop/Scilab/scilab_test/USART_DMA_F302R8/USART_DMA_F302R8/Src\USART_DMA_F302R8_GPIO.c ****     case GPIO_PIN_6 :
  52:C:/Users/geoma/Desktop/Scilab/scilab_test/USART_DMA_F302R8/USART_DMA_F302R8/Src\USART_DMA_F302R8_GPIO.c ****       L_PinNum = 6;
 105              		.loc 1 52 0
 106 006c 0622     		movs	r2, #6
  53:C:/Users/geoma/Desktop/Scilab/scilab_test/USART_DMA_F302R8/USART_DMA_F302R8/Src\USART_DMA_F302R8_GPIO.c ****     break;
 107              		.loc 1 53 0
 108 006e 14E0     		b	.L7
 109              	.LVL6:
 110              	.L11:
  54:C:/Users/geoma/Desktop/Scilab/scilab_test/USART_DMA_F302R8/USART_DMA_F302R8/Src\USART_DMA_F302R8_GPIO.c ****     case GPIO_PIN_7 :
  55:C:/Users/geoma/Desktop/Scilab/scilab_test/USART_DMA_F302R8/USART_DMA_F302R8/Src\USART_DMA_F302R8_GPIO.c ****       L_PinNum = 7;
 111              		.loc 1 55 0
 112 0070 0722     		movs	r2, #7
  56:C:/Users/geoma/Desktop/Scilab/scilab_test/USART_DMA_F302R8/USART_DMA_F302R8/Src\USART_DMA_F302R8_GPIO.c ****     break;
 113              		.loc 1 56 0
 114 0072 12E0     		b	.L7
 115              	.LVL7:
 116              	.L3:
ARM GAS  C:\Users\geoma\AppData\Local\Temp\ccN9PHOy.s 			page 4


  57:C:/Users/geoma/Desktop/Scilab/scilab_test/USART_DMA_F302R8/USART_DMA_F302R8/Src\USART_DMA_F302R8_GPIO.c ****     case GPIO_PIN_8 :
  58:C:/Users/geoma/Desktop/Scilab/scilab_test/USART_DMA_F302R8/USART_DMA_F302R8/Src\USART_DMA_F302R8_GPIO.c ****       L_PinNum = 8;
 117              		.loc 1 58 0
 118 0074 0822     		movs	r2, #8
  59:C:/Users/geoma/Desktop/Scilab/scilab_test/USART_DMA_F302R8/USART_DMA_F302R8/Src\USART_DMA_F302R8_GPIO.c ****     break;
 119              		.loc 1 59 0
 120 0076 10E0     		b	.L7
 121              	.LVL8:
 122              	.L17:
  60:C:/Users/geoma/Desktop/Scilab/scilab_test/USART_DMA_F302R8/USART_DMA_F302R8/Src\USART_DMA_F302R8_GPIO.c ****     case GPIO_PIN_9 :
  61:C:/Users/geoma/Desktop/Scilab/scilab_test/USART_DMA_F302R8/USART_DMA_F302R8/Src\USART_DMA_F302R8_GPIO.c ****       L_PinNum = 9;
 123              		.loc 1 61 0
 124 0078 0922     		movs	r2, #9
  62:C:/Users/geoma/Desktop/Scilab/scilab_test/USART_DMA_F302R8/USART_DMA_F302R8/Src\USART_DMA_F302R8_GPIO.c ****     break;
 125              		.loc 1 62 0
 126 007a 0EE0     		b	.L7
 127              	.LVL9:
 128              	.L15:
  63:C:/Users/geoma/Desktop/Scilab/scilab_test/USART_DMA_F302R8/USART_DMA_F302R8/Src\USART_DMA_F302R8_GPIO.c ****     case GPIO_PIN_10 :
  64:C:/Users/geoma/Desktop/Scilab/scilab_test/USART_DMA_F302R8/USART_DMA_F302R8/Src\USART_DMA_F302R8_GPIO.c ****       L_PinNum = 10;
 129              		.loc 1 64 0
 130 007c 0A22     		movs	r2, #10
  65:C:/Users/geoma/Desktop/Scilab/scilab_test/USART_DMA_F302R8/USART_DMA_F302R8/Src\USART_DMA_F302R8_GPIO.c ****     break;
 131              		.loc 1 65 0
 132 007e 0CE0     		b	.L7
 133              	.LVL10:
 134              	.L16:
  66:C:/Users/geoma/Desktop/Scilab/scilab_test/USART_DMA_F302R8/USART_DMA_F302R8/Src\USART_DMA_F302R8_GPIO.c ****     case GPIO_PIN_11 :
  67:C:/Users/geoma/Desktop/Scilab/scilab_test/USART_DMA_F302R8/USART_DMA_F302R8/Src\USART_DMA_F302R8_GPIO.c ****       L_PinNum = 11;
 135              		.loc 1 67 0
 136 0080 0B22     		movs	r2, #11
  68:C:/Users/geoma/Desktop/Scilab/scilab_test/USART_DMA_F302R8/USART_DMA_F302R8/Src\USART_DMA_F302R8_GPIO.c ****     break;
 137              		.loc 1 68 0
 138 0082 0AE0     		b	.L7
 139              	.LVL11:
 140              	.L13:
  69:C:/Users/geoma/Desktop/Scilab/scilab_test/USART_DMA_F302R8/USART_DMA_F302R8/Src\USART_DMA_F302R8_GPIO.c ****     case GPIO_PIN_12 :
  70:C:/Users/geoma/Desktop/Scilab/scilab_test/USART_DMA_F302R8/USART_DMA_F302R8/Src\USART_DMA_F302R8_GPIO.c ****       L_PinNum = 13;
 141              		.loc 1 70 0
 142 0084 0D22     		movs	r2, #13
  71:C:/Users/geoma/Desktop/Scilab/scilab_test/USART_DMA_F302R8/USART_DMA_F302R8/Src\USART_DMA_F302R8_GPIO.c ****     break;
 143              		.loc 1 71 0
 144 0086 08E0     		b	.L7
 145              	.LVL12:
 146              	.L20:
  72:C:/Users/geoma/Desktop/Scilab/scilab_test/USART_DMA_F302R8/USART_DMA_F302R8/Src\USART_DMA_F302R8_GPIO.c ****     case GPIO_PIN_13 :
  73:C:/Users/geoma/Desktop/Scilab/scilab_test/USART_DMA_F302R8/USART_DMA_F302R8/Src\USART_DMA_F302R8_GPIO.c ****       L_PinNum = 13;
 147              		.loc 1 73 0
 148 0088 0D22     		movs	r2, #13
  74:C:/Users/geoma/Desktop/Scilab/scilab_test/USART_DMA_F302R8/USART_DMA_F302R8/Src\USART_DMA_F302R8_GPIO.c ****     break;
 149              		.loc 1 74 0
 150 008a 06E0     		b	.L7
 151              	.LVL13:
 152              	.L18:
  75:C:/Users/geoma/Desktop/Scilab/scilab_test/USART_DMA_F302R8/USART_DMA_F302R8/Src\USART_DMA_F302R8_GPIO.c ****     case GPIO_PIN_14 :
  76:C:/Users/geoma/Desktop/Scilab/scilab_test/USART_DMA_F302R8/USART_DMA_F302R8/Src\USART_DMA_F302R8_GPIO.c ****       L_PinNum = 14;
 153              		.loc 1 76 0
ARM GAS  C:\Users\geoma\AppData\Local\Temp\ccN9PHOy.s 			page 5


 154 008c 0E22     		movs	r2, #14
  77:C:/Users/geoma/Desktop/Scilab/scilab_test/USART_DMA_F302R8/USART_DMA_F302R8/Src\USART_DMA_F302R8_GPIO.c ****     break;
 155              		.loc 1 77 0
 156 008e 04E0     		b	.L7
 157              	.LVL14:
 158              	.L19:
  78:C:/Users/geoma/Desktop/Scilab/scilab_test/USART_DMA_F302R8/USART_DMA_F302R8/Src\USART_DMA_F302R8_GPIO.c ****     case GPIO_PIN_15 :
  79:C:/Users/geoma/Desktop/Scilab/scilab_test/USART_DMA_F302R8/USART_DMA_F302R8/Src\USART_DMA_F302R8_GPIO.c ****       L_PinNum = 15;
 159              		.loc 1 79 0
 160 0090 0F22     		movs	r2, #15
  80:C:/Users/geoma/Desktop/Scilab/scilab_test/USART_DMA_F302R8/USART_DMA_F302R8/Src\USART_DMA_F302R8_GPIO.c ****     break;
 161              		.loc 1 80 0
 162 0092 02E0     		b	.L7
 163              	.LVL15:
 164              	.L2:
  81:C:/Users/geoma/Desktop/Scilab/scilab_test/USART_DMA_F302R8/USART_DMA_F302R8/Src\USART_DMA_F302R8_GPIO.c ****     default:
  82:C:/Users/geoma/Desktop/Scilab/scilab_test/USART_DMA_F302R8/USART_DMA_F302R8/Src\USART_DMA_F302R8_GPIO.c ****       L_PinNum = 0;
 165              		.loc 1 82 0
 166 0094 0022     		movs	r2, #0
  83:C:/Users/geoma/Desktop/Scilab/scilab_test/USART_DMA_F302R8/USART_DMA_F302R8/Src\USART_DMA_F302R8_GPIO.c ****     break;
 167              		.loc 1 83 0
 168 0096 00E0     		b	.L7
 169              	.L22:
  40:C:/Users/geoma/Desktop/Scilab/scilab_test/USART_DMA_F302R8/USART_DMA_F302R8/Src\USART_DMA_F302R8_GPIO.c ****     break;
 170              		.loc 1 40 0
 171 0098 0222     		movs	r2, #2
 172              	.LVL16:
 173              	.L7:
  84:C:/Users/geoma/Desktop/Scilab/scilab_test/USART_DMA_F302R8/USART_DMA_F302R8/Src\USART_DMA_F302R8_GPIO.c ****   }
  85:C:/Users/geoma/Desktop/Scilab/scilab_test/USART_DMA_F302R8/USART_DMA_F302R8/Src\USART_DMA_F302R8_GPIO.c ****   if(EXTI_Callback[L_PinNum] != NULL) {
 174              		.loc 1 85 0
 175 009a 034B     		ldr	r3, .L24
 176 009c 53F82230 		ldr	r3, [r3, r2, lsl #2]
 177 00a0 03B1     		cbz	r3, .L1
  86:C:/Users/geoma/Desktop/Scilab/scilab_test/USART_DMA_F302R8/USART_DMA_F302R8/Src\USART_DMA_F302R8_GPIO.c ****     (*EXTI_Callback[L_PinNum])();
 178              		.loc 1 86 0
 179 00a2 9847     		blx	r3
 180              	.LVL17:
 181              	.L1:
 182 00a4 08BD     		pop	{r3, pc}
 183              	.L25:
 184 00a6 00BF     		.align	2
 185              	.L24:
 186 00a8 00000000 		.word	.LANCHOR0
 187              		.cfi_endproc
 188              	.LFE156:
 190              		.section	.text.GPIO_Initialize,"ax",%progbits
 191              		.align	2
 192              		.global	GPIO_Initialize
 193              		.thumb
 194              		.thumb_func
 196              	GPIO_Initialize:
 197              	.LFB157:
  87:C:/Users/geoma/Desktop/Scilab/scilab_test/USART_DMA_F302R8/USART_DMA_F302R8/Src\USART_DMA_F302R8_GPIO.c ****   }
  88:C:/Users/geoma/Desktop/Scilab/scilab_test/USART_DMA_F302R8/USART_DMA_F302R8/Src\USART_DMA_F302R8_GPIO.c **** }
  89:C:/Users/geoma/Desktop/Scilab/scilab_test/USART_DMA_F302R8/USART_DMA_F302R8/Src\USART_DMA_F302R8_GPIO.c **** 
  90:C:/Users/geoma/Desktop/Scilab/scilab_test/USART_DMA_F302R8/USART_DMA_F302R8/Src\USART_DMA_F302R8_GPIO.c **** void GPIO_Initialize(void){
ARM GAS  C:\Users\geoma\AppData\Local\Temp\ccN9PHOy.s 			page 6


 198              		.loc 1 90 0
 199              		.cfi_startproc
 200              		@ args = 0, pretend = 0, frame = 0
 201              		@ frame_needed = 0, uses_anonymous_args = 0
 202              		@ link register save eliminated.
  91:C:/Users/geoma/Desktop/Scilab/scilab_test/USART_DMA_F302R8/USART_DMA_F302R8/Src\USART_DMA_F302R8_GPIO.c ****    EXTI_Callback[13] = EXTI13_Callback; //Set External interrupt callback function for pin 13
 203              		.loc 1 91 0
 204 0000 014A     		ldr	r2, .L27
 205 0002 024B     		ldr	r3, .L27+4
 206 0004 5A63     		str	r2, [r3, #52]
 207 0006 7047     		bx	lr
 208              	.L28:
 209              		.align	2
 210              	.L27:
 211 0008 00000000 		.word	EXTI13_Callback
 212 000c 00000000 		.word	.LANCHOR0
 213              		.cfi_endproc
 214              	.LFE157:
 216              		.global	EXTI_Callback
 217              		.section	.bss.EXTI_Callback,"aw",%nobits
 218              		.align	2
 219              		.set	.LANCHOR0,. + 0
 222              	EXTI_Callback:
 223 0000 00000000 		.space	64
 223      00000000 
 223      00000000 
 223      00000000 
 223      00000000 
 224              		.text
 225              	.Letext0:
 226              		.file 2 "c:\\program files (x86)\\gnu tools arm embedded\\4.9 2015q2\\arm-none-eabi\\include\\mach
 227              		.file 3 "c:\\program files (x86)\\gnu tools arm embedded\\4.9 2015q2\\arm-none-eabi\\include\\sys\
 228              		.file 4 "Drivers/CMSIS/Include/core_cm4.h"
ARM GAS  C:\Users\geoma\AppData\Local\Temp\ccN9PHOy.s 			page 7


DEFINED SYMBOLS
                            *ABS*:00000000 USART_DMA_F302R8_GPIO.c
C:\Users\geoma\AppData\Local\Temp\ccN9PHOy.s:21     .text.HAL_GPIO_EXTI_Callback:00000000 $t
C:\Users\geoma\AppData\Local\Temp\ccN9PHOy.s:26     .text.HAL_GPIO_EXTI_Callback:00000000 HAL_GPIO_EXTI_Callback
C:\Users\geoma\AppData\Local\Temp\ccN9PHOy.s:186    .text.HAL_GPIO_EXTI_Callback:000000a8 $d
C:\Users\geoma\AppData\Local\Temp\ccN9PHOy.s:191    .text.GPIO_Initialize:00000000 $t
C:\Users\geoma\AppData\Local\Temp\ccN9PHOy.s:196    .text.GPIO_Initialize:00000000 GPIO_Initialize
C:\Users\geoma\AppData\Local\Temp\ccN9PHOy.s:211    .text.GPIO_Initialize:00000008 $d
C:\Users\geoma\AppData\Local\Temp\ccN9PHOy.s:222    .bss.EXTI_Callback:00000000 EXTI_Callback
C:\Users\geoma\AppData\Local\Temp\ccN9PHOy.s:218    .bss.EXTI_Callback:00000000 $d
                     .debug_frame:00000010 $d

UNDEFINED SYMBOLS
EXTI13_Callback
