ARM GAS  C:\Users\geoma\AppData\Local\Temp\ccldsZgL.s 			page 1


   1              		.syntax unified
   2              		.cpu cortex-m4
   3              		.eabi_attribute 27, 1
   4              		.eabi_attribute 28, 1
   5              		.fpu fpv4-sp-d16
   6              		.eabi_attribute 20, 1
   7              		.eabi_attribute 21, 1
   8              		.eabi_attribute 23, 3
   9              		.eabi_attribute 24, 1
  10              		.eabi_attribute 25, 1
  11              		.eabi_attribute 26, 1
  12              		.eabi_attribute 30, 1
  13              		.eabi_attribute 34, 1
  14              		.eabi_attribute 18, 4
  15              		.thumb
  16              		.file	"USART_DMA_F302R8.c"
  17              		.text
  18              	.Ltext0:
  19              		.cfi_sections	.debug_frame
  20              		.section	.text.assert_sci_failed,"ax",%progbits
  21              		.align	2
  22              		.global	assert_sci_failed
  23              		.thumb
  24              		.thumb_func
  26              	assert_sci_failed:
  27              	.LFB156:
  28              		.file 1 "C:/Users/geoma/Desktop/Scilab/scilab_test/USART_DMA_F302R8/USART_DMA_F302R8/Src/USART_DMA
   1:C:/Users/geoma/Desktop/Scilab/scilab_test/USART_DMA_F302R8/USART_DMA_F302R8/Src\USART_DMA_F302R8.c **** /*
   2:C:/Users/geoma/Desktop/Scilab/scilab_test/USART_DMA_F302R8/USART_DMA_F302R8/Src\USART_DMA_F302R8.c ****  * File: USART_DMA_F302R8.c
   3:C:/Users/geoma/Desktop/Scilab/scilab_test/USART_DMA_F302R8/USART_DMA_F302R8/Src\USART_DMA_F302R8.c ****  *
   4:C:/Users/geoma/Desktop/Scilab/scilab_test/USART_DMA_F302R8/USART_DMA_F302R8/Src\USART_DMA_F302R8.c ****  * Generated by STM32 Coder for Xcos with scilab-5.5.2
   5:C:/Users/geoma/Desktop/Scilab/scilab_test/USART_DMA_F302R8/USART_DMA_F302R8/Src\USART_DMA_F302R8.c ****  * C/C++ source code generated on  :10-Oct-2020
   6:C:/Users/geoma/Desktop/Scilab/scilab_test/USART_DMA_F302R8/USART_DMA_F302R8/Src\USART_DMA_F302R8.c ****  *
   7:C:/Users/geoma/Desktop/Scilab/scilab_test/USART_DMA_F302R8/USART_DMA_F302R8/Src\USART_DMA_F302R8.c ****  * Model version      : 1.0
   8:C:/Users/geoma/Desktop/Scilab/scilab_test/USART_DMA_F302R8/USART_DMA_F302R8/Src\USART_DMA_F302R8.c ****  *
   9:C:/Users/geoma/Desktop/Scilab/scilab_test/USART_DMA_F302R8/USART_DMA_F302R8/Src\USART_DMA_F302R8.c ****  * ******************************************************************************
  10:C:/Users/geoma/Desktop/Scilab/scilab_test/USART_DMA_F302R8/USART_DMA_F302R8/Src\USART_DMA_F302R8.c ****  * * attention
  11:C:/Users/geoma/Desktop/Scilab/scilab_test/USART_DMA_F302R8/USART_DMA_F302R8/Src\USART_DMA_F302R8.c ****  * *
  12:C:/Users/geoma/Desktop/Scilab/scilab_test/USART_DMA_F302R8/USART_DMA_F302R8/Src\USART_DMA_F302R8.c ****  * * THE PRESENT FIRMWARE WHICH IS FOR GUIDANCE ONLY AIMS AT PROVIDING CUSTOMERS
  13:C:/Users/geoma/Desktop/Scilab/scilab_test/USART_DMA_F302R8/USART_DMA_F302R8/Src\USART_DMA_F302R8.c ****  * * WITH CODING INFORMATION REGARDING THEIR PRODUCTS IN ORDER FOR THEM TO SAVE
  14:C:/Users/geoma/Desktop/Scilab/scilab_test/USART_DMA_F302R8/USART_DMA_F302R8/Src\USART_DMA_F302R8.c ****  * * TIME. AS A RESULT, STMICROELECTRONICS SHALL NOT BE HELD LIABLE FOR ANY
  15:C:/Users/geoma/Desktop/Scilab/scilab_test/USART_DMA_F302R8/USART_DMA_F302R8/Src\USART_DMA_F302R8.c ****  * * DIRECT, INDIRECT OR CONSEQUENTIAL DAMAGES WITH RESPECT TO ANY CLAIMS ARISING
  16:C:/Users/geoma/Desktop/Scilab/scilab_test/USART_DMA_F302R8/USART_DMA_F302R8/Src\USART_DMA_F302R8.c ****  * * FROM THE CONTENT OF SUCH FIRMWARE AND/OR THE USE MADE BY CUSTOMERS OF THE
  17:C:/Users/geoma/Desktop/Scilab/scilab_test/USART_DMA_F302R8/USART_DMA_F302R8/Src\USART_DMA_F302R8.c ****  * * CODING INFORMATION CONTAINED HEREIN IN CONNECTION WITH THEIR PRODUCTS.
  18:C:/Users/geoma/Desktop/Scilab/scilab_test/USART_DMA_F302R8/USART_DMA_F302R8/Src\USART_DMA_F302R8.c ****  * *
  19:C:/Users/geoma/Desktop/Scilab/scilab_test/USART_DMA_F302R8/USART_DMA_F302R8/Src\USART_DMA_F302R8.c ****  * ******************************************************************************
  20:C:/Users/geoma/Desktop/Scilab/scilab_test/USART_DMA_F302R8/USART_DMA_F302R8/Src\USART_DMA_F302R8.c ****  */
  21:C:/Users/geoma/Desktop/Scilab/scilab_test/USART_DMA_F302R8/USART_DMA_F302R8/Src\USART_DMA_F302R8.c **** 
  22:C:/Users/geoma/Desktop/Scilab/scilab_test/USART_DMA_F302R8/USART_DMA_F302R8/Src\USART_DMA_F302R8.c **** /* ---- Headers ---- */
  23:C:/Users/geoma/Desktop/Scilab/scilab_test/USART_DMA_F302R8/USART_DMA_F302R8/Src\USART_DMA_F302R8.c **** #include <string.h> // memcpy
  24:C:/Users/geoma/Desktop/Scilab/scilab_test/USART_DMA_F302R8/USART_DMA_F302R8/Src\USART_DMA_F302R8.c **** #include "STM32_Config.h"
  25:C:/Users/geoma/Desktop/Scilab/scilab_test/USART_DMA_F302R8/USART_DMA_F302R8/Src\USART_DMA_F302R8.c **** 
  26:C:/Users/geoma/Desktop/Scilab/scilab_test/USART_DMA_F302R8/USART_DMA_F302R8/Src\USART_DMA_F302R8.c **** #include "scicos_block4.h"
  27:C:/Users/geoma/Desktop/Scilab/scilab_test/USART_DMA_F302R8/USART_DMA_F302R8/Src\USART_DMA_F302R8.c **** 
  28:C:/Users/geoma/Desktop/Scilab/scilab_test/USART_DMA_F302R8/USART_DMA_F302R8/Src\USART_DMA_F302R8.c **** #include "USART_DMA_F302R8.h"
  29:C:/Users/geoma/Desktop/Scilab/scilab_test/USART_DMA_F302R8/USART_DMA_F302R8/Src\USART_DMA_F302R8.c **** 
  30:C:/Users/geoma/Desktop/Scilab/scilab_test/USART_DMA_F302R8/USART_DMA_F302R8/Src\USART_DMA_F302R8.c **** double get_scicos_time(void);
ARM GAS  C:\Users\geoma\AppData\Local\Temp\ccldsZgL.s 			page 2


  31:C:/Users/geoma/Desktop/Scilab/scilab_test/USART_DMA_F302R8/USART_DMA_F302R8/Src\USART_DMA_F302R8.c **** void set_scicos_time(double t);
  32:C:/Users/geoma/Desktop/Scilab/scilab_test/USART_DMA_F302R8/USART_DMA_F302R8/Src\USART_DMA_F302R8.c **** int get_phase_simulation(void);
  33:C:/Users/geoma/Desktop/Scilab/scilab_test/USART_DMA_F302R8/USART_DMA_F302R8/Src\USART_DMA_F302R8.c **** void assert_sci_failed(const char* e, const char* file, int line){}
  29              		.loc 1 33 0
  30              		.cfi_startproc
  31              		@ args = 0, pretend = 0, frame = 0
  32              		@ frame_needed = 0, uses_anonymous_args = 0
  33              		@ link register save eliminated.
  34              	.LVL0:
  35 0000 7047     		bx	lr
  36              		.cfi_endproc
  37              	.LFE156:
  39 0002 00BF     		.section	.text.USART_DMA_F302R8_Initialize,"ax",%progbits
  40              		.align	2
  41              		.global	USART_DMA_F302R8_Initialize
  42              		.thumb
  43              		.thumb_func
  45              	USART_DMA_F302R8_Initialize:
  46              	.LFB157:
  34:C:/Users/geoma/Desktop/Scilab/scilab_test/USART_DMA_F302R8/USART_DMA_F302R8/Src\USART_DMA_F302R8.c **** 
  35:C:/Users/geoma/Desktop/Scilab/scilab_test/USART_DMA_F302R8/USART_DMA_F302R8/Src\USART_DMA_F302R8.c ****  
  36:C:/Users/geoma/Desktop/Scilab/scilab_test/USART_DMA_F302R8/USART_DMA_F302R8/Src\USART_DMA_F302R8.c **** #define max(a,b) ((a) >= (b) ? (a) : (b))
  37:C:/Users/geoma/Desktop/Scilab/scilab_test/USART_DMA_F302R8/USART_DMA_F302R8/Src\USART_DMA_F302R8.c **** #define min(a,b) ((a) <= (b) ? (a) : (b))
  38:C:/Users/geoma/Desktop/Scilab/scilab_test/USART_DMA_F302R8/USART_DMA_F302R8/Src\USART_DMA_F302R8.c ****  
  39:C:/Users/geoma/Desktop/Scilab/scilab_test/USART_DMA_F302R8/USART_DMA_F302R8/Src\USART_DMA_F302R8.c **** /* Table of constant values passed by ref */
  40:C:/Users/geoma/Desktop/Scilab/scilab_test/USART_DMA_F302R8/USART_DMA_F302R8/Src\USART_DMA_F302R8.c **** static const int nrd_0 = 0;
  41:C:/Users/geoma/Desktop/Scilab/scilab_test/USART_DMA_F302R8/USART_DMA_F302R8/Src\USART_DMA_F302R8.c **** static const int nrd_1 = 1;
  42:C:/Users/geoma/Desktop/Scilab/scilab_test/USART_DMA_F302R8/USART_DMA_F302R8/Src\USART_DMA_F302R8.c **** static const int nrd_2 = 2;
  43:C:/Users/geoma/Desktop/Scilab/scilab_test/USART_DMA_F302R8/USART_DMA_F302R8/Src\USART_DMA_F302R8.c **** static const int nrd_3 = 3;
  44:C:/Users/geoma/Desktop/Scilab/scilab_test/USART_DMA_F302R8/USART_DMA_F302R8/Src\USART_DMA_F302R8.c **** static const int nrd_10 = 10;
  45:C:/Users/geoma/Desktop/Scilab/scilab_test/USART_DMA_F302R8/USART_DMA_F302R8/Src\USART_DMA_F302R8.c **** static const int nrd_11 = 11;
  46:C:/Users/geoma/Desktop/Scilab/scilab_test/USART_DMA_F302R8/USART_DMA_F302R8/Src\USART_DMA_F302R8.c **** static const int nrd_81 = 81;
  47:C:/Users/geoma/Desktop/Scilab/scilab_test/USART_DMA_F302R8/USART_DMA_F302R8/Src\USART_DMA_F302R8.c **** static const int nrd_82 = 82;
  48:C:/Users/geoma/Desktop/Scilab/scilab_test/USART_DMA_F302R8/USART_DMA_F302R8/Src\USART_DMA_F302R8.c **** static const int nrd_84 = 84;
  49:C:/Users/geoma/Desktop/Scilab/scilab_test/USART_DMA_F302R8/USART_DMA_F302R8/Src\USART_DMA_F302R8.c **** static const int nrd_811 = 811;
  50:C:/Users/geoma/Desktop/Scilab/scilab_test/USART_DMA_F302R8/USART_DMA_F302R8/Src\USART_DMA_F302R8.c **** static const int nrd_812 = 812;
  51:C:/Users/geoma/Desktop/Scilab/scilab_test/USART_DMA_F302R8/USART_DMA_F302R8/Src\USART_DMA_F302R8.c **** static const int nrd_814 = 814;
  52:C:/Users/geoma/Desktop/Scilab/scilab_test/USART_DMA_F302R8/USART_DMA_F302R8/Src\USART_DMA_F302R8.c **** 
  53:C:/Users/geoma/Desktop/Scilab/scilab_test/USART_DMA_F302R8/USART_DMA_F302R8/Src\USART_DMA_F302R8.c **** /* Some general static variables passed by ref */
  54:C:/Users/geoma/Desktop/Scilab/scilab_test/USART_DMA_F302R8/USART_DMA_F302R8/Src\USART_DMA_F302R8.c **** static int aaa=0, bbb=0;
  55:C:/Users/geoma/Desktop/Scilab/scilab_test/USART_DMA_F302R8/USART_DMA_F302R8/Src\USART_DMA_F302R8.c **** 
  56:C:/Users/geoma/Desktop/Scilab/scilab_test/USART_DMA_F302R8/USART_DMA_F302R8/Src\USART_DMA_F302R8.c **** /* data shared ptr declaration */
  57:C:/Users/geoma/Desktop/Scilab/scilab_test/USART_DMA_F302R8/USART_DMA_F302R8/Src\USART_DMA_F302R8.c **** void **work;
  58:C:/Users/geoma/Desktop/Scilab/scilab_test/USART_DMA_F302R8/USART_DMA_F302R8/Src\USART_DMA_F302R8.c **** void **USART_DMA_F302R8_block_outtbptr;
  59:C:/Users/geoma/Desktop/Scilab/scilab_test/USART_DMA_F302R8/USART_DMA_F302R8/Src\USART_DMA_F302R8.c **** scicos_block block_USART_DMA_F302R8;
  60:C:/Users/geoma/Desktop/Scilab/scilab_test/USART_DMA_F302R8/USART_DMA_F302R8/Src\USART_DMA_F302R8.c **** /* Dumy variable not used in embedded word but necessary for current version based on PC scicos C f
  61:C:/Users/geoma/Desktop/Scilab/scilab_test/USART_DMA_F302R8/USART_DMA_F302R8/Src\USART_DMA_F302R8.c **** int local_flag=4; //Set to initialization
  62:C:/Users/geoma/Desktop/Scilab/scilab_test/USART_DMA_F302R8/USART_DMA_F302R8/Src\USART_DMA_F302R8.c **** double t; //Simulation time (not used)
  63:C:/Users/geoma/Desktop/Scilab/scilab_test/USART_DMA_F302R8/USART_DMA_F302R8/Src\USART_DMA_F302R8.c **** 
  64:C:/Users/geoma/Desktop/Scilab/scilab_test/USART_DMA_F302R8/USART_DMA_F302R8/Src\USART_DMA_F302R8.c **** double sci_time;
  65:C:/Users/geoma/Desktop/Scilab/scilab_test/USART_DMA_F302R8/USART_DMA_F302R8/Src\USART_DMA_F302R8.c **** 
  66:C:/Users/geoma/Desktop/Scilab/scilab_test/USART_DMA_F302R8/USART_DMA_F302R8/Src\USART_DMA_F302R8.c **** const int size_SCSREAL_N_1x1[] = {1, 1, SCSREAL_N};
  67:C:/Users/geoma/Desktop/Scilab/scilab_test/USART_DMA_F302R8/USART_DMA_F302R8/Src\USART_DMA_F302R8.c **** 
  68:C:/Users/geoma/Desktop/Scilab/scilab_test/USART_DMA_F302R8/USART_DMA_F302R8/Src\USART_DMA_F302R8.c **** /* def real parameters */
  69:C:/Users/geoma/Desktop/Scilab/scilab_test/USART_DMA_F302R8/USART_DMA_F302R8/Src\USART_DMA_F302R8.c **** const double RPAR1[ ] = {
  70:C:/Users/geoma/Desktop/Scilab/scilab_test/USART_DMA_F302R8/USART_DMA_F302R8/Src\USART_DMA_F302R8.c **** /*
  71:C:/Users/geoma/Desktop/Scilab/scilab_test/USART_DMA_F302R8/USART_DMA_F302R8/Src\USART_DMA_F302R8.c ****  * Routine name of block: evtdly
ARM GAS  C:\Users\geoma\AppData\Local\Temp\ccldsZgL.s 			page 3


  72:C:/Users/geoma/Desktop/Scilab/scilab_test/USART_DMA_F302R8/USART_DMA_F302R8/Src\USART_DMA_F302R8.c ****  * UID of block: 41b3fae6:13d11b95ac2:-7d2e
  73:C:/Users/geoma/Desktop/Scilab/scilab_test/USART_DMA_F302R8/USART_DMA_F302R8/Src\USART_DMA_F302R8.c ****  * Compiled structure index: 2
  74:C:/Users/geoma/Desktop/Scilab/scilab_test/USART_DMA_F302R8/USART_DMA_F302R8/Src\USART_DMA_F302R8.c ****  */
  75:C:/Users/geoma/Desktop/Scilab/scilab_test/USART_DMA_F302R8/USART_DMA_F302R8/Src\USART_DMA_F302R8.c **** 5.0000000000000000000000000E-01,
  76:C:/Users/geoma/Desktop/Scilab/scilab_test/USART_DMA_F302R8/USART_DMA_F302R8/Src\USART_DMA_F302R8.c **** 
  77:C:/Users/geoma/Desktop/Scilab/scilab_test/USART_DMA_F302R8/USART_DMA_F302R8/Src\USART_DMA_F302R8.c **** };
  78:C:/Users/geoma/Desktop/Scilab/scilab_test/USART_DMA_F302R8/USART_DMA_F302R8/Src\USART_DMA_F302R8.c **** 
  79:C:/Users/geoma/Desktop/Scilab/scilab_test/USART_DMA_F302R8/USART_DMA_F302R8/Src\USART_DMA_F302R8.c **** /* def integer parameters */
  80:C:/Users/geoma/Desktop/Scilab/scilab_test/USART_DMA_F302R8/USART_DMA_F302R8/Src\USART_DMA_F302R8.c **** const int IPAR1[ ] = {
  81:C:/Users/geoma/Desktop/Scilab/scilab_test/USART_DMA_F302R8/USART_DMA_F302R8/Src\USART_DMA_F302R8.c **** /*
  82:C:/Users/geoma/Desktop/Scilab/scilab_test/USART_DMA_F302R8/USART_DMA_F302R8/Src\USART_DMA_F302R8.c ****  * Routine name of block: convert
  83:C:/Users/geoma/Desktop/Scilab/scilab_test/USART_DMA_F302R8/USART_DMA_F302R8/Src\USART_DMA_F302R8.c ****  * UID of block: -5f95c7d:1566ea22c33:-7f04
  84:C:/Users/geoma/Desktop/Scilab/scilab_test/USART_DMA_F302R8/USART_DMA_F302R8/Src\USART_DMA_F302R8.c ****  * Compiled structure index: 5
  85:C:/Users/geoma/Desktop/Scilab/scilab_test/USART_DMA_F302R8/USART_DMA_F302R8/Src\USART_DMA_F302R8.c ****  */
  86:C:/Users/geoma/Desktop/Scilab/scilab_test/USART_DMA_F302R8/USART_DMA_F302R8/Src\USART_DMA_F302R8.c **** 6,
  87:C:/Users/geoma/Desktop/Scilab/scilab_test/USART_DMA_F302R8/USART_DMA_F302R8/Src\USART_DMA_F302R8.c **** 
  88:C:/Users/geoma/Desktop/Scilab/scilab_test/USART_DMA_F302R8/USART_DMA_F302R8/Src\USART_DMA_F302R8.c **** };
  89:C:/Users/geoma/Desktop/Scilab/scilab_test/USART_DMA_F302R8/USART_DMA_F302R8/Src\USART_DMA_F302R8.c **** 
  90:C:/Users/geoma/Desktop/Scilab/scilab_test/USART_DMA_F302R8/USART_DMA_F302R8/Src\USART_DMA_F302R8.c **** /* def object parameters */
  91:C:/Users/geoma/Desktop/Scilab/scilab_test/USART_DMA_F302R8/USART_DMA_F302R8/Src\USART_DMA_F302R8.c **** /*
  92:C:/Users/geoma/Desktop/Scilab/scilab_test/USART_DMA_F302R8/USART_DMA_F302R8/Src\USART_DMA_F302R8.c ****  * Routine name of block: cstblk4_m
  93:C:/Users/geoma/Desktop/Scilab/scilab_test/USART_DMA_F302R8/USART_DMA_F302R8/Src\USART_DMA_F302R8.c ****  * UID of block: -5f95c7d:1566ea22c33:-7ecc
  94:C:/Users/geoma/Desktop/Scilab/scilab_test/USART_DMA_F302R8/USART_DMA_F302R8/Src\USART_DMA_F302R8.c ****  * Compiled structure index: 6
  95:C:/Users/geoma/Desktop/Scilab/scilab_test/USART_DMA_F302R8/USART_DMA_F302R8/Src\USART_DMA_F302R8.c ****  */
  96:C:/Users/geoma/Desktop/Scilab/scilab_test/USART_DMA_F302R8/USART_DMA_F302R8/Src\USART_DMA_F302R8.c **** static double OPAR_17[] = {4};
  97:C:/Users/geoma/Desktop/Scilab/scilab_test/USART_DMA_F302R8/USART_DMA_F302R8/Src\USART_DMA_F302R8.c **** 
  98:C:/Users/geoma/Desktop/Scilab/scilab_test/USART_DMA_F302R8/USART_DMA_F302R8/Src\USART_DMA_F302R8.c **** /* Initial values */
  99:C:/Users/geoma/Desktop/Scilab/scilab_test/USART_DMA_F302R8/USART_DMA_F302R8/Src\USART_DMA_F302R8.c **** 
 100:C:/Users/geoma/Desktop/Scilab/scilab_test/USART_DMA_F302R8/USART_DMA_F302R8/Src\USART_DMA_F302R8.c **** /* Note that z[]=[z_initial_condition;outtbptr;work]
 101:C:/Users/geoma/Desktop/Scilab/scilab_test/USART_DMA_F302R8/USART_DMA_F302R8/Src\USART_DMA_F302R8.c ****     z_initial_condition={};
 102:C:/Users/geoma/Desktop/Scilab/scilab_test/USART_DMA_F302R8/USART_DMA_F302R8/Src\USART_DMA_F302R8.c ****     outtbptr={0,0,0,0,0,0};
 103:C:/Users/geoma/Desktop/Scilab/scilab_test/USART_DMA_F302R8/USART_DMA_F302R8/Src\USART_DMA_F302R8.c ****     work= {0,0,0,0,0,0,0};
 104:C:/Users/geoma/Desktop/Scilab/scilab_test/USART_DMA_F302R8/USART_DMA_F302R8/Src\USART_DMA_F302R8.c ****   */
 105:C:/Users/geoma/Desktop/Scilab/scilab_test/USART_DMA_F302R8/USART_DMA_F302R8/Src\USART_DMA_F302R8.c **** 
 106:C:/Users/geoma/Desktop/Scilab/scilab_test/USART_DMA_F302R8/USART_DMA_F302R8/Src\USART_DMA_F302R8.c ****    double z[]={0,0,0,0,0,0,0,0,0,0,0,0,0};
 107:C:/Users/geoma/Desktop/Scilab/scilab_test/USART_DMA_F302R8/USART_DMA_F302R8/Src\USART_DMA_F302R8.c **** 
 108:C:/Users/geoma/Desktop/Scilab/scilab_test/USART_DMA_F302R8/USART_DMA_F302R8/Src\USART_DMA_F302R8.c ****   int evoutptr[1];
 109:C:/Users/geoma/Desktop/Scilab/scilab_test/USART_DMA_F302R8/USART_DMA_F302R8/Src\USART_DMA_F302R8.c ****   void* inptr[2];
 110:C:/Users/geoma/Desktop/Scilab/scilab_test/USART_DMA_F302R8/USART_DMA_F302R8/Src\USART_DMA_F302R8.c ****   int inszptr[3*2];
 111:C:/Users/geoma/Desktop/Scilab/scilab_test/USART_DMA_F302R8/USART_DMA_F302R8/Src\USART_DMA_F302R8.c **** 
 112:C:/Users/geoma/Desktop/Scilab/scilab_test/USART_DMA_F302R8/USART_DMA_F302R8/Src\USART_DMA_F302R8.c ****   void* outptr[3];
 113:C:/Users/geoma/Desktop/Scilab/scilab_test/USART_DMA_F302R8/USART_DMA_F302R8/Src\USART_DMA_F302R8.c ****   int outszptr[3*3];
 114:C:/Users/geoma/Desktop/Scilab/scilab_test/USART_DMA_F302R8/USART_DMA_F302R8/Src\USART_DMA_F302R8.c **** 
 115:C:/Users/geoma/Desktop/Scilab/scilab_test/USART_DMA_F302R8/USART_DMA_F302R8/Src\USART_DMA_F302R8.c **** 
 116:C:/Users/geoma/Desktop/Scilab/scilab_test/USART_DMA_F302R8/USART_DMA_F302R8/Src\USART_DMA_F302R8.c ****   /* outtb declaration */
 117:C:/Users/geoma/Desktop/Scilab/scilab_test/USART_DMA_F302R8/USART_DMA_F302R8/Src\USART_DMA_F302R8.c ****   unsigned short outtb_3[1]={0};
 118:C:/Users/geoma/Desktop/Scilab/scilab_test/USART_DMA_F302R8/USART_DMA_F302R8/Src\USART_DMA_F302R8.c ****   double outtb_4[1]={0};
 119:C:/Users/geoma/Desktop/Scilab/scilab_test/USART_DMA_F302R8/USART_DMA_F302R8/Src\USART_DMA_F302R8.c **** 
 120:C:/Users/geoma/Desktop/Scilab/scilab_test/USART_DMA_F302R8/USART_DMA_F302R8/Src\USART_DMA_F302R8.c **** /*----------------------------------------  Initialization function */
 121:C:/Users/geoma/Desktop/Scilab/scilab_test/USART_DMA_F302R8/USART_DMA_F302R8/Src\USART_DMA_F302R8.c **** int USART_DMA_F302R8_Initialize()
 122:C:/Users/geoma/Desktop/Scilab/scilab_test/USART_DMA_F302R8/USART_DMA_F302R8/Src\USART_DMA_F302R8.c **** {
  47              		.loc 1 122 0
  48              		.cfi_startproc
  49              		@ args = 0, pretend = 0, frame = 0
  50              		@ frame_needed = 0, uses_anonymous_args = 0
  51              		.loc 1 122 0
  52 0000 2DE9F84F 		push	{r3, r4, r5, r6, r7, r8, r9, r10, fp, lr}
ARM GAS  C:\Users\geoma\AppData\Local\Temp\ccldsZgL.s 			page 4


  53              	.LCFI0:
  54              		.cfi_def_cfa_offset 40
  55              		.cfi_offset 3, -40
  56              		.cfi_offset 4, -36
  57              		.cfi_offset 5, -32
  58              		.cfi_offset 6, -28
  59              		.cfi_offset 7, -24
  60              		.cfi_offset 8, -20
  61              		.cfi_offset 9, -16
  62              		.cfi_offset 10, -12
  63              		.cfi_offset 11, -8
  64              		.cfi_offset 14, -4
  65              	.LVL1:
 123:C:/Users/geoma/Desktop/Scilab/scilab_test/USART_DMA_F302R8/USART_DMA_F302R8/Src\USART_DMA_F302R8.c ****   int nevprt=1;
 124:C:/Users/geoma/Desktop/Scilab/scilab_test/USART_DMA_F302R8/USART_DMA_F302R8/Src\USART_DMA_F302R8.c ****   int nport;
 125:C:/Users/geoma/Desktop/Scilab/scilab_test/USART_DMA_F302R8/USART_DMA_F302R8/Src\USART_DMA_F302R8.c **** 
 126:C:/Users/geoma/Desktop/Scilab/scilab_test/USART_DMA_F302R8/USART_DMA_F302R8/Src\USART_DMA_F302R8.c **** 
 127:C:/Users/geoma/Desktop/Scilab/scilab_test/USART_DMA_F302R8/USART_DMA_F302R8/Src\USART_DMA_F302R8.c ****   /* Get work ptr of blocks */
 128:C:/Users/geoma/Desktop/Scilab/scilab_test/USART_DMA_F302R8/USART_DMA_F302R8/Src\USART_DMA_F302R8.c ****   work = (void **)(z+6);
  66              		.loc 1 128 0
  67 0004 DFF8B082 		ldr	r8, .L11+36
  68 0008 08F13003 		add	r3, r8, #48
  69 000c A14A     		ldr	r2, .L11
  70 000e 1360     		str	r3, [r2]
 129:C:/Users/geoma/Desktop/Scilab/scilab_test/USART_DMA_F302R8/USART_DMA_F302R8/Src\USART_DMA_F302R8.c **** 
 130:C:/Users/geoma/Desktop/Scilab/scilab_test/USART_DMA_F302R8/USART_DMA_F302R8/Src\USART_DMA_F302R8.c ****   /* Get outtbptr ptr of blocks */
 131:C:/Users/geoma/Desktop/Scilab/scilab_test/USART_DMA_F302R8/USART_DMA_F302R8/Src\USART_DMA_F302R8.c ****   USART_DMA_F302R8_block_outtbptr = (void **)(z+0);
  71              		.loc 1 131 0
  72 0010 DFF8A8A2 		ldr	r10, .L11+40
  73 0014 CAF80080 		str	r8, [r10]
 132:C:/Users/geoma/Desktop/Scilab/scilab_test/USART_DMA_F302R8/USART_DMA_F302R8/Src\USART_DMA_F302R8.c **** 
 133:C:/Users/geoma/Desktop/Scilab/scilab_test/USART_DMA_F302R8/USART_DMA_F302R8/Src\USART_DMA_F302R8.c ****   USART_DMA_F302R8_block_outtbptr[2] = (void *) outtb_3;
  74              		.loc 1 133 0
  75 0018 9F4B     		ldr	r3, .L11+4
  76 001a C8F80830 		str	r3, [r8, #8]
 134:C:/Users/geoma/Desktop/Scilab/scilab_test/USART_DMA_F302R8/USART_DMA_F302R8/Src\USART_DMA_F302R8.c ****   USART_DMA_F302R8_block_outtbptr[3] = (void *) outtb_4;
  77              		.loc 1 134 0
  78 001e 9F4B     		ldr	r3, .L11+8
  79 0020 C8F80C30 		str	r3, [r8, #12]
 135:C:/Users/geoma/Desktop/Scilab/scilab_test/USART_DMA_F302R8/USART_DMA_F302R8/Src\USART_DMA_F302R8.c **** 
 136:C:/Users/geoma/Desktop/Scilab/scilab_test/USART_DMA_F302R8/USART_DMA_F302R8/Src\USART_DMA_F302R8.c ****   /* Initialization */
 137:C:/Users/geoma/Desktop/Scilab/scilab_test/USART_DMA_F302R8/USART_DMA_F302R8/Src\USART_DMA_F302R8.c **** 
 138:C:/Users/geoma/Desktop/Scilab/scilab_test/USART_DMA_F302R8/USART_DMA_F302R8/Src\USART_DMA_F302R8.c ****   //Call GPIO Initialization function defined in _GPIO.c file
 139:C:/Users/geoma/Desktop/Scilab/scilab_test/USART_DMA_F302R8/USART_DMA_F302R8/Src\USART_DMA_F302R8.c ****   GPIO_Initialize();
  80              		.loc 1 139 0
  81 0024 FFF7FEFF 		bl	GPIO_Initialize
  82              	.LVL2:
 140:C:/Users/geoma/Desktop/Scilab/scilab_test/USART_DMA_F302R8/USART_DMA_F302R8/Src\USART_DMA_F302R8.c **** 
 141:C:/Users/geoma/Desktop/Scilab/scilab_test/USART_DMA_F302R8/USART_DMA_F302R8/Src\USART_DMA_F302R8.c ****   //Call USART Initialization function defined in _USART.c file
 142:C:/Users/geoma/Desktop/Scilab/scilab_test/USART_DMA_F302R8/USART_DMA_F302R8/Src\USART_DMA_F302R8.c ****   USART_Initialize();
  83              		.loc 1 142 0
  84 0028 FFF7FEFF 		bl	USART_Initialize
  85              	.LVL3:
 143:C:/Users/geoma/Desktop/Scilab/scilab_test/USART_DMA_F302R8/USART_DMA_F302R8/Src\USART_DMA_F302R8.c **** 
 144:C:/Users/geoma/Desktop/Scilab/scilab_test/USART_DMA_F302R8/USART_DMA_F302R8/Src\USART_DMA_F302R8.c ****   /* Call of 'convert' (type 4 - blk nb 5 - uid ) */
 145:C:/Users/geoma/Desktop/Scilab/scilab_test/USART_DMA_F302R8/USART_DMA_F302R8/Src\USART_DMA_F302R8.c ****   { 
 146:C:/Users/geoma/Desktop/Scilab/scilab_test/USART_DMA_F302R8/USART_DMA_F302R8/Src\USART_DMA_F302R8.c ****     /* set blk struc. of 'convert' (type 4 - blk nb 5 - uid ) */
ARM GAS  C:\Users\geoma\AppData\Local\Temp\ccldsZgL.s 			page 5


 147:C:/Users/geoma/Desktop/Scilab/scilab_test/USART_DMA_F302R8/USART_DMA_F302R8/Src\USART_DMA_F302R8.c ****     block_USART_DMA_F302R8.type   = 4;
  86              		.loc 1 147 0
  87 002c 9C4C     		ldr	r4, .L11+12
  88 002e 0423     		movs	r3, #4
  89 0030 A360     		str	r3, [r4, #8]
 148:C:/Users/geoma/Desktop/Scilab/scilab_test/USART_DMA_F302R8/USART_DMA_F302R8/Src\USART_DMA_F302R8.c ****     block_USART_DMA_F302R8.ztyp   = 0;
  90              		.loc 1 148 0
  91 0032 0025     		movs	r5, #0
  92 0034 C4F88450 		str	r5, [r4, #132]
 149:C:/Users/geoma/Desktop/Scilab/scilab_test/USART_DMA_F302R8/USART_DMA_F302R8/Src\USART_DMA_F302R8.c ****     block_USART_DMA_F302R8.ng     = 0;
  93              		.loc 1 149 0
  94 0038 E567     		str	r5, [r4, #124]
 150:C:/Users/geoma/Desktop/Scilab/scilab_test/USART_DMA_F302R8/USART_DMA_F302R8/Src\USART_DMA_F302R8.c ****     block_USART_DMA_F302R8.nz     = 0;
  95              		.loc 1 150 0
  96 003a 2561     		str	r5, [r4, #16]
 151:C:/Users/geoma/Desktop/Scilab/scilab_test/USART_DMA_F302R8/USART_DMA_F302R8/Src\USART_DMA_F302R8.c ****     block_USART_DMA_F302R8.noz    = 0;
  97              		.loc 1 151 0
  98 003c A561     		str	r5, [r4, #24]
 152:C:/Users/geoma/Desktop/Scilab/scilab_test/USART_DMA_F302R8/USART_DMA_F302R8/Src\USART_DMA_F302R8.c ****     block_USART_DMA_F302R8.nrpar  = 0;
  99              		.loc 1 152 0
 100 003e E565     		str	r5, [r4, #92]
 153:C:/Users/geoma/Desktop/Scilab/scilab_test/USART_DMA_F302R8/USART_DMA_F302R8/Src\USART_DMA_F302R8.c ****     block_USART_DMA_F302R8.nopar  = 0;
 101              		.loc 1 153 0
 102 0040 E566     		str	r5, [r4, #108]
 154:C:/Users/geoma/Desktop/Scilab/scilab_test/USART_DMA_F302R8/USART_DMA_F302R8/Src\USART_DMA_F302R8.c ****     block_USART_DMA_F302R8.nipar  = 1;
 103              		.loc 1 154 0
 104 0042 0126     		movs	r6, #1
 105 0044 6666     		str	r6, [r4, #100]
 155:C:/Users/geoma/Desktop/Scilab/scilab_test/USART_DMA_F302R8/USART_DMA_F302R8/Src\USART_DMA_F302R8.c ****     block_USART_DMA_F302R8.nin    = 1;
 106              		.loc 1 155 0
 107 0046 E663     		str	r6, [r4, #60]
 156:C:/Users/geoma/Desktop/Scilab/scilab_test/USART_DMA_F302R8/USART_DMA_F302R8/Src\USART_DMA_F302R8.c ****     block_USART_DMA_F302R8.nout   = 1;
 108              		.loc 1 156 0
 109 0048 A664     		str	r6, [r4, #72]
 157:C:/Users/geoma/Desktop/Scilab/scilab_test/USART_DMA_F302R8/USART_DMA_F302R8/Src\USART_DMA_F302R8.c ****     block_USART_DMA_F302R8.nevout = 0;
 110              		.loc 1 157 0
 111 004a 6565     		str	r5, [r4, #84]
 158:C:/Users/geoma/Desktop/Scilab/scilab_test/USART_DMA_F302R8/USART_DMA_F302R8/Src\USART_DMA_F302R8.c ****     block_USART_DMA_F302R8.nmode  = 0;
 112              		.loc 1 158 0
 113 004c C4F89450 		str	r5, [r4, #148]
 159:C:/Users/geoma/Desktop/Scilab/scilab_test/USART_DMA_F302R8/USART_DMA_F302R8/Src\USART_DMA_F302R8.c ****     block_USART_DMA_F302R8.evout = NULL;
 114              		.loc 1 159 0
 115 0050 A565     		str	r5, [r4, #88]
 160:C:/Users/geoma/Desktop/Scilab/scilab_test/USART_DMA_F302R8/USART_DMA_F302R8/Src\USART_DMA_F302R8.c ****     block_USART_DMA_F302R8.inptr  = inptr;
 116              		.loc 1 160 0
 117 0052 DFF86CB2 		ldr	fp, .L11+44
 118 0056 C4F844B0 		str	fp, [r4, #68]
 161:C:/Users/geoma/Desktop/Scilab/scilab_test/USART_DMA_F302R8/USART_DMA_F302R8/Src\USART_DMA_F302R8.c ****     block_USART_DMA_F302R8.inptr[0]  = USART_DMA_F302R8_block_outtbptr[3];
 119              		.loc 1 161 0
 120 005a DAF80020 		ldr	r2, [r10]
 121 005e D368     		ldr	r3, [r2, #12]
 122 0060 CBF80030 		str	r3, [fp]
 162:C:/Users/geoma/Desktop/Scilab/scilab_test/USART_DMA_F302R8/USART_DMA_F302R8/Src\USART_DMA_F302R8.c ****     block_USART_DMA_F302R8.insz = inszptr;
 123              		.loc 1 162 0
 124 0064 8F4B     		ldr	r3, .L11+16
 125 0066 2364     		str	r3, [r4, #64]
 163:C:/Users/geoma/Desktop/Scilab/scilab_test/USART_DMA_F302R8/USART_DMA_F302R8/Src\USART_DMA_F302R8.c ****     block_USART_DMA_F302R8.insz[0]   = 1;
ARM GAS  C:\Users\geoma\AppData\Local\Temp\ccldsZgL.s 			page 6


 126              		.loc 1 163 0
 127 0068 1E60     		str	r6, [r3]
 164:C:/Users/geoma/Desktop/Scilab/scilab_test/USART_DMA_F302R8/USART_DMA_F302R8/Src\USART_DMA_F302R8.c ****     block_USART_DMA_F302R8.insz[1]   = 1;
 128              		.loc 1 164 0
 129 006a 5E60     		str	r6, [r3, #4]
 165:C:/Users/geoma/Desktop/Scilab/scilab_test/USART_DMA_F302R8/USART_DMA_F302R8/Src\USART_DMA_F302R8.c ****     block_USART_DMA_F302R8.insz[2]   = SCSREAL_N;
 130              		.loc 1 165 0
 131 006c 0A21     		movs	r1, #10
 132 006e 9960     		str	r1, [r3, #8]
 166:C:/Users/geoma/Desktop/Scilab/scilab_test/USART_DMA_F302R8/USART_DMA_F302R8/Src\USART_DMA_F302R8.c ****     block_USART_DMA_F302R8.outptr = outptr;
 133              		.loc 1 166 0
 134 0070 DFF85092 		ldr	r9, .L11+48
 135 0074 C4F85090 		str	r9, [r4, #80]
 167:C:/Users/geoma/Desktop/Scilab/scilab_test/USART_DMA_F302R8/USART_DMA_F302R8/Src\USART_DMA_F302R8.c ****     block_USART_DMA_F302R8.outptr[0] = USART_DMA_F302R8_block_outtbptr[2];
 136              		.loc 1 167 0
 137 0078 9368     		ldr	r3, [r2, #8]
 138 007a C9F80030 		str	r3, [r9]
 168:C:/Users/geoma/Desktop/Scilab/scilab_test/USART_DMA_F302R8/USART_DMA_F302R8/Src\USART_DMA_F302R8.c ****     block_USART_DMA_F302R8.outsz = outszptr;
 139              		.loc 1 168 0
 140 007e 8A4F     		ldr	r7, .L11+20
 141 0080 E764     		str	r7, [r4, #76]
 169:C:/Users/geoma/Desktop/Scilab/scilab_test/USART_DMA_F302R8/USART_DMA_F302R8/Src\USART_DMA_F302R8.c ****     block_USART_DMA_F302R8.outsz[0]  = 1;
 142              		.loc 1 169 0
 143 0082 3E60     		str	r6, [r7]
 170:C:/Users/geoma/Desktop/Scilab/scilab_test/USART_DMA_F302R8/USART_DMA_F302R8/Src\USART_DMA_F302R8.c ****     block_USART_DMA_F302R8.outsz[1]  = 1;
 144              		.loc 1 170 0
 145 0084 7E60     		str	r6, [r7, #4]
 171:C:/Users/geoma/Desktop/Scilab/scilab_test/USART_DMA_F302R8/USART_DMA_F302R8/Src\USART_DMA_F302R8.c ****     block_USART_DMA_F302R8.outsz[2]  = SCSUINT16_N;
 146              		.loc 1 171 0
 147 0086 4FF44B73 		mov	r3, #812
 148 008a BB60     		str	r3, [r7, #8]
 172:C:/Users/geoma/Desktop/Scilab/scilab_test/USART_DMA_F302R8/USART_DMA_F302R8/Src\USART_DMA_F302R8.c ****     block_USART_DMA_F302R8.z = &(z[0]);
 149              		.loc 1 172 0
 150 008c C4F81480 		str	r8, [r4, #20]
 173:C:/Users/geoma/Desktop/Scilab/scilab_test/USART_DMA_F302R8/USART_DMA_F302R8/Src\USART_DMA_F302R8.c ****     block_USART_DMA_F302R8.ipar=(int*) &(IPAR1[0]);
 151              		.loc 1 173 0
 152 0090 864B     		ldr	r3, .L11+24
 153 0092 A366     		str	r3, [r4, #104]
 174:C:/Users/geoma/Desktop/Scilab/scilab_test/USART_DMA_F302R8/USART_DMA_F302R8/Src\USART_DMA_F302R8.c ****     block_USART_DMA_F302R8.work = (void **)(((double *)work)+4);
 154              		.loc 1 174 0
 155 0094 7F4B     		ldr	r3, .L11
 156 0096 1B68     		ldr	r3, [r3]
 157 0098 2033     		adds	r3, r3, #32
 158 009a C4F89030 		str	r3, [r4, #144]
 175:C:/Users/geoma/Desktop/Scilab/scilab_test/USART_DMA_F302R8/USART_DMA_F302R8/Src\USART_DMA_F302R8.c ****   }
 176:C:/Users/geoma/Desktop/Scilab/scilab_test/USART_DMA_F302R8/USART_DMA_F302R8/Src\USART_DMA_F302R8.c ****   convert(&block_USART_DMA_F302R8,4);
 159              		.loc 1 176 0
 160 009e 2046     		mov	r0, r4
 161 00a0 0421     		movs	r1, #4
 162 00a2 FFF7FEFF 		bl	convert
 163              	.LVL4:
 177:C:/Users/geoma/Desktop/Scilab/scilab_test/USART_DMA_F302R8/USART_DMA_F302R8/Src\USART_DMA_F302R8.c **** 
 178:C:/Users/geoma/Desktop/Scilab/scilab_test/USART_DMA_F302R8/USART_DMA_F302R8/Src\USART_DMA_F302R8.c ****   /* Call of 'cstblk4_m' (type 4 - blk nb 6 - uid ) */
 179:C:/Users/geoma/Desktop/Scilab/scilab_test/USART_DMA_F302R8/USART_DMA_F302R8/Src\USART_DMA_F302R8.c ****   { 
 180:C:/Users/geoma/Desktop/Scilab/scilab_test/USART_DMA_F302R8/USART_DMA_F302R8/Src\USART_DMA_F302R8.c ****     /* set blk struc. of 'cstblk4_m' (type 4 - blk nb 6 - uid ) */
 181:C:/Users/geoma/Desktop/Scilab/scilab_test/USART_DMA_F302R8/USART_DMA_F302R8/Src\USART_DMA_F302R8.c ****     block_USART_DMA_F302R8.type   = 4;
 164              		.loc 1 181 0
ARM GAS  C:\Users\geoma\AppData\Local\Temp\ccldsZgL.s 			page 7


 165 00a6 0423     		movs	r3, #4
 166 00a8 A360     		str	r3, [r4, #8]
 182:C:/Users/geoma/Desktop/Scilab/scilab_test/USART_DMA_F302R8/USART_DMA_F302R8/Src\USART_DMA_F302R8.c ****     block_USART_DMA_F302R8.ztyp   = 0;
 167              		.loc 1 182 0
 168 00aa C4F88450 		str	r5, [r4, #132]
 183:C:/Users/geoma/Desktop/Scilab/scilab_test/USART_DMA_F302R8/USART_DMA_F302R8/Src\USART_DMA_F302R8.c ****     block_USART_DMA_F302R8.ng     = 0;
 169              		.loc 1 183 0
 170 00ae E567     		str	r5, [r4, #124]
 184:C:/Users/geoma/Desktop/Scilab/scilab_test/USART_DMA_F302R8/USART_DMA_F302R8/Src\USART_DMA_F302R8.c ****     block_USART_DMA_F302R8.nz     = 0;
 171              		.loc 1 184 0
 172 00b0 2561     		str	r5, [r4, #16]
 185:C:/Users/geoma/Desktop/Scilab/scilab_test/USART_DMA_F302R8/USART_DMA_F302R8/Src\USART_DMA_F302R8.c ****     block_USART_DMA_F302R8.noz    = 0;
 173              		.loc 1 185 0
 174 00b2 A561     		str	r5, [r4, #24]
 186:C:/Users/geoma/Desktop/Scilab/scilab_test/USART_DMA_F302R8/USART_DMA_F302R8/Src\USART_DMA_F302R8.c ****     block_USART_DMA_F302R8.nrpar  = 0;
 175              		.loc 1 186 0
 176 00b4 E565     		str	r5, [r4, #92]
 187:C:/Users/geoma/Desktop/Scilab/scilab_test/USART_DMA_F302R8/USART_DMA_F302R8/Src\USART_DMA_F302R8.c ****     block_USART_DMA_F302R8.nopar  = 1;
 177              		.loc 1 187 0
 178 00b6 E666     		str	r6, [r4, #108]
 188:C:/Users/geoma/Desktop/Scilab/scilab_test/USART_DMA_F302R8/USART_DMA_F302R8/Src\USART_DMA_F302R8.c ****     block_USART_DMA_F302R8.nipar  = 0;
 179              		.loc 1 188 0
 180 00b8 6566     		str	r5, [r4, #100]
 189:C:/Users/geoma/Desktop/Scilab/scilab_test/USART_DMA_F302R8/USART_DMA_F302R8/Src\USART_DMA_F302R8.c ****     block_USART_DMA_F302R8.nin    = 0;
 181              		.loc 1 189 0
 182 00ba E563     		str	r5, [r4, #60]
 190:C:/Users/geoma/Desktop/Scilab/scilab_test/USART_DMA_F302R8/USART_DMA_F302R8/Src\USART_DMA_F302R8.c ****     block_USART_DMA_F302R8.nout   = 1;
 183              		.loc 1 190 0
 184 00bc A664     		str	r6, [r4, #72]
 191:C:/Users/geoma/Desktop/Scilab/scilab_test/USART_DMA_F302R8/USART_DMA_F302R8/Src\USART_DMA_F302R8.c ****     block_USART_DMA_F302R8.nevout = 0;
 185              		.loc 1 191 0
 186 00be 6565     		str	r5, [r4, #84]
 192:C:/Users/geoma/Desktop/Scilab/scilab_test/USART_DMA_F302R8/USART_DMA_F302R8/Src\USART_DMA_F302R8.c ****     block_USART_DMA_F302R8.nmode  = 0;
 187              		.loc 1 192 0
 188 00c0 C4F89450 		str	r5, [r4, #148]
 193:C:/Users/geoma/Desktop/Scilab/scilab_test/USART_DMA_F302R8/USART_DMA_F302R8/Src\USART_DMA_F302R8.c ****     block_USART_DMA_F302R8.evout = NULL;
 189              		.loc 1 193 0
 190 00c4 A565     		str	r5, [r4, #88]
 194:C:/Users/geoma/Desktop/Scilab/scilab_test/USART_DMA_F302R8/USART_DMA_F302R8/Src\USART_DMA_F302R8.c ****     block_USART_DMA_F302R8.inptr  = inptr;
 191              		.loc 1 194 0
 192 00c6 C4F844B0 		str	fp, [r4, #68]
 195:C:/Users/geoma/Desktop/Scilab/scilab_test/USART_DMA_F302R8/USART_DMA_F302R8/Src\USART_DMA_F302R8.c ****     block_USART_DMA_F302R8.insz = NULL;
 193              		.loc 1 195 0
 194 00ca 2564     		str	r5, [r4, #64]
 196:C:/Users/geoma/Desktop/Scilab/scilab_test/USART_DMA_F302R8/USART_DMA_F302R8/Src\USART_DMA_F302R8.c ****     block_USART_DMA_F302R8.outptr = outptr;
 195              		.loc 1 196 0
 196 00cc C4F85090 		str	r9, [r4, #80]
 197:C:/Users/geoma/Desktop/Scilab/scilab_test/USART_DMA_F302R8/USART_DMA_F302R8/Src\USART_DMA_F302R8.c ****     block_USART_DMA_F302R8.outptr[0] = USART_DMA_F302R8_block_outtbptr[3];
 197              		.loc 1 197 0
 198 00d0 DAF80030 		ldr	r3, [r10]
 199 00d4 DB68     		ldr	r3, [r3, #12]
 200 00d6 C9F80030 		str	r3, [r9]
 198:C:/Users/geoma/Desktop/Scilab/scilab_test/USART_DMA_F302R8/USART_DMA_F302R8/Src\USART_DMA_F302R8.c ****     block_USART_DMA_F302R8.outsz = outszptr;
 201              		.loc 1 198 0
 202 00da E764     		str	r7, [r4, #76]
 199:C:/Users/geoma/Desktop/Scilab/scilab_test/USART_DMA_F302R8/USART_DMA_F302R8/Src\USART_DMA_F302R8.c ****     block_USART_DMA_F302R8.outsz[0]  = 1;
 203              		.loc 1 199 0
ARM GAS  C:\Users\geoma\AppData\Local\Temp\ccldsZgL.s 			page 8


 204 00dc 3E60     		str	r6, [r7]
 200:C:/Users/geoma/Desktop/Scilab/scilab_test/USART_DMA_F302R8/USART_DMA_F302R8/Src\USART_DMA_F302R8.c ****     block_USART_DMA_F302R8.outsz[1]  = 1;
 205              		.loc 1 200 0
 206 00de 7E60     		str	r6, [r7, #4]
 201:C:/Users/geoma/Desktop/Scilab/scilab_test/USART_DMA_F302R8/USART_DMA_F302R8/Src\USART_DMA_F302R8.c ****     block_USART_DMA_F302R8.outsz[2]  = SCSREAL_N;
 207              		.loc 1 201 0
 208 00e0 0A23     		movs	r3, #10
 209 00e2 BB60     		str	r3, [r7, #8]
 202:C:/Users/geoma/Desktop/Scilab/scilab_test/USART_DMA_F302R8/USART_DMA_F302R8/Src\USART_DMA_F302R8.c ****     block_USART_DMA_F302R8.z = &(z[0]);
 210              		.loc 1 202 0
 211 00e4 C4F81480 		str	r8, [r4, #20]
 203:C:/Users/geoma/Desktop/Scilab/scilab_test/USART_DMA_F302R8/USART_DMA_F302R8/Src\USART_DMA_F302R8.c ****     if ((block_USART_DMA_F302R8.oparptr = malloc(sizeof(void *)*block_USART_DMA_F302R8.nopar))== NU
 212              		.loc 1 203 0
 213 00e8 0420     		movs	r0, #4
 214 00ea FFF7FEFF 		bl	malloc
 215              	.LVL5:
 216 00ee 0546     		mov	r5, r0
 217 00f0 A067     		str	r0, [r4, #120]
 218 00f2 0028     		cmp	r0, #0
 219 00f4 00F0BB80 		beq	.L4
 204:C:/Users/geoma/Desktop/Scilab/scilab_test/USART_DMA_F302R8/USART_DMA_F302R8/Src\USART_DMA_F302R8.c ****     if ((block_USART_DMA_F302R8.oparsz  = malloc(2*sizeof(int)*block_USART_DMA_F302R8.nopar))== NUL
 220              		.loc 1 204 0
 221 00f8 0820     		movs	r0, #8
 222 00fa FFF7FEFF 		bl	malloc
 223              	.LVL6:
 224 00fe 2067     		str	r0, [r4, #112]
 225 0100 0028     		cmp	r0, #0
 226 0102 00F0B780 		beq	.L5
 205:C:/Users/geoma/Desktop/Scilab/scilab_test/USART_DMA_F302R8/USART_DMA_F302R8/Src\USART_DMA_F302R8.c ****     if ((block_USART_DMA_F302R8.opartyp = malloc(sizeof(int)*block_USART_DMA_F302R8.nopar))== NULL 
 227              		.loc 1 205 0
 228 0106 0420     		movs	r0, #4
 229 0108 FFF7FEFF 		bl	malloc
 230              	.LVL7:
 231 010c 6067     		str	r0, [r4, #116]
 232 010e 0028     		cmp	r0, #0
 233 0110 00F0B380 		beq	.L6
 206:C:/Users/geoma/Desktop/Scilab/scilab_test/USART_DMA_F302R8/USART_DMA_F302R8/Src\USART_DMA_F302R8.c ****     block_USART_DMA_F302R8.oparptr[0]   = (void *) OPAR_17;
 234              		.loc 1 206 0
 235 0114 664B     		ldr	r3, .L11+28
 236 0116 2B60     		str	r3, [r5]
 207:C:/Users/geoma/Desktop/Scilab/scilab_test/USART_DMA_F302R8/USART_DMA_F302R8/Src\USART_DMA_F302R8.c ****     block_USART_DMA_F302R8.oparsz[0]    = 1;
 237              		.loc 1 207 0
 238 0118 236F     		ldr	r3, [r4, #112]
 239 011a 3546     		mov	r5, r6
 240 011c 1E60     		str	r6, [r3]
 208:C:/Users/geoma/Desktop/Scilab/scilab_test/USART_DMA_F302R8/USART_DMA_F302R8/Src\USART_DMA_F302R8.c ****     block_USART_DMA_F302R8.oparsz[1]    = 1;
 241              		.loc 1 208 0
 242 011e 236F     		ldr	r3, [r4, #112]
 243 0120 5E60     		str	r6, [r3, #4]
 209:C:/Users/geoma/Desktop/Scilab/scilab_test/USART_DMA_F302R8/USART_DMA_F302R8/Src\USART_DMA_F302R8.c ****     block_USART_DMA_F302R8.opartyp[0]   = SCSREAL_N;
 244              		.loc 1 209 0
 245 0122 636F     		ldr	r3, [r4, #116]
 246 0124 0A26     		movs	r6, #10
 247 0126 1E60     		str	r6, [r3]
 210:C:/Users/geoma/Desktop/Scilab/scilab_test/USART_DMA_F302R8/USART_DMA_F302R8/Src\USART_DMA_F302R8.c ****     block_USART_DMA_F302R8.work = (void **)(((double *)work)+5);
 248              		.loc 1 210 0
 249 0128 5A4B     		ldr	r3, .L11
ARM GAS  C:\Users\geoma\AppData\Local\Temp\ccldsZgL.s 			page 9


 250 012a 1B68     		ldr	r3, [r3]
 251 012c 2833     		adds	r3, r3, #40
 252 012e C4F89030 		str	r3, [r4, #144]
 211:C:/Users/geoma/Desktop/Scilab/scilab_test/USART_DMA_F302R8/USART_DMA_F302R8/Src\USART_DMA_F302R8.c ****   }
 212:C:/Users/geoma/Desktop/Scilab/scilab_test/USART_DMA_F302R8/USART_DMA_F302R8/Src\USART_DMA_F302R8.c ****   cstblk4_m(&block_USART_DMA_F302R8,4);
 253              		.loc 1 212 0
 254 0132 2046     		mov	r0, r4
 255 0134 0421     		movs	r1, #4
 256 0136 FFF7FEFF 		bl	cstblk4_m
 257              	.LVL8:
 213:C:/Users/geoma/Desktop/Scilab/scilab_test/USART_DMA_F302R8/USART_DMA_F302R8/Src\USART_DMA_F302R8.c ****   {
 214:C:/Users/geoma/Desktop/Scilab/scilab_test/USART_DMA_F302R8/USART_DMA_F302R8/Src\USART_DMA_F302R8.c ****     free(block_USART_DMA_F302R8.oparptr);
 258              		.loc 1 214 0
 259 013a A06F     		ldr	r0, [r4, #120]
 260 013c FFF7FEFF 		bl	free
 261              	.LVL9:
 215:C:/Users/geoma/Desktop/Scilab/scilab_test/USART_DMA_F302R8/USART_DMA_F302R8/Src\USART_DMA_F302R8.c ****     free(block_USART_DMA_F302R8.oparsz);
 262              		.loc 1 215 0
 263 0140 206F     		ldr	r0, [r4, #112]
 264 0142 FFF7FEFF 		bl	free
 265              	.LVL10:
 216:C:/Users/geoma/Desktop/Scilab/scilab_test/USART_DMA_F302R8/USART_DMA_F302R8/Src\USART_DMA_F302R8.c ****     free(block_USART_DMA_F302R8.opartyp);
 266              		.loc 1 216 0
 267 0146 606F     		ldr	r0, [r4, #116]
 268 0148 FFF7FEFF 		bl	free
 269              	.LVL11:
 217:C:/Users/geoma/Desktop/Scilab/scilab_test/USART_DMA_F302R8/USART_DMA_F302R8/Src\USART_DMA_F302R8.c ****   }
 218:C:/Users/geoma/Desktop/Scilab/scilab_test/USART_DMA_F302R8/USART_DMA_F302R8/Src\USART_DMA_F302R8.c **** 
 219:C:/Users/geoma/Desktop/Scilab/scilab_test/USART_DMA_F302R8/USART_DMA_F302R8/Src\USART_DMA_F302R8.c ****     /* Initial blocks must be called with flag 1 */
 220:C:/Users/geoma/Desktop/Scilab/scilab_test/USART_DMA_F302R8/USART_DMA_F302R8/Src\USART_DMA_F302R8.c ****     /* Call of 'cstblk4_m' (type 4 - blk nb 6 - uid ) */
 221:C:/Users/geoma/Desktop/Scilab/scilab_test/USART_DMA_F302R8/USART_DMA_F302R8/Src\USART_DMA_F302R8.c ****     { 
 222:C:/Users/geoma/Desktop/Scilab/scilab_test/USART_DMA_F302R8/USART_DMA_F302R8/Src\USART_DMA_F302R8.c ****       /* set blk struc. of 'cstblk4_m' (type 4 - blk nb 6 - uid ) */
 223:C:/Users/geoma/Desktop/Scilab/scilab_test/USART_DMA_F302R8/USART_DMA_F302R8/Src\USART_DMA_F302R8.c ****       block_USART_DMA_F302R8.type   = 4;
 270              		.loc 1 223 0
 271 014c 0420     		movs	r0, #4
 272 014e A060     		str	r0, [r4, #8]
 224:C:/Users/geoma/Desktop/Scilab/scilab_test/USART_DMA_F302R8/USART_DMA_F302R8/Src\USART_DMA_F302R8.c ****       block_USART_DMA_F302R8.ztyp   = 0;
 273              		.loc 1 224 0
 274 0150 0023     		movs	r3, #0
 275 0152 C4F88430 		str	r3, [r4, #132]
 225:C:/Users/geoma/Desktop/Scilab/scilab_test/USART_DMA_F302R8/USART_DMA_F302R8/Src\USART_DMA_F302R8.c ****       block_USART_DMA_F302R8.ng     = 0;
 276              		.loc 1 225 0
 277 0156 E367     		str	r3, [r4, #124]
 226:C:/Users/geoma/Desktop/Scilab/scilab_test/USART_DMA_F302R8/USART_DMA_F302R8/Src\USART_DMA_F302R8.c ****       block_USART_DMA_F302R8.nz     = 0;
 278              		.loc 1 226 0
 279 0158 2361     		str	r3, [r4, #16]
 227:C:/Users/geoma/Desktop/Scilab/scilab_test/USART_DMA_F302R8/USART_DMA_F302R8/Src\USART_DMA_F302R8.c ****       block_USART_DMA_F302R8.noz    = 0;
 280              		.loc 1 227 0
 281 015a A361     		str	r3, [r4, #24]
 228:C:/Users/geoma/Desktop/Scilab/scilab_test/USART_DMA_F302R8/USART_DMA_F302R8/Src\USART_DMA_F302R8.c ****       block_USART_DMA_F302R8.nrpar  = 0;
 282              		.loc 1 228 0
 283 015c E365     		str	r3, [r4, #92]
 229:C:/Users/geoma/Desktop/Scilab/scilab_test/USART_DMA_F302R8/USART_DMA_F302R8/Src\USART_DMA_F302R8.c ****       block_USART_DMA_F302R8.nopar  = 1;
 284              		.loc 1 229 0
 285 015e E566     		str	r5, [r4, #108]
 230:C:/Users/geoma/Desktop/Scilab/scilab_test/USART_DMA_F302R8/USART_DMA_F302R8/Src\USART_DMA_F302R8.c ****       block_USART_DMA_F302R8.nipar  = 0;
 286              		.loc 1 230 0
ARM GAS  C:\Users\geoma\AppData\Local\Temp\ccldsZgL.s 			page 10


 287 0160 6366     		str	r3, [r4, #100]
 231:C:/Users/geoma/Desktop/Scilab/scilab_test/USART_DMA_F302R8/USART_DMA_F302R8/Src\USART_DMA_F302R8.c ****       block_USART_DMA_F302R8.nin    = 0;
 288              		.loc 1 231 0
 289 0162 E363     		str	r3, [r4, #60]
 232:C:/Users/geoma/Desktop/Scilab/scilab_test/USART_DMA_F302R8/USART_DMA_F302R8/Src\USART_DMA_F302R8.c ****       block_USART_DMA_F302R8.nout   = 1;
 290              		.loc 1 232 0
 291 0164 A564     		str	r5, [r4, #72]
 233:C:/Users/geoma/Desktop/Scilab/scilab_test/USART_DMA_F302R8/USART_DMA_F302R8/Src\USART_DMA_F302R8.c ****       block_USART_DMA_F302R8.nevout = 0;
 292              		.loc 1 233 0
 293 0166 6365     		str	r3, [r4, #84]
 234:C:/Users/geoma/Desktop/Scilab/scilab_test/USART_DMA_F302R8/USART_DMA_F302R8/Src\USART_DMA_F302R8.c ****       block_USART_DMA_F302R8.nmode  = 0;
 294              		.loc 1 234 0
 295 0168 C4F89430 		str	r3, [r4, #148]
 235:C:/Users/geoma/Desktop/Scilab/scilab_test/USART_DMA_F302R8/USART_DMA_F302R8/Src\USART_DMA_F302R8.c ****       block_USART_DMA_F302R8.evout = NULL;
 296              		.loc 1 235 0
 297 016c A365     		str	r3, [r4, #88]
 236:C:/Users/geoma/Desktop/Scilab/scilab_test/USART_DMA_F302R8/USART_DMA_F302R8/Src\USART_DMA_F302R8.c ****       block_USART_DMA_F302R8.inptr  = inptr;
 298              		.loc 1 236 0
 299 016e C4F844B0 		str	fp, [r4, #68]
 237:C:/Users/geoma/Desktop/Scilab/scilab_test/USART_DMA_F302R8/USART_DMA_F302R8/Src\USART_DMA_F302R8.c ****       block_USART_DMA_F302R8.insz = NULL;
 300              		.loc 1 237 0
 301 0172 2364     		str	r3, [r4, #64]
 238:C:/Users/geoma/Desktop/Scilab/scilab_test/USART_DMA_F302R8/USART_DMA_F302R8/Src\USART_DMA_F302R8.c ****       block_USART_DMA_F302R8.outptr = outptr;
 302              		.loc 1 238 0
 303 0174 C4F85090 		str	r9, [r4, #80]
 239:C:/Users/geoma/Desktop/Scilab/scilab_test/USART_DMA_F302R8/USART_DMA_F302R8/Src\USART_DMA_F302R8.c ****       block_USART_DMA_F302R8.outptr[0] = USART_DMA_F302R8_block_outtbptr[3];
 304              		.loc 1 239 0
 305 0178 DAF80020 		ldr	r2, [r10]
 306 017c D268     		ldr	r2, [r2, #12]
 307 017e C9F80020 		str	r2, [r9]
 240:C:/Users/geoma/Desktop/Scilab/scilab_test/USART_DMA_F302R8/USART_DMA_F302R8/Src\USART_DMA_F302R8.c ****       block_USART_DMA_F302R8.outsz = outszptr;
 308              		.loc 1 240 0
 309 0182 E764     		str	r7, [r4, #76]
 241:C:/Users/geoma/Desktop/Scilab/scilab_test/USART_DMA_F302R8/USART_DMA_F302R8/Src\USART_DMA_F302R8.c ****       block_USART_DMA_F302R8.outsz[0]  = 1;
 310              		.loc 1 241 0
 311 0184 3D60     		str	r5, [r7]
 242:C:/Users/geoma/Desktop/Scilab/scilab_test/USART_DMA_F302R8/USART_DMA_F302R8/Src\USART_DMA_F302R8.c ****       block_USART_DMA_F302R8.outsz[1]  = 1;
 312              		.loc 1 242 0
 313 0186 7D60     		str	r5, [r7, #4]
 243:C:/Users/geoma/Desktop/Scilab/scilab_test/USART_DMA_F302R8/USART_DMA_F302R8/Src\USART_DMA_F302R8.c ****       block_USART_DMA_F302R8.outsz[2]  = SCSREAL_N;
 314              		.loc 1 243 0
 315 0188 BE60     		str	r6, [r7, #8]
 244:C:/Users/geoma/Desktop/Scilab/scilab_test/USART_DMA_F302R8/USART_DMA_F302R8/Src\USART_DMA_F302R8.c ****       block_USART_DMA_F302R8.z = &(z[0]);
 316              		.loc 1 244 0
 317 018a C4F81480 		str	r8, [r4, #20]
 245:C:/Users/geoma/Desktop/Scilab/scilab_test/USART_DMA_F302R8/USART_DMA_F302R8/Src\USART_DMA_F302R8.c ****       if ((block_USART_DMA_F302R8.oparptr = malloc(sizeof(void *)*block_USART_DMA_F302R8.nopar))== 
 318              		.loc 1 245 0
 319 018e FFF7FEFF 		bl	malloc
 320              	.LVL12:
 321 0192 0546     		mov	r5, r0
 322 0194 A067     		str	r0, [r4, #120]
 323 0196 0028     		cmp	r0, #0
 324 0198 72D0     		beq	.L7
 246:C:/Users/geoma/Desktop/Scilab/scilab_test/USART_DMA_F302R8/USART_DMA_F302R8/Src\USART_DMA_F302R8.c ****       if ((block_USART_DMA_F302R8.oparsz  = malloc(2*sizeof(int)*block_USART_DMA_F302R8.nopar))== N
 325              		.loc 1 246 0
 326 019a 0820     		movs	r0, #8
 327 019c FFF7FEFF 		bl	malloc
ARM GAS  C:\Users\geoma\AppData\Local\Temp\ccldsZgL.s 			page 11


 328              	.LVL13:
 329 01a0 2067     		str	r0, [r4, #112]
 330 01a2 0028     		cmp	r0, #0
 331 01a4 6FD0     		beq	.L8
 247:C:/Users/geoma/Desktop/Scilab/scilab_test/USART_DMA_F302R8/USART_DMA_F302R8/Src\USART_DMA_F302R8.c ****       if ((block_USART_DMA_F302R8.opartyp = malloc(sizeof(int)*block_USART_DMA_F302R8.nopar))== NUL
 332              		.loc 1 247 0
 333 01a6 0420     		movs	r0, #4
 334 01a8 FFF7FEFF 		bl	malloc
 335              	.LVL14:
 336 01ac 6067     		str	r0, [r4, #116]
 337 01ae 0028     		cmp	r0, #0
 338 01b0 6CD0     		beq	.L9
 248:C:/Users/geoma/Desktop/Scilab/scilab_test/USART_DMA_F302R8/USART_DMA_F302R8/Src\USART_DMA_F302R8.c ****       block_USART_DMA_F302R8.oparptr[0]   = (void *) OPAR_17;
 339              		.loc 1 248 0
 340 01b2 3F4B     		ldr	r3, .L11+28
 341 01b4 2B60     		str	r3, [r5]
 249:C:/Users/geoma/Desktop/Scilab/scilab_test/USART_DMA_F302R8/USART_DMA_F302R8/Src\USART_DMA_F302R8.c ****       block_USART_DMA_F302R8.oparsz[0]    = 1;
 342              		.loc 1 249 0
 343 01b6 236F     		ldr	r3, [r4, #112]
 344 01b8 0125     		movs	r5, #1
 345 01ba 1D60     		str	r5, [r3]
 250:C:/Users/geoma/Desktop/Scilab/scilab_test/USART_DMA_F302R8/USART_DMA_F302R8/Src\USART_DMA_F302R8.c ****       block_USART_DMA_F302R8.oparsz[1]    = 1;
 346              		.loc 1 250 0
 347 01bc 236F     		ldr	r3, [r4, #112]
 348 01be 5D60     		str	r5, [r3, #4]
 251:C:/Users/geoma/Desktop/Scilab/scilab_test/USART_DMA_F302R8/USART_DMA_F302R8/Src\USART_DMA_F302R8.c ****       block_USART_DMA_F302R8.opartyp[0]   = SCSREAL_N;
 349              		.loc 1 251 0
 350 01c0 636F     		ldr	r3, [r4, #116]
 351 01c2 3746     		mov	r7, r6
 352 01c4 1E60     		str	r6, [r3]
 252:C:/Users/geoma/Desktop/Scilab/scilab_test/USART_DMA_F302R8/USART_DMA_F302R8/Src\USART_DMA_F302R8.c ****       block_USART_DMA_F302R8.work = (void **)(((double *)work)+5);
 353              		.loc 1 252 0
 354 01c6 334E     		ldr	r6, .L11
 355 01c8 3368     		ldr	r3, [r6]
 356 01ca 2833     		adds	r3, r3, #40
 357 01cc C4F89030 		str	r3, [r4, #144]
 253:C:/Users/geoma/Desktop/Scilab/scilab_test/USART_DMA_F302R8/USART_DMA_F302R8/Src\USART_DMA_F302R8.c ****     }
 254:C:/Users/geoma/Desktop/Scilab/scilab_test/USART_DMA_F302R8/USART_DMA_F302R8/Src\USART_DMA_F302R8.c ****     cstblk4_m(&block_USART_DMA_F302R8,1);
 358              		.loc 1 254 0
 359 01d0 2046     		mov	r0, r4
 360 01d2 2946     		mov	r1, r5
 361 01d4 FFF7FEFF 		bl	cstblk4_m
 362              	.LVL15:
 255:C:/Users/geoma/Desktop/Scilab/scilab_test/USART_DMA_F302R8/USART_DMA_F302R8/Src\USART_DMA_F302R8.c ****     cstblk4_m(&block_USART_DMA_F302R8,2);
 363              		.loc 1 255 0
 364 01d8 2046     		mov	r0, r4
 365 01da 0221     		movs	r1, #2
 366 01dc FFF7FEFF 		bl	cstblk4_m
 367              	.LVL16:
 256:C:/Users/geoma/Desktop/Scilab/scilab_test/USART_DMA_F302R8/USART_DMA_F302R8/Src\USART_DMA_F302R8.c ****     {
 257:C:/Users/geoma/Desktop/Scilab/scilab_test/USART_DMA_F302R8/USART_DMA_F302R8/Src\USART_DMA_F302R8.c ****       free(block_USART_DMA_F302R8.oparptr);
 368              		.loc 1 257 0
 369 01e0 A06F     		ldr	r0, [r4, #120]
 370 01e2 FFF7FEFF 		bl	free
 371              	.LVL17:
 258:C:/Users/geoma/Desktop/Scilab/scilab_test/USART_DMA_F302R8/USART_DMA_F302R8/Src\USART_DMA_F302R8.c ****       free(block_USART_DMA_F302R8.oparsz);
 372              		.loc 1 258 0
ARM GAS  C:\Users\geoma\AppData\Local\Temp\ccldsZgL.s 			page 12


 373 01e6 206F     		ldr	r0, [r4, #112]
 374 01e8 FFF7FEFF 		bl	free
 375              	.LVL18:
 259:C:/Users/geoma/Desktop/Scilab/scilab_test/USART_DMA_F302R8/USART_DMA_F302R8/Src\USART_DMA_F302R8.c ****       free(block_USART_DMA_F302R8.opartyp);
 376              		.loc 1 259 0
 377 01ec 606F     		ldr	r0, [r4, #116]
 378 01ee FFF7FEFF 		bl	free
 379              	.LVL19:
 260:C:/Users/geoma/Desktop/Scilab/scilab_test/USART_DMA_F302R8/USART_DMA_F302R8/Src\USART_DMA_F302R8.c ****     }
 261:C:/Users/geoma/Desktop/Scilab/scilab_test/USART_DMA_F302R8/USART_DMA_F302R8/Src\USART_DMA_F302R8.c **** 
 262:C:/Users/geoma/Desktop/Scilab/scilab_test/USART_DMA_F302R8/USART_DMA_F302R8/Src\USART_DMA_F302R8.c ****     /* Call of 'convert' (type 4 - blk nb 5 - uid ) */
 263:C:/Users/geoma/Desktop/Scilab/scilab_test/USART_DMA_F302R8/USART_DMA_F302R8/Src\USART_DMA_F302R8.c ****     { 
 264:C:/Users/geoma/Desktop/Scilab/scilab_test/USART_DMA_F302R8/USART_DMA_F302R8/Src\USART_DMA_F302R8.c ****       /* set blk struc. of 'convert' (type 4 - blk nb 5 - uid ) */
 265:C:/Users/geoma/Desktop/Scilab/scilab_test/USART_DMA_F302R8/USART_DMA_F302R8/Src\USART_DMA_F302R8.c ****       block_USART_DMA_F302R8.type   = 4;
 380              		.loc 1 265 0
 381 01f2 0423     		movs	r3, #4
 382 01f4 A360     		str	r3, [r4, #8]
 266:C:/Users/geoma/Desktop/Scilab/scilab_test/USART_DMA_F302R8/USART_DMA_F302R8/Src\USART_DMA_F302R8.c ****       block_USART_DMA_F302R8.ztyp   = 0;
 383              		.loc 1 266 0
 384 01f6 0023     		movs	r3, #0
 385 01f8 C4F88430 		str	r3, [r4, #132]
 267:C:/Users/geoma/Desktop/Scilab/scilab_test/USART_DMA_F302R8/USART_DMA_F302R8/Src\USART_DMA_F302R8.c ****       block_USART_DMA_F302R8.ng     = 0;
 386              		.loc 1 267 0
 387 01fc E367     		str	r3, [r4, #124]
 268:C:/Users/geoma/Desktop/Scilab/scilab_test/USART_DMA_F302R8/USART_DMA_F302R8/Src\USART_DMA_F302R8.c ****       block_USART_DMA_F302R8.nz     = 0;
 388              		.loc 1 268 0
 389 01fe 2361     		str	r3, [r4, #16]
 269:C:/Users/geoma/Desktop/Scilab/scilab_test/USART_DMA_F302R8/USART_DMA_F302R8/Src\USART_DMA_F302R8.c ****       block_USART_DMA_F302R8.noz    = 0;
 390              		.loc 1 269 0
 391 0200 A361     		str	r3, [r4, #24]
 270:C:/Users/geoma/Desktop/Scilab/scilab_test/USART_DMA_F302R8/USART_DMA_F302R8/Src\USART_DMA_F302R8.c ****       block_USART_DMA_F302R8.nrpar  = 0;
 392              		.loc 1 270 0
 393 0202 E365     		str	r3, [r4, #92]
 271:C:/Users/geoma/Desktop/Scilab/scilab_test/USART_DMA_F302R8/USART_DMA_F302R8/Src\USART_DMA_F302R8.c ****       block_USART_DMA_F302R8.nopar  = 0;
 394              		.loc 1 271 0
 395 0204 E366     		str	r3, [r4, #108]
 272:C:/Users/geoma/Desktop/Scilab/scilab_test/USART_DMA_F302R8/USART_DMA_F302R8/Src\USART_DMA_F302R8.c ****       block_USART_DMA_F302R8.nipar  = 1;
 396              		.loc 1 272 0
 397 0206 6566     		str	r5, [r4, #100]
 273:C:/Users/geoma/Desktop/Scilab/scilab_test/USART_DMA_F302R8/USART_DMA_F302R8/Src\USART_DMA_F302R8.c ****       block_USART_DMA_F302R8.nin    = 1;
 398              		.loc 1 273 0
 399 0208 E563     		str	r5, [r4, #60]
 274:C:/Users/geoma/Desktop/Scilab/scilab_test/USART_DMA_F302R8/USART_DMA_F302R8/Src\USART_DMA_F302R8.c ****       block_USART_DMA_F302R8.nout   = 1;
 400              		.loc 1 274 0
 401 020a A564     		str	r5, [r4, #72]
 275:C:/Users/geoma/Desktop/Scilab/scilab_test/USART_DMA_F302R8/USART_DMA_F302R8/Src\USART_DMA_F302R8.c ****       block_USART_DMA_F302R8.nevout = 0;
 402              		.loc 1 275 0
 403 020c 6365     		str	r3, [r4, #84]
 276:C:/Users/geoma/Desktop/Scilab/scilab_test/USART_DMA_F302R8/USART_DMA_F302R8/Src\USART_DMA_F302R8.c ****       block_USART_DMA_F302R8.nmode  = 0;
 404              		.loc 1 276 0
 405 020e C4F89430 		str	r3, [r4, #148]
 277:C:/Users/geoma/Desktop/Scilab/scilab_test/USART_DMA_F302R8/USART_DMA_F302R8/Src\USART_DMA_F302R8.c ****       block_USART_DMA_F302R8.evout = NULL;
 406              		.loc 1 277 0
 407 0212 A365     		str	r3, [r4, #88]
 278:C:/Users/geoma/Desktop/Scilab/scilab_test/USART_DMA_F302R8/USART_DMA_F302R8/Src\USART_DMA_F302R8.c ****       block_USART_DMA_F302R8.inptr  = inptr;
 408              		.loc 1 278 0
 409 0214 C4F844B0 		str	fp, [r4, #68]
ARM GAS  C:\Users\geoma\AppData\Local\Temp\ccldsZgL.s 			page 13


 279:C:/Users/geoma/Desktop/Scilab/scilab_test/USART_DMA_F302R8/USART_DMA_F302R8/Src\USART_DMA_F302R8.c ****       block_USART_DMA_F302R8.inptr[0]  = USART_DMA_F302R8_block_outtbptr[3];
 410              		.loc 1 279 0
 411 0218 DAF80020 		ldr	r2, [r10]
 412 021c D168     		ldr	r1, [r2, #12]
 413 021e CBF80010 		str	r1, [fp]
 280:C:/Users/geoma/Desktop/Scilab/scilab_test/USART_DMA_F302R8/USART_DMA_F302R8/Src\USART_DMA_F302R8.c ****       block_USART_DMA_F302R8.insz = inszptr;
 414              		.loc 1 280 0
 415 0222 204B     		ldr	r3, .L11+16
 416 0224 2364     		str	r3, [r4, #64]
 281:C:/Users/geoma/Desktop/Scilab/scilab_test/USART_DMA_F302R8/USART_DMA_F302R8/Src\USART_DMA_F302R8.c ****       block_USART_DMA_F302R8.insz[0]   = 1;
 417              		.loc 1 281 0
 418 0226 1D60     		str	r5, [r3]
 282:C:/Users/geoma/Desktop/Scilab/scilab_test/USART_DMA_F302R8/USART_DMA_F302R8/Src\USART_DMA_F302R8.c ****       block_USART_DMA_F302R8.insz[1]   = 1;
 419              		.loc 1 282 0
 420 0228 5D60     		str	r5, [r3, #4]
 283:C:/Users/geoma/Desktop/Scilab/scilab_test/USART_DMA_F302R8/USART_DMA_F302R8/Src\USART_DMA_F302R8.c ****       block_USART_DMA_F302R8.insz[2]   = SCSREAL_N;
 421              		.loc 1 283 0
 422 022a 9F60     		str	r7, [r3, #8]
 284:C:/Users/geoma/Desktop/Scilab/scilab_test/USART_DMA_F302R8/USART_DMA_F302R8/Src\USART_DMA_F302R8.c ****       block_USART_DMA_F302R8.outptr = outptr;
 423              		.loc 1 284 0
 424 022c C4F85090 		str	r9, [r4, #80]
 285:C:/Users/geoma/Desktop/Scilab/scilab_test/USART_DMA_F302R8/USART_DMA_F302R8/Src\USART_DMA_F302R8.c ****       block_USART_DMA_F302R8.outptr[0] = USART_DMA_F302R8_block_outtbptr[2];
 425              		.loc 1 285 0
 426 0230 9268     		ldr	r2, [r2, #8]
 427 0232 C9F80020 		str	r2, [r9]
 286:C:/Users/geoma/Desktop/Scilab/scilab_test/USART_DMA_F302R8/USART_DMA_F302R8/Src\USART_DMA_F302R8.c ****       block_USART_DMA_F302R8.outsz = outszptr;
 428              		.loc 1 286 0
 429 0236 1C4B     		ldr	r3, .L11+20
 430 0238 E364     		str	r3, [r4, #76]
 287:C:/Users/geoma/Desktop/Scilab/scilab_test/USART_DMA_F302R8/USART_DMA_F302R8/Src\USART_DMA_F302R8.c ****       block_USART_DMA_F302R8.outsz[0]  = 1;
 431              		.loc 1 287 0
 432 023a 1D60     		str	r5, [r3]
 288:C:/Users/geoma/Desktop/Scilab/scilab_test/USART_DMA_F302R8/USART_DMA_F302R8/Src\USART_DMA_F302R8.c ****       block_USART_DMA_F302R8.outsz[1]  = 1;
 433              		.loc 1 288 0
 434 023c 5D60     		str	r5, [r3, #4]
 289:C:/Users/geoma/Desktop/Scilab/scilab_test/USART_DMA_F302R8/USART_DMA_F302R8/Src\USART_DMA_F302R8.c ****       block_USART_DMA_F302R8.outsz[2]  = SCSUINT16_N;
 435              		.loc 1 289 0
 436 023e 4FF44B72 		mov	r2, #812
 437 0242 9A60     		str	r2, [r3, #8]
 290:C:/Users/geoma/Desktop/Scilab/scilab_test/USART_DMA_F302R8/USART_DMA_F302R8/Src\USART_DMA_F302R8.c ****       block_USART_DMA_F302R8.z = &(z[0]);
 438              		.loc 1 290 0
 439 0244 C4F81480 		str	r8, [r4, #20]
 291:C:/Users/geoma/Desktop/Scilab/scilab_test/USART_DMA_F302R8/USART_DMA_F302R8/Src\USART_DMA_F302R8.c ****       block_USART_DMA_F302R8.ipar=(int*) &(IPAR1[0]);
 440              		.loc 1 291 0
 441 0248 184B     		ldr	r3, .L11+24
 442 024a A366     		str	r3, [r4, #104]
 292:C:/Users/geoma/Desktop/Scilab/scilab_test/USART_DMA_F302R8/USART_DMA_F302R8/Src\USART_DMA_F302R8.c ****       block_USART_DMA_F302R8.work = (void **)(((double *)work)+4);
 443              		.loc 1 292 0
 444 024c 3368     		ldr	r3, [r6]
 445 024e 2033     		adds	r3, r3, #32
 446 0250 C4F89030 		str	r3, [r4, #144]
 293:C:/Users/geoma/Desktop/Scilab/scilab_test/USART_DMA_F302R8/USART_DMA_F302R8/Src\USART_DMA_F302R8.c ****     }
 294:C:/Users/geoma/Desktop/Scilab/scilab_test/USART_DMA_F302R8/USART_DMA_F302R8/Src\USART_DMA_F302R8.c ****     convert(&block_USART_DMA_F302R8,1);
 447              		.loc 1 294 0
 448 0254 2046     		mov	r0, r4
 449 0256 2946     		mov	r1, r5
 450 0258 FFF7FEFF 		bl	convert
ARM GAS  C:\Users\geoma\AppData\Local\Temp\ccldsZgL.s 			page 14


 451              	.LVL20:
 295:C:/Users/geoma/Desktop/Scilab/scilab_test/USART_DMA_F302R8/USART_DMA_F302R8/Src\USART_DMA_F302R8.c ****     convert(&block_USART_DMA_F302R8,2);
 452              		.loc 1 295 0
 453 025c 2046     		mov	r0, r4
 454 025e 0221     		movs	r1, #2
 455 0260 FFF7FEFF 		bl	convert
 456              	.LVL21:
 296:C:/Users/geoma/Desktop/Scilab/scilab_test/USART_DMA_F302R8/USART_DMA_F302R8/Src\USART_DMA_F302R8.c **** 
 297:C:/Users/geoma/Desktop/Scilab/scilab_test/USART_DMA_F302R8/USART_DMA_F302R8/Src\USART_DMA_F302R8.c **** 
 298:C:/Users/geoma/Desktop/Scilab/scilab_test/USART_DMA_F302R8/USART_DMA_F302R8/Src\USART_DMA_F302R8.c ****     /* Dumy variable not used in embedded word but necessary for current version based on PC scicos
 299:C:/Users/geoma/Desktop/Scilab/scilab_test/USART_DMA_F302R8/USART_DMA_F302R8/Src\USART_DMA_F302R8.c ****     /* local_flag set to output update */
 300:C:/Users/geoma/Desktop/Scilab/scilab_test/USART_DMA_F302R8/USART_DMA_F302R8/Src\USART_DMA_F302R8.c ****     local_flag = 1;
 457              		.loc 1 300 0
 458 0264 134B     		ldr	r3, .L11+32
 459 0266 1D60     		str	r5, [r3]
 301:C:/Users/geoma/Desktop/Scilab/scilab_test/USART_DMA_F302R8/USART_DMA_F302R8/Src\USART_DMA_F302R8.c ****     double t; //Simulation time (not used)
 302:C:/Users/geoma/Desktop/Scilab/scilab_test/USART_DMA_F302R8/USART_DMA_F302R8/Src\USART_DMA_F302R8.c **** return(1);
 460              		.loc 1 302 0
 461 0268 2846     		mov	r0, r5
 462 026a BDE8F88F 		pop	{r3, r4, r5, r6, r7, r8, r9, r10, fp, pc}
 463              	.L4:
 203:C:/Users/geoma/Desktop/Scilab/scilab_test/USART_DMA_F302R8/USART_DMA_F302R8/Src\USART_DMA_F302R8.c ****     if ((block_USART_DMA_F302R8.oparsz  = malloc(2*sizeof(int)*block_USART_DMA_F302R8.nopar))== NUL
 464              		.loc 1 203 0
 465 026e 0020     		movs	r0, #0
 466 0270 BDE8F88F 		pop	{r3, r4, r5, r6, r7, r8, r9, r10, fp, pc}
 467              	.L5:
 204:C:/Users/geoma/Desktop/Scilab/scilab_test/USART_DMA_F302R8/USART_DMA_F302R8/Src\USART_DMA_F302R8.c ****     if ((block_USART_DMA_F302R8.opartyp = malloc(sizeof(int)*block_USART_DMA_F302R8.nopar))== NULL 
 468              		.loc 1 204 0
 469 0274 0020     		movs	r0, #0
 470 0276 BDE8F88F 		pop	{r3, r4, r5, r6, r7, r8, r9, r10, fp, pc}
 471              	.L6:
 205:C:/Users/geoma/Desktop/Scilab/scilab_test/USART_DMA_F302R8/USART_DMA_F302R8/Src\USART_DMA_F302R8.c ****     block_USART_DMA_F302R8.oparptr[0]   = (void *) OPAR_17;
 472              		.loc 1 205 0
 473 027a 0020     		movs	r0, #0
 474 027c BDE8F88F 		pop	{r3, r4, r5, r6, r7, r8, r9, r10, fp, pc}
 475              	.L7:
 245:C:/Users/geoma/Desktop/Scilab/scilab_test/USART_DMA_F302R8/USART_DMA_F302R8/Src\USART_DMA_F302R8.c ****       if ((block_USART_DMA_F302R8.oparsz  = malloc(2*sizeof(int)*block_USART_DMA_F302R8.nopar))== N
 476              		.loc 1 245 0
 477 0280 0020     		movs	r0, #0
 478 0282 BDE8F88F 		pop	{r3, r4, r5, r6, r7, r8, r9, r10, fp, pc}
 479              	.L8:
 246:C:/Users/geoma/Desktop/Scilab/scilab_test/USART_DMA_F302R8/USART_DMA_F302R8/Src\USART_DMA_F302R8.c ****       if ((block_USART_DMA_F302R8.opartyp = malloc(sizeof(int)*block_USART_DMA_F302R8.nopar))== NUL
 480              		.loc 1 246 0
 481 0286 0020     		movs	r0, #0
 482 0288 BDE8F88F 		pop	{r3, r4, r5, r6, r7, r8, r9, r10, fp, pc}
 483              	.L9:
 247:C:/Users/geoma/Desktop/Scilab/scilab_test/USART_DMA_F302R8/USART_DMA_F302R8/Src\USART_DMA_F302R8.c ****       block_USART_DMA_F302R8.oparptr[0]   = (void *) OPAR_17;
 484              		.loc 1 247 0
 485 028c 0020     		movs	r0, #0
 303:C:/Users/geoma/Desktop/Scilab/scilab_test/USART_DMA_F302R8/USART_DMA_F302R8/Src\USART_DMA_F302R8.c **** } //End of function USART_DMA_F302R8_Initialize()
 486              		.loc 1 303 0
 487 028e BDE8F88F 		pop	{r3, r4, r5, r6, r7, r8, r9, r10, fp, pc}
 488              	.L12:
 489 0292 00BF     		.align	2
 490              	.L11:
 491 0294 00000000 		.word	work
 492 0298 00000000 		.word	.LANCHOR1
ARM GAS  C:\Users\geoma\AppData\Local\Temp\ccldsZgL.s 			page 15


 493 029c 00000000 		.word	.LANCHOR2
 494 02a0 00000000 		.word	block_USART_DMA_F302R8
 495 02a4 00000000 		.word	inszptr
 496 02a8 00000000 		.word	outszptr
 497 02ac 00000000 		.word	.LANCHOR3
 498 02b0 00000000 		.word	.LANCHOR4
 499 02b4 00000000 		.word	.LANCHOR5
 500 02b8 00000000 		.word	.LANCHOR0
 501 02bc 00000000 		.word	USART_DMA_F302R8_block_outtbptr
 502 02c0 00000000 		.word	inptr
 503 02c4 00000000 		.word	outptr
 504              		.cfi_endproc
 505              	.LFE157:
 507              		.section	.text.USART_DMA_F302R8_Step1,"ax",%progbits
 508              		.align	2
 509              		.global	USART_DMA_F302R8_Step1
 510              		.thumb
 511              		.thumb_func
 513              	USART_DMA_F302R8_Step1:
 514              	.LFB158:
 304:C:/Users/geoma/Desktop/Scilab/scilab_test/USART_DMA_F302R8/USART_DMA_F302R8/Src\USART_DMA_F302R8.c **** /*------------------------------  Step1 function called every 1 solver loop(s)*/
 305:C:/Users/geoma/Desktop/Scilab/scilab_test/USART_DMA_F302R8/USART_DMA_F302R8/Src\USART_DMA_F302R8.c **** void USART_DMA_F302R8_Step1()
 306:C:/Users/geoma/Desktop/Scilab/scilab_test/USART_DMA_F302R8/USART_DMA_F302R8/Src\USART_DMA_F302R8.c **** {
 515              		.loc 1 306 0
 516              		.cfi_startproc
 517              		@ args = 0, pretend = 0, frame = 0
 518              		@ frame_needed = 0, uses_anonymous_args = 0
 519 0000 08B5     		push	{r3, lr}
 520              	.LCFI1:
 521              		.cfi_def_cfa_offset 8
 522              		.cfi_offset 3, -8
 523              		.cfi_offset 14, -4
 524              	.LVL22:
 307:C:/Users/geoma/Desktop/Scilab/scilab_test/USART_DMA_F302R8/USART_DMA_F302R8/Src\USART_DMA_F302R8.c ****   // double t;
 308:C:/Users/geoma/Desktop/Scilab/scilab_test/USART_DMA_F302R8/USART_DMA_F302R8/Src\USART_DMA_F302R8.c ****   int nevprt=1;
 309:C:/Users/geoma/Desktop/Scilab/scilab_test/USART_DMA_F302R8/USART_DMA_F302R8/Src\USART_DMA_F302R8.c ****   // int local_flag = 1; //Output update
 310:C:/Users/geoma/Desktop/Scilab/scilab_test/USART_DMA_F302R8/USART_DMA_F302R8/Src\USART_DMA_F302R8.c ****   int nport;
 311:C:/Users/geoma/Desktop/Scilab/scilab_test/USART_DMA_F302R8/USART_DMA_F302R8/Src\USART_DMA_F302R8.c **** 
 312:C:/Users/geoma/Desktop/Scilab/scilab_test/USART_DMA_F302R8/USART_DMA_F302R8/Src\USART_DMA_F302R8.c **** /*---------------continuous activation state */
 313:C:/Users/geoma/Desktop/Scilab/scilab_test/USART_DMA_F302R8/USART_DMA_F302R8/Src\USART_DMA_F302R8.c **** /*---------------STM32 block(s) without activation state  */
 314:C:/Users/geoma/Desktop/Scilab/scilab_test/USART_DMA_F302R8/USART_DMA_F302R8/Src\USART_DMA_F302R8.c **** /*---------------STM32 solver step: NoEvt NoIn NoOut*/
 315:C:/Users/geoma/Desktop/Scilab/scilab_test/USART_DMA_F302R8/USART_DMA_F302R8/Src\USART_DMA_F302R8.c **** /*---------------STM32 solver step: NoEvt NoIn Out*/
 316:C:/Users/geoma/Desktop/Scilab/scilab_test/USART_DMA_F302R8/USART_DMA_F302R8/Src\USART_DMA_F302R8.c **** /*---------------STM32 solver step: NoEvt In Out*/
 317:C:/Users/geoma/Desktop/Scilab/scilab_test/USART_DMA_F302R8/USART_DMA_F302R8/Src\USART_DMA_F302R8.c **** /*---------------STM32 solver step: NoEvt In NoOut*/
 318:C:/Users/geoma/Desktop/Scilab/scilab_test/USART_DMA_F302R8/USART_DMA_F302R8/Src\USART_DMA_F302R8.c **** /*---------------FLAG: 1  */
 319:C:/Users/geoma/Desktop/Scilab/scilab_test/USART_DMA_F302R8/USART_DMA_F302R8/Src\USART_DMA_F302R8.c ****     /* Output computation */
 320:C:/Users/geoma/Desktop/Scilab/scilab_test/USART_DMA_F302R8/USART_DMA_F302R8/Src\USART_DMA_F302R8.c ****     if(USART2_RxDataLink.rxStatus == USART_RX_OFF)
 525              		.loc 1 320 0
 526 0002 124B     		ldr	r3, .L17
 527 0004 9B79     		ldrb	r3, [r3, #6]	@ zero_extendqisi2
 528 0006 DBB2     		uxtb	r3, r3
 529 0008 022B     		cmp	r3, #2
 530 000a 0CD1     		bne	.L14
 321:C:/Users/geoma/Desktop/Scilab/scilab_test/USART_DMA_F302R8/USART_DMA_F302R8/Src\USART_DMA_F302R8.c ****     {
 322:C:/Users/geoma/Desktop/Scilab/scilab_test/USART_DMA_F302R8/USART_DMA_F302R8/Src\USART_DMA_F302R8.c ****        USART2_RxDataLink.ptRcv = G_USART2_RxDataBuffer;
 531              		.loc 1 322 0
 532 000c 0F4B     		ldr	r3, .L17
ARM GAS  C:\Users\geoma\AppData\Local\Temp\ccldsZgL.s 			page 16


 533 000e 1049     		ldr	r1, .L17+4
 534 0010 1960     		str	r1, [r3]
 323:C:/Users/geoma/Desktop/Scilab/scilab_test/USART_DMA_F302R8/USART_DMA_F302R8/Src\USART_DMA_F302R8.c ****        USART2_RxDataLink.nbRcv = 0;
 535              		.loc 1 323 0
 536 0012 0022     		movs	r2, #0
 537 0014 9A80     		strh	r2, [r3, #4]	@ movhi
 324:C:/Users/geoma/Desktop/Scilab/scilab_test/USART_DMA_F302R8/USART_DMA_F302R8/Src\USART_DMA_F302R8.c ****         USART2_RxDataLink.rxStatus = USART_RX_ON;
 538              		.loc 1 324 0
 539 0016 9A71     		strb	r2, [r3, #6]
 325:C:/Users/geoma/Desktop/Scilab/scilab_test/USART_DMA_F302R8/USART_DMA_F302R8/Src\USART_DMA_F302R8.c ****         HAL_UART_Receive_DMA(&huart2, G_USART2_RxDataBuffer, *(uint16_t*)USART_DMA_F302R8_block_out
 540              		.loc 1 325 0
 541 0018 0E4B     		ldr	r3, .L17+8
 542 001a 1B68     		ldr	r3, [r3]
 543 001c 9B68     		ldr	r3, [r3, #8]
 544 001e 0E48     		ldr	r0, .L17+12
 545 0020 1A88     		ldrh	r2, [r3]
 546 0022 FFF7FEFF 		bl	HAL_UART_Receive_DMA
 547              	.LVL23:
 548              	.L14:
 326:C:/Users/geoma/Desktop/Scilab/scilab_test/USART_DMA_F302R8/USART_DMA_F302R8/Src\USART_DMA_F302R8.c ****     }
 327:C:/Users/geoma/Desktop/Scilab/scilab_test/USART_DMA_F302R8/USART_DMA_F302R8/Src\USART_DMA_F302R8.c ****     
 328:C:/Users/geoma/Desktop/Scilab/scilab_test/USART_DMA_F302R8/USART_DMA_F302R8/Src\USART_DMA_F302R8.c ****     if(USART2_RxDataLink.rxStatus == USART_RX_OK)
 549              		.loc 1 328 0
 550 0026 094B     		ldr	r3, .L17
 551 0028 9B79     		ldrb	r3, [r3, #6]	@ zero_extendqisi2
 552 002a DBB2     		uxtb	r3, r3
 553 002c 012B     		cmp	r3, #1
 554 002e 0CD1     		bne	.L13
 329:C:/Users/geoma/Desktop/Scilab/scilab_test/USART_DMA_F302R8/USART_DMA_F302R8/Src\USART_DMA_F302R8.c ****     {
 330:C:/Users/geoma/Desktop/Scilab/scilab_test/USART_DMA_F302R8/USART_DMA_F302R8/Src\USART_DMA_F302R8.c ****        USART2_RxDataLink.nbRcv = *(uint16_t*)USART_DMA_F302R8_block_outtbptr[2];
 555              		.loc 1 330 0
 556 0030 084B     		ldr	r3, .L17+8
 557 0032 1B68     		ldr	r3, [r3]
 558 0034 9B68     		ldr	r3, [r3, #8]
 559 0036 1A88     		ldrh	r2, [r3]
 560 0038 044B     		ldr	r3, .L17
 561 003a 9A80     		strh	r2, [r3, #4]	@ movhi
 331:C:/Users/geoma/Desktop/Scilab/scilab_test/USART_DMA_F302R8/USART_DMA_F302R8/Src\USART_DMA_F302R8.c ****        USART2_RxDataLink.rxStatus = USART_RX_OFF;
 562              		.loc 1 331 0
 563 003c 0222     		movs	r2, #2
 564 003e 9A71     		strb	r2, [r3, #6]
 332:C:/Users/geoma/Desktop/Scilab/scilab_test/USART_DMA_F302R8/USART_DMA_F302R8/Src\USART_DMA_F302R8.c ****        /* Soft IT request*/
 333:C:/Users/geoma/Desktop/Scilab/scilab_test/USART_DMA_F302R8/USART_DMA_F302R8/Src\USART_DMA_F302R8.c ****        EXTI->SWIER |= 1 << 13;
 565              		.loc 1 333 0
 566 0040 064A     		ldr	r2, .L17+16
 567 0042 1369     		ldr	r3, [r2, #16]
 568 0044 43F40053 		orr	r3, r3, #8192
 569 0048 1361     		str	r3, [r2, #16]
 570              	.L13:
 571 004a 08BD     		pop	{r3, pc}
 572              	.L18:
 573              		.align	2
 574              	.L17:
 575 004c 00000000 		.word	USART2_RxDataLink
 576 0050 00000000 		.word	G_USART2_RxDataBuffer
 577 0054 00000000 		.word	USART_DMA_F302R8_block_outtbptr
 578 0058 00000000 		.word	huart2
ARM GAS  C:\Users\geoma\AppData\Local\Temp\ccldsZgL.s 			page 17


 579 005c 00040140 		.word	1073808384
 580              		.cfi_endproc
 581              	.LFE158:
 583              		.section	.text.get_scicos_time,"ax",%progbits
 584              		.align	2
 585              		.global	get_scicos_time
 586              		.thumb
 587              		.thumb_func
 589              	get_scicos_time:
 590              	.LFB159:
 334:C:/Users/geoma/Desktop/Scilab/scilab_test/USART_DMA_F302R8/USART_DMA_F302R8/Src\USART_DMA_F302R8.c ****     }
 335:C:/Users/geoma/Desktop/Scilab/scilab_test/USART_DMA_F302R8/USART_DMA_F302R8/Src\USART_DMA_F302R8.c ****     
 336:C:/Users/geoma/Desktop/Scilab/scilab_test/USART_DMA_F302R8/USART_DMA_F302R8/Src\USART_DMA_F302R8.c **** 
 337:C:/Users/geoma/Desktop/Scilab/scilab_test/USART_DMA_F302R8/USART_DMA_F302R8/Src\USART_DMA_F302R8.c **** 
 338:C:/Users/geoma/Desktop/Scilab/scilab_test/USART_DMA_F302R8/USART_DMA_F302R8/Src\USART_DMA_F302R8.c ****   } //End of USART_DMA_F302R8_Step1 function
 339:C:/Users/geoma/Desktop/Scilab/scilab_test/USART_DMA_F302R8/USART_DMA_F302R8/Src\USART_DMA_F302R8.c **** 
 340:C:/Users/geoma/Desktop/Scilab/scilab_test/USART_DMA_F302R8/USART_DMA_F302R8/Src\USART_DMA_F302R8.c **** 
 341:C:/Users/geoma/Desktop/Scilab/scilab_test/USART_DMA_F302R8/USART_DMA_F302R8/Src\USART_DMA_F302R8.c **** double get_scicos_time()
 342:C:/Users/geoma/Desktop/Scilab/scilab_test/USART_DMA_F302R8/USART_DMA_F302R8/Src\USART_DMA_F302R8.c **** {
 591              		.loc 1 342 0
 592              		.cfi_startproc
 593              		@ args = 0, pretend = 0, frame = 0
 594              		@ frame_needed = 0, uses_anonymous_args = 0
 595              		@ link register save eliminated.
 343:C:/Users/geoma/Desktop/Scilab/scilab_test/USART_DMA_F302R8/USART_DMA_F302R8/Src\USART_DMA_F302R8.c ****   return sci_time;
 344:C:/Users/geoma/Desktop/Scilab/scilab_test/USART_DMA_F302R8/USART_DMA_F302R8/Src\USART_DMA_F302R8.c **** }
 596              		.loc 1 344 0
 597 0000 014B     		ldr	r3, .L20
 598 0002 93ED000B 		fldd	d0, [r3]
 599 0006 7047     		bx	lr
 600              	.L21:
 601              		.align	2
 602              	.L20:
 603 0008 00000000 		.word	sci_time
 604              		.cfi_endproc
 605              	.LFE159:
 607              		.section	.text.set_scicos_time,"ax",%progbits
 608              		.align	2
 609              		.global	set_scicos_time
 610              		.thumb
 611              		.thumb_func
 613              	set_scicos_time:
 614              	.LFB160:
 345:C:/Users/geoma/Desktop/Scilab/scilab_test/USART_DMA_F302R8/USART_DMA_F302R8/Src\USART_DMA_F302R8.c **** 
 346:C:/Users/geoma/Desktop/Scilab/scilab_test/USART_DMA_F302R8/USART_DMA_F302R8/Src\USART_DMA_F302R8.c **** void set_scicos_time(double t)
 347:C:/Users/geoma/Desktop/Scilab/scilab_test/USART_DMA_F302R8/USART_DMA_F302R8/Src\USART_DMA_F302R8.c **** {
 615              		.loc 1 347 0
 616              		.cfi_startproc
 617              		@ args = 0, pretend = 0, frame = 0
 618              		@ frame_needed = 0, uses_anonymous_args = 0
 619              		@ link register save eliminated.
 620              	.LVL24:
 348:C:/Users/geoma/Desktop/Scilab/scilab_test/USART_DMA_F302R8/USART_DMA_F302R8/Src\USART_DMA_F302R8.c ****  sci_time = t;
 621              		.loc 1 348 0
 622 0000 014B     		ldr	r3, .L23
 623 0002 83ED000B 		fstd	d0, [r3]
 624 0006 7047     		bx	lr
ARM GAS  C:\Users\geoma\AppData\Local\Temp\ccldsZgL.s 			page 18


 625              	.L24:
 626              		.align	2
 627              	.L23:
 628 0008 00000000 		.word	sci_time
 629              		.cfi_endproc
 630              	.LFE160:
 632              		.section	.text.get_phase_simulation,"ax",%progbits
 633              		.align	2
 634              		.global	get_phase_simulation
 635              		.thumb
 636              		.thumb_func
 638              	get_phase_simulation:
 639              	.LFB161:
 349:C:/Users/geoma/Desktop/Scilab/scilab_test/USART_DMA_F302R8/USART_DMA_F302R8/Src\USART_DMA_F302R8.c **** }
 350:C:/Users/geoma/Desktop/Scilab/scilab_test/USART_DMA_F302R8/USART_DMA_F302R8/Src\USART_DMA_F302R8.c **** 
 351:C:/Users/geoma/Desktop/Scilab/scilab_test/USART_DMA_F302R8/USART_DMA_F302R8/Src\USART_DMA_F302R8.c **** int get_phase_simulation()
 352:C:/Users/geoma/Desktop/Scilab/scilab_test/USART_DMA_F302R8/USART_DMA_F302R8/Src\USART_DMA_F302R8.c **** {
 640              		.loc 1 352 0
 641              		.cfi_startproc
 642              		@ args = 0, pretend = 0, frame = 0
 643              		@ frame_needed = 0, uses_anonymous_args = 0
 644              		@ link register save eliminated.
 353:C:/Users/geoma/Desktop/Scilab/scilab_test/USART_DMA_F302R8/USART_DMA_F302R8/Src\USART_DMA_F302R8.c ****   return 1;
 354:C:/Users/geoma/Desktop/Scilab/scilab_test/USART_DMA_F302R8/USART_DMA_F302R8/Src\USART_DMA_F302R8.c **** }
 645              		.loc 1 354 0
 646 0000 0120     		movs	r0, #1
 647 0002 7047     		bx	lr
 648              		.cfi_endproc
 649              	.LFE161:
 651              		.section	.text.set_block_error,"ax",%progbits
 652              		.align	2
 653              		.global	set_block_error
 654              		.thumb
 655              		.thumb_func
 657              	set_block_error:
 658              	.LFB162:
 355:C:/Users/geoma/Desktop/Scilab/scilab_test/USART_DMA_F302R8/USART_DMA_F302R8/Src\USART_DMA_F302R8.c **** 
 356:C:/Users/geoma/Desktop/Scilab/scilab_test/USART_DMA_F302R8/USART_DMA_F302R8/Src\USART_DMA_F302R8.c **** 
 357:C:/Users/geoma/Desktop/Scilab/scilab_test/USART_DMA_F302R8/USART_DMA_F302R8/Src\USART_DMA_F302R8.c **** 
 358:C:/Users/geoma/Desktop/Scilab/scilab_test/USART_DMA_F302R8/USART_DMA_F302R8/Src\USART_DMA_F302R8.c **** void set_block_error(int err)
 359:C:/Users/geoma/Desktop/Scilab/scilab_test/USART_DMA_F302R8/USART_DMA_F302R8/Src\USART_DMA_F302R8.c **** {
 659              		.loc 1 359 0
 660              		.cfi_startproc
 661              		@ args = 0, pretend = 0, frame = 0
 662              		@ frame_needed = 0, uses_anonymous_args = 0
 663              		@ link register save eliminated.
 664              	.LVL25:
 665 0000 7047     		bx	lr
 666              		.cfi_endproc
 667              	.LFE162:
 669 0002 00BF     		.section	.text.scicos_malloc,"ax",%progbits
 670              		.align	2
 671              		.global	scicos_malloc
 672              		.thumb
 673              		.thumb_func
 675              	scicos_malloc:
 676              	.LFB163:
ARM GAS  C:\Users\geoma\AppData\Local\Temp\ccldsZgL.s 			page 19


 360:C:/Users/geoma/Desktop/Scilab/scilab_test/USART_DMA_F302R8/USART_DMA_F302R8/Src\USART_DMA_F302R8.c ****   return;
 361:C:/Users/geoma/Desktop/Scilab/scilab_test/USART_DMA_F302R8/USART_DMA_F302R8/Src\USART_DMA_F302R8.c **** }
 362:C:/Users/geoma/Desktop/Scilab/scilab_test/USART_DMA_F302R8/USART_DMA_F302R8/Src\USART_DMA_F302R8.c **** 
 363:C:/Users/geoma/Desktop/Scilab/scilab_test/USART_DMA_F302R8/USART_DMA_F302R8/Src\USART_DMA_F302R8.c **** void * scicos_malloc(size_t size)
 364:C:/Users/geoma/Desktop/Scilab/scilab_test/USART_DMA_F302R8/USART_DMA_F302R8/Src\USART_DMA_F302R8.c **** {
 677              		.loc 1 364 0
 678              		.cfi_startproc
 679              		@ args = 0, pretend = 0, frame = 0
 680              		@ frame_needed = 0, uses_anonymous_args = 0
 681              	.LVL26:
 682              		.loc 1 364 0
 683 0000 08B5     		push	{r3, lr}
 684              	.LCFI2:
 685              		.cfi_def_cfa_offset 8
 686              		.cfi_offset 3, -8
 687              		.cfi_offset 14, -4
 365:C:/Users/geoma/Desktop/Scilab/scilab_test/USART_DMA_F302R8/USART_DMA_F302R8/Src\USART_DMA_F302R8.c ****   return malloc(size);
 688              		.loc 1 365 0
 689 0002 FFF7FEFF 		bl	malloc
 690              	.LVL27:
 366:C:/Users/geoma/Desktop/Scilab/scilab_test/USART_DMA_F302R8/USART_DMA_F302R8/Src\USART_DMA_F302R8.c **** }
 691              		.loc 1 366 0
 692 0006 08BD     		pop	{r3, pc}
 693              		.cfi_endproc
 694              	.LFE163:
 696              		.section	.text.scicos_free,"ax",%progbits
 697              		.align	2
 698              		.global	scicos_free
 699              		.thumb
 700              		.thumb_func
 702              	scicos_free:
 703              	.LFB164:
 367:C:/Users/geoma/Desktop/Scilab/scilab_test/USART_DMA_F302R8/USART_DMA_F302R8/Src\USART_DMA_F302R8.c **** 
 368:C:/Users/geoma/Desktop/Scilab/scilab_test/USART_DMA_F302R8/USART_DMA_F302R8/Src\USART_DMA_F302R8.c **** void scicos_free(void *p)
 369:C:/Users/geoma/Desktop/Scilab/scilab_test/USART_DMA_F302R8/USART_DMA_F302R8/Src\USART_DMA_F302R8.c **** {
 704              		.loc 1 369 0
 705              		.cfi_startproc
 706              		@ args = 0, pretend = 0, frame = 0
 707              		@ frame_needed = 0, uses_anonymous_args = 0
 708              	.LVL28:
 709 0000 08B5     		push	{r3, lr}
 710              	.LCFI3:
 711              		.cfi_def_cfa_offset 8
 712              		.cfi_offset 3, -8
 713              		.cfi_offset 14, -4
 370:C:/Users/geoma/Desktop/Scilab/scilab_test/USART_DMA_F302R8/USART_DMA_F302R8/Src\USART_DMA_F302R8.c ****   free(p);
 714              		.loc 1 370 0
 715 0002 FFF7FEFF 		bl	free
 716              	.LVL29:
 717 0006 08BD     		pop	{r3, pc}
 718              		.cfi_endproc
 719              	.LFE164:
 721              		.section	.text.do_cold_restart,"ax",%progbits
 722              		.align	2
 723              		.global	do_cold_restart
 724              		.thumb
 725              		.thumb_func
ARM GAS  C:\Users\geoma\AppData\Local\Temp\ccldsZgL.s 			page 20


 727              	do_cold_restart:
 728              	.LFB165:
 371:C:/Users/geoma/Desktop/Scilab/scilab_test/USART_DMA_F302R8/USART_DMA_F302R8/Src\USART_DMA_F302R8.c **** }
 372:C:/Users/geoma/Desktop/Scilab/scilab_test/USART_DMA_F302R8/USART_DMA_F302R8/Src\USART_DMA_F302R8.c **** 
 373:C:/Users/geoma/Desktop/Scilab/scilab_test/USART_DMA_F302R8/USART_DMA_F302R8/Src\USART_DMA_F302R8.c **** void do_cold_restart()
 374:C:/Users/geoma/Desktop/Scilab/scilab_test/USART_DMA_F302R8/USART_DMA_F302R8/Src\USART_DMA_F302R8.c **** {
 729              		.loc 1 374 0
 730              		.cfi_startproc
 731              		@ args = 0, pretend = 0, frame = 0
 732              		@ frame_needed = 0, uses_anonymous_args = 0
 733              		@ link register save eliminated.
 734 0000 7047     		bx	lr
 735              		.cfi_endproc
 736              	.LFE165:
 738 0002 00BF     		.section	.text.sciprint,"ax",%progbits
 739              		.align	2
 740              		.global	sciprint
 741              		.thumb
 742              		.thumb_func
 744              	sciprint:
 745              	.LFB166:
 375:C:/Users/geoma/Desktop/Scilab/scilab_test/USART_DMA_F302R8/USART_DMA_F302R8/Src\USART_DMA_F302R8.c ****   return;
 376:C:/Users/geoma/Desktop/Scilab/scilab_test/USART_DMA_F302R8/USART_DMA_F302R8/Src\USART_DMA_F302R8.c **** }
 377:C:/Users/geoma/Desktop/Scilab/scilab_test/USART_DMA_F302R8/USART_DMA_F302R8/Src\USART_DMA_F302R8.c **** 
 378:C:/Users/geoma/Desktop/Scilab/scilab_test/USART_DMA_F302R8/USART_DMA_F302R8/Src\USART_DMA_F302R8.c **** void sciprint (char *fmt)
 379:C:/Users/geoma/Desktop/Scilab/scilab_test/USART_DMA_F302R8/USART_DMA_F302R8/Src\USART_DMA_F302R8.c **** {
 746              		.loc 1 379 0
 747              		.cfi_startproc
 748              		@ args = 0, pretend = 0, frame = 0
 749              		@ frame_needed = 0, uses_anonymous_args = 0
 750              		@ link register save eliminated.
 751              	.LVL30:
 752 0000 7047     		bx	lr
 753              		.cfi_endproc
 754              	.LFE166:
 756              		.global	outtb_4
 757              		.global	outtb_3
 758              		.comm	outszptr,36,4
 759              		.comm	outptr,12,4
 760              		.comm	inszptr,24,4
 761              		.comm	inptr,8,4
 762              		.comm	evoutptr,4,4
 763              		.global	z
 764              		.global	IPAR1
 765              		.global	RPAR1
 766              		.global	size_SCSREAL_N_1x1
 767              		.comm	sci_time,8,8
 768              		.comm	t,8,8
 769              		.global	local_flag
 770              		.comm	block_USART_DMA_F302R8,160,4
 771              		.comm	USART_DMA_F302R8_block_outtbptr,4,4
 772              		.comm	work,4,4
 773 0002 00BF     		.section	.data.local_flag,"aw",%progbits
 774              		.align	2
 775              		.set	.LANCHOR5,. + 0
 778              	local_flag:
 779 0000 04000000 		.word	4
ARM GAS  C:\Users\geoma\AppData\Local\Temp\ccldsZgL.s 			page 21


 780              		.section	.rodata.size_SCSREAL_N_1x1,"a",%progbits
 781              		.align	2
 784              	size_SCSREAL_N_1x1:
 785 0000 01000000 		.word	1
 786 0004 01000000 		.word	1
 787 0008 0A000000 		.word	10
 788              		.section	.rodata.IPAR1,"a",%progbits
 789              		.align	2
 790              		.set	.LANCHOR3,. + 0
 793              	IPAR1:
 794 0000 06000000 		.word	6
 795              		.section	.bss.z,"aw",%nobits
 796              		.align	3
 797              		.set	.LANCHOR0,. + 0
 800              	z:
 801 0000 00000000 		.space	104
 801      00000000 
 801      00000000 
 801      00000000 
 801      00000000 
 802              		.section	.rodata.RPAR1,"a",%progbits
 803              		.align	3
 806              	RPAR1:
 807 0000 00000000 		.word	0
 808 0004 0000E03F 		.word	1071644672
 809              		.section	.data.OPAR_17,"aw",%progbits
 810              		.align	3
 811              		.set	.LANCHOR4,. + 0
 814              	OPAR_17:
 815 0000 00000000 		.word	0
 816 0004 00001040 		.word	1074790400
 817              		.section	.bss.outtb_3,"aw",%nobits
 818              		.align	2
 819              		.set	.LANCHOR1,. + 0
 822              	outtb_3:
 823 0000 0000     		.space	2
 824              		.section	.bss.outtb_4,"aw",%nobits
 825              		.align	3
 826              		.set	.LANCHOR2,. + 0
 829              	outtb_4:
 830 0000 00000000 		.space	8
 830      00000000 
 831              		.text
 832              	.Letext0:
 833              		.file 2 "c:\\program files (x86)\\gnu tools arm embedded\\4.9 2015q2\\lib\\gcc\\arm-none-eabi\\4.9
 834              		.file 3 "c:\\program files (x86)\\gnu tools arm embedded\\4.9 2015q2\\arm-none-eabi\\include\\mach
 835              		.file 4 "c:\\program files (x86)\\gnu tools arm embedded\\4.9 2015q2\\arm-none-eabi\\include\\sys\
 836              		.file 5 "Drivers/CMSIS/Device/ST/STM32F3xx/Include/stm32f302x8.h"
 837              		.file 6 "Drivers/STM32F3xx_HAL_Driver/Inc/stm32f3xx_hal_def.h"
 838              		.file 7 "Drivers/STM32F3xx_HAL_Driver/Inc/stm32f3xx_hal_dma.h"
 839              		.file 8 "Drivers/STM32F3xx_HAL_Driver/Inc/stm32f3xx_hal_uart.h"
 840              		.file 9 "../../toolboxes/STM32_toolbox_1-1/scicos_blocks/includes/scicos_block4.h"
 841              		.file 10 "USART_DMA_F302R8/Inc/USART_DMA_F302R8_USART.h"
 842              		.file 11 "Drivers/CMSIS/Include/core_cm4.h"
 843              		.file 12 "USART_DMA_F302R8/Inc/USART_DMA_F302R8_GPIO.h"
 844              		.file 13 "c:\\program files (x86)\\gnu tools arm embedded\\4.9 2015q2\\arm-none-eabi\\include\\std
ARM GAS  C:\Users\geoma\AppData\Local\Temp\ccldsZgL.s 			page 22

